 capldll

 Timestamp is 6756f36a (Mon Dec  9 21:40:58 2024)

 Preferred load address is 10000000

 Start         Length     Name                   Class
 0001:00000000 00000060H .text$di                CODE
 0001:00000060 0007f450H .text$mn                CODE
 0001:0007f4b0 00000490H .text$x                 CODE
 0001:0007f940 0000002fH .text$yd                CODE
 0002:00000000 00000154H .idata$5                DATA
 0002:00000154 00000008H .00cfg                  DATA
 0002:0000015c 00000004H .CRT$XCA                DATA
 0002:00000160 00000004H .CRT$XCC                DATA
 0002:00000164 00000008H .CRT$XCU                DATA
 0002:0000016c 00000004H .CRT$XCZ                DATA
 0002:00000170 00000004H .CRT$XIA                DATA
 0002:00000174 0000000cH .CRT$XIC                DATA
 0002:00000180 00000004H .CRT$XIZ                DATA
 0002:00000184 00000004H .CRT$XPA                DATA
 0002:00000188 00000008H .CRT$XPX                DATA
 0002:00000190 00000004H .CRT$XPXA               DATA
 0002:00000194 00000004H .CRT$XPZ                DATA
 0002:00000198 00000004H .CRT$XTA                DATA
 0002:0000019c 00000004H .CRT$XTZ                DATA
 0002:000001a0 00000000H .gfids$y                DATA
 0002:000001a0 00021b20H .rdata                  DATA
 0002:00021cc0 00000004H .rdata$CastGuardVftablesA DATA
 0002:00021cc4 00000004H .rdata$CastGuardVftablesC DATA
 0002:00021cc8 000005b0H .rdata$r                DATA
 0002:00022278 00000088H .rdata$sxdata           DATA
 0002:00022300 000000b4H .rdata$voltmd           DATA
 0002:000223b4 000003c0H .rdata$zzzdbg           DATA
 0002:00022774 00000004H .rtc$IAA                DATA
 0002:00022778 00000004H .rtc$IZZ                DATA
 0002:0002277c 00000004H .rtc$TAA                DATA
 0002:00022780 00000008H .rtc$TZZ                DATA
 0002:00022788 00001198H .xdata$x                DATA
 0002:00023920 000000f8H .edata                  DATA
 0002:00023a18 00000014H .idata$2                DATA
 0002:00023a2c 00000014H .idata$3                DATA
 0002:00023a40 00000154H .idata$4                DATA
 0002:00023b94 00000642H .idata$6                DATA
 0003:00000000 00001240H .data                   DATA
 0003:00001240 0000018cH .data$r                 DATA
 0003:000013cc 000000b4H .data$rs                DATA
 0003:00001480 000020b4H .bss                    DATA
 0004:00000000 00000060H .rsrc$01                DATA
 0004:00000060 00000180H .rsrc$02                DATA

  Address         Publics by Value              Rva+Base       Lib:Object

 0000:00000000       ___guard_fids_table        00000000     <absolute>
 0000:00000000       ___enclave_config          00000000     <absolute>
 0000:00000000       ___guard_check_icall_a64n_fptr 00000000     <absolute>
 0000:00000000       ___x64_code_ranges_to_entry_points_count 00000000     <absolute>
 0000:00000000       ___hybrid_code_map         00000000     <absolute>
 0000:00000000       ___guard_iat_count         00000000     <absolute>
 0000:00000000       ___guard_fids_count        00000000     <absolute>
 0000:00000000       ___AbsoluteZero            00000000     <absolute>
 0000:00000000       ___hybrid_code_map_count   00000000     <absolute>
 0000:00000000       ___guard_eh_cont_count     00000000     <absolute>
 0000:00000000       ___dynamic_value_reloc_table 00000000     <absolute>
 0000:00000000       ___guard_longjmp_table     00000000     <absolute>
 0000:00000000       ___hybrid_auxiliary_iat    00000000     <absolute>
 0000:00000000       ___arm64x_extra_rfe_table_size 00000000     <absolute>
 0000:00000000       ___arm64x_native_entrypoint 00000000     <absolute>
 0000:00000000       ___arm64x_redirection_metadata_count 00000000     <absolute>
 0000:00000000       ___guard_iat_table         00000000     <absolute>
 0000:00000000       __except_list              00000000     <absolute>
 0000:00000000       ___guard_longjmp_count     00000000     <absolute>
 0000:00000000       ___guard_eh_cont_table     00000000     <absolute>
 0000:00000000       ___arm64x_extra_rfe_table  00000000     <absolute>
 0000:00000000       ___x64_code_ranges_to_entry_points 00000000     <absolute>
 0000:00000000       ___arm64x_redirection_metadata 00000000     <absolute>
 0000:00000000       ___hybrid_auxiliary_iat_copy 00000000     <absolute>
 0000:00000022       ___safe_se_handler_count   00000022     <absolute>
 0000:00000100       ___guard_flags             00000100     <absolute>
 0000:00000000       ___ImageBase               10000000     <linker-defined>
 0001:00000060       _VIARegisterCDLL@4         10001060 f   capldll.obj
 0001:000000b0       ??0CaplInstanceData@@QAE@PAVVIACapl@@@Z 100010b0 f   capldll.obj
 0001:00000100       ?GetCallbackFunctions@CaplInstanceData@@QAEXXZ 10001100 f   capldll.obj
 0001:000001b0       ?ReleaseCallbackFunctions@CaplInstanceData@@QAEXXZ 100011b0 f   capldll.obj
 0001:00000280       ?ShowValue@CaplInstanceData@@QAEII@Z 10001280 f   capldll.obj
 0001:000002d0       ?ShowDates@CaplInstanceData@@QAEIFIF@Z 100012d0 f   capldll.obj
 0001:00000360       ?DllInfo@CaplInstanceData@@QAEXPBD@Z 10001360 f   capldll.obj
 0001:000003f0       ?ArrayValues@CaplInstanceData@@QAEXIIQAEE@Z 100013f0 f   capldll.obj
 0001:00000490       ?DllVersion@CaplInstanceData@@QAEXPBD@Z 10001490 f   capldll.obj
 0001:00000650       ?GetCaplInstanceData@@YAPAVCaplInstanceData@@I@Z 10001650 f   capldll.obj
 0001:000006e0       ?appInit@@YGXI@Z           100016e0 f   capldll.obj
 0001:00000840       ?appEnd@@YGXI@Z            10001840 f   capldll.obj
 0001:000008a0       ?appSetValue@@YGHIH@Z      100018a0 f   capldll.obj
 0001:000008d0       ?appReadData@@YGHIH@Z      100018d0 f   capldll.obj
 0001:000009c0       ?ClearAll@@YAXXZ           100019c0 f   capldll.obj
 0001:00000b00       ??$?0$$V@?$_Compressed_pair@V?$allocator@U?$_Tree_node@U?$pair@$$CBIPAVCaplInstanceData@@@std@@PAX@std@@@std@@V?$_Tree_val@U?$_Tree_simple_types@U?$pair@$$CBIPAVCaplInstanceData@@@std@@@std@@@2@$00@std@@QAE@U_Zero_then_variadic_args_t@1@@Z 10001b00 f i capldll.obj
 0001:00000b20       ??$?0$$V@?$_Compressed_pair@V?$allocator@U?$_Tree_node@U?$pair@$$CBIPAVVIACapl@@@std@@PAX@std@@@std@@V?$_Tree_val@U?$_Tree_simple_types@U?$pair@$$CBIPAVVIACapl@@@std@@@std@@@2@$00@std@@QAE@U_Zero_then_variadic_args_t@1@@Z 10001b20 f i capldll.obj
 0001:00000b40       ??$?0AAPAU?$_Tree_node@U?$pair@$$CBIPAVCaplInstanceData@@@std@@PAX@std@@AAPAU01@$0A@@?$pair@PAU?$_Tree_node@U?$pair@$$CBIPAVCaplInstanceData@@@std@@PAX@std@@PAU12@@std@@QAE@AAPAU?$_Tree_node@U?$pair@$$CBIPAVCaplInstanceData@@@std@@PAX@1@0@Z 10001b40 f i capldll.obj
 0001:00000b80       ??$?0ABI$$Z$$V@?$pair@$$CBIPAVCaplInstanceData@@@std@@QAE@Upiecewise_construct_t@1@V?$tuple@ABI@1@V?$tuple@$$V@1@@Z 10001b80 f i capldll.obj
 0001:00000bc0       ??$?0ABI$$Z$$V@?$pair@$$CBIPAVVIACapl@@@std@@QAE@Upiecewise_construct_t@1@V?$tuple@ABI@1@V?$tuple@$$V@1@@Z 10001bc0 f i capldll.obj
 0001:00000c00       ??$?0ABI$0A@@?$tuple@ABI@std@@QAE@ABI@Z 10001c00 f i capldll.obj
 0001:00000c60       ??$?0ABI@?$_Tuple_val@ABI@std@@QAE@ABI@Z 10001c60 f i capldll.obj
 0001:00000c90       ??$?0ABQAU?$_Tree_node@U?$pair@$$CBIPAVCaplInstanceData@@@std@@PAX@std@@_N$0A@@?$pair@PAU?$_Tree_node@U?$pair@$$CBIPAVCaplInstanceData@@@std@@PAX@std@@_N@std@@QAE@ABQAU?$_Tree_node@U?$pair@$$CBIPAVCaplInstanceData@@@std@@PAX@1@$$QA_N@Z 10001c90 f i capldll.obj
 0001:00000cd0       ??$?0ABQAU?$_Tree_node@U?$pair@$$CBIPAVVIACapl@@@std@@PAX@std@@_N$0A@@?$pair@PAU?$_Tree_node@U?$pair@$$CBIPAVVIACapl@@@std@@PAX@std@@_N@std@@QAE@ABQAU?$_Tree_node@U?$pair@$$CBIPAVVIACapl@@@std@@PAX@1@$$QA_N@Z 10001cd0 f i capldll.obj
 0001:00000d10       ??$?0ABU?$less@I@std@@U_Zero_then_variadic_args_t@1@@?$_Compressed_pair@U?$less@I@std@@V?$_Compressed_pair@V?$allocator@U?$_Tree_node@U?$pair@$$CBIPAVCaplInstanceData@@@std@@PAX@std@@@std@@V?$_Tree_val@U?$_Tree_simple_types@U?$pair@$$CBIPAVCaplInstanceData@@@std@@@std@@@2@$00@2@$00@std@@QAE@U_One_then_variadic_args_t@1@ABU?$less@I@1@$$QAU_Zero_then_variadic_args_t@1@@Z 10001d10 f i capldll.obj
 0001:00000d50       ??$?0ABU?$less@I@std@@U_Zero_then_variadic_args_t@1@@?$_Compressed_pair@U?$less@I@std@@V?$_Compressed_pair@V?$allocator@U?$_Tree_node@U?$pair@$$CBIPAVVIACapl@@@std@@PAX@std@@@std@@V?$_Tree_val@U?$_Tree_simple_types@U?$pair@$$CBIPAVVIACapl@@@std@@@std@@@2@$00@2@$00@std@@QAE@U_One_then_variadic_args_t@1@ABU?$less@I@1@$$QAU_Zero_then_variadic_args_t@1@@Z 10001d50 f i capldll.obj
 0001:00000d90       ??$?0ABUpiecewise_construct_t@std@@V?$tuple@ABI@1@V?$tuple@$$V@1@@?$_Tree_temp_node@V?$allocator@U?$_Tree_node@U?$pair@$$CBIPAVCaplInstanceData@@@std@@PAX@std@@@std@@@std@@QAE@AAV?$allocator@U?$_Tree_node@U?$pair@$$CBIPAVCaplInstanceData@@@std@@PAX@std@@@1@PAU?$_Tree_node@U?$pair@$$CBIPAVCaplInstanceData@@@std@@PAX@1@ABUpiecewise_construct_t@1@$$QAV?$tuple@ABI@1@$$QAV?$tuple@$$V@1@@Z 10001d90 f i capldll.obj
 0001:00000e80       ??$?0ABUpiecewise_construct_t@std@@V?$tuple@ABI@1@V?$tuple@$$V@1@@?$_Tree_temp_node@V?$allocator@U?$_Tree_node@U?$pair@$$CBIPAVVIACapl@@@std@@PAX@std@@@std@@@std@@QAE@AAV?$allocator@U?$_Tree_node@U?$pair@$$CBIPAVVIACapl@@@std@@PAX@std@@@1@PAU?$_Tree_node@U?$pair@$$CBIPAVVIACapl@@@std@@PAX@1@ABUpiecewise_construct_t@1@$$QAV?$tuple@ABI@1@$$QAV?$tuple@$$V@1@@Z 10001e80 f i capldll.obj
 0001:00000f70       ??$?0PAU?$_Tree_node@U?$pair@$$CBIPAVCaplInstanceData@@@std@@PAX@std@@_N$0A@@?$pair@PAU?$_Tree_node@U?$pair@$$CBIPAVCaplInstanceData@@@std@@PAX@std@@_N@std@@QAE@$$QAPAU?$_Tree_node@U?$pair@$$CBIPAVCaplInstanceData@@@std@@PAX@1@$$QA_N@Z 10001f70 f i capldll.obj
 0001:00000fb0       ??$?0PAU?$_Tree_node@U?$pair@$$CBIPAVVIACapl@@@std@@PAX@std@@_N$0A@@?$pair@PAU?$_Tree_node@U?$pair@$$CBIPAVVIACapl@@@std@@PAX@std@@_N@std@@QAE@$$QAPAU?$_Tree_node@U?$pair@$$CBIPAVVIACapl@@@std@@PAX@1@$$QA_N@Z 10001fb0 f i capldll.obj
 0001:00000ff0       ??$?0U?$_Tree_node@U?$pair@$$CBIPAVCaplInstanceData@@@std@@PAX@std@@@?$allocator@U_Container_proxy@std@@@std@@QAE@ABV?$allocator@U?$_Tree_node@U?$pair@$$CBIPAVCaplInstanceData@@@std@@PAX@std@@@1@@Z 10001ff0 f i capldll.obj
 0001:00001000       ??$?0U?$_Tree_node@U?$pair@$$CBIPAVVIACapl@@@std@@PAX@std@@@?$allocator@U_Container_proxy@std@@@std@@QAE@ABV?$allocator@U?$_Tree_node@U?$pair@$$CBIPAVVIACapl@@@std@@PAX@std@@@1@@Z 10002000 f i capldll.obj
 0001:00001010       ??$?0U_Exact_args_t@std@@$0A@@?$tuple@$$V@std@@QAE@U_Exact_args_t@1@@Z 10002010 f i capldll.obj
 0001:00001020       ??$?0U_Exact_args_t@std@@ABI$$V$0A@@?$tuple@ABI@std@@QAE@U_Exact_args_t@1@ABI@Z 10002020 f i capldll.obj
 0001:00001060       ??$?0V?$tuple@ABI@std@@V?$tuple@$$V@1@$0A@$$Z$S@?$pair@$$CBIPAVCaplInstanceData@@@std@@QAE@AAV?$tuple@ABI@1@AAV?$tuple@$$V@1@U?$integer_sequence@I$0A@@1@U?$integer_sequence@I$S@1@@Z 10002060 f i capldll.obj
 0001:000010a0       ??$?0V?$tuple@ABI@std@@V?$tuple@$$V@1@$0A@$$Z$S@?$pair@$$CBIPAVVIACapl@@@std@@QAE@AAV?$tuple@ABI@1@AAV?$tuple@$$V@1@U?$integer_sequence@I$0A@@1@U?$integer_sequence@I$S@1@@Z 100020a0 f i capldll.obj
 0001:000010e0       ??$_Adl_verify_range@V?$_Tree_unchecked_const_iterator@V?$_Tree_val@U?$_Tree_simple_types@U?$pair@$$CBIPAVCaplInstanceData@@@std@@@std@@@std@@U_Iterator_base0@2@@std@@V12@@std@@YAXABV?$_Tree_unchecked_const_iterator@V?$_Tree_val@U?$_Tree_simple_types@U?$pair@$$CBIPAVCaplInstanceData@@@std@@@std@@@std@@U_Iterator_base0@2@@0@0@Z 100020e0 f i capldll.obj
 0001:000010f0       ??$_Allocate@$07U_Default_allocate_traits@std@@$0A@@std@@YAPAXI@Z 100020f0 f i capldll.obj
 0001:00001130       ??$_Allocate_manually_vector_aligned@U_Default_allocate_traits@std@@@std@@YAPAXI@Z 10002130 f i capldll.obj
 0001:000011f0       ??$_Buyheadnode@V?$allocator@U?$_Tree_node@U?$pair@$$CBIPAVCaplInstanceData@@@std@@PAX@std@@@std@@@?$_Tree_node@U?$pair@$$CBIPAVCaplInstanceData@@@std@@PAX@std@@SAPAU01@AAV?$allocator@U?$_Tree_node@U?$pair@$$CBIPAVCaplInstanceData@@@std@@PAX@std@@@1@@Z 100021f0 f i capldll.obj
 0001:00001250       ??$_Buyheadnode@V?$allocator@U?$_Tree_node@U?$pair@$$CBIPAVVIACapl@@@std@@PAX@std@@@std@@@?$_Tree_node@U?$pair@$$CBIPAVVIACapl@@@std@@PAX@std@@SAPAU01@AAV?$allocator@U?$_Tree_node@U?$pair@$$CBIPAVVIACapl@@@std@@PAX@std@@@1@@Z 10002250 f i capldll.obj
 0001:000012b0       ??$_Construct_in_place@PAU?$_Tree_node@U?$pair@$$CBIPAVCaplInstanceData@@@std@@PAX@std@@AAPAU12@@std@@YAXAAPAU?$_Tree_node@U?$pair@$$CBIPAVCaplInstanceData@@@std@@PAX@0@0@Z 100022b0 f i capldll.obj
 0001:000012f0       ??$_Construct_in_place@PAU?$_Tree_node@U?$pair@$$CBIPAVCaplInstanceData@@@std@@PAX@std@@ABQAU12@@std@@YAXAAPAU?$_Tree_node@U?$pair@$$CBIPAVCaplInstanceData@@@std@@PAX@0@ABQAU10@@Z 100022f0 f i capldll.obj
 0001:00001330       ??$_Construct_in_place@PAU?$_Tree_node@U?$pair@$$CBIPAVVIACapl@@@std@@PAX@std@@AAPAU12@@std@@YAXAAPAU?$_Tree_node@U?$pair@$$CBIPAVVIACapl@@@std@@PAX@0@0@Z 10002330 f i capldll.obj
 0001:00001370       ??$_Construct_in_place@PAU?$_Tree_node@U?$pair@$$CBIPAVVIACapl@@@std@@PAX@std@@ABQAU12@@std@@YAXAAPAU?$_Tree_node@U?$pair@$$CBIPAVVIACapl@@@std@@PAX@0@ABQAU10@@Z 10002370 f i capldll.obj
 0001:000013b0       ??$_Construct_in_place@U_Container_proxy@std@@PAU_Container_base12@2@@std@@YAXAAU_Container_proxy@0@$$QAPAU_Container_base12@0@@Z 100023b0 f i capldll.obj
 0001:00001400       ??$_Deallocate@$07$0A@@std@@YAXPAXI@Z 10002400 f i capldll.obj
 0001:00001460       ??$_Deallocate_plain@V?$allocator@U_Container_proxy@std@@@std@@@std@@YAXAAV?$allocator@U_Container_proxy@std@@@0@QAU_Container_proxy@0@@Z 10002460 f i capldll.obj
 0001:000014b0       ??$_Debug_lt_pred@ABU?$less@I@std@@ABIABI$0A@@std@@YA_NABU?$less@I@0@ABI1@Z 100024b0 f i capldll.obj
 0001:00001540       ??$_Delete_plain_internal@V?$allocator@U_Container_proxy@std@@@std@@@std@@YAXAAV?$allocator@U_Container_proxy@std@@@0@QAU_Container_proxy@0@@Z 10002540 f i capldll.obj
 0001:00001560       ??$_Destroy_in_place@PAU?$_Tree_node@U?$pair@$$CBIPAVCaplInstanceData@@@std@@PAX@std@@@std@@YAXAAPAU?$_Tree_node@U?$pair@$$CBIPAVCaplInstanceData@@@std@@PAX@0@@Z 10002560 f i capldll.obj
 0001:00001570       ??$_Destroy_in_place@PAU?$_Tree_node@U?$pair@$$CBIPAVVIACapl@@@std@@PAX@std@@@std@@YAXAAPAU?$_Tree_node@U?$pair@$$CBIPAVVIACapl@@@std@@PAX@0@@Z 10002570 f i capldll.obj
 0001:00001580       ??$_Eqrange@I@?$_Tree@V?$_Tmap_traits@IPAVCaplInstanceData@@U?$less@I@std@@V?$allocator@U?$pair@$$CBIPAVCaplInstanceData@@@std@@@3@$0A@@std@@@std@@IBE?AU?$pair@PAU?$_Tree_node@U?$pair@$$CBIPAVCaplInstanceData@@@std@@PAX@std@@PAU12@@1@ABI@Z 10002580 f i capldll.obj
 0001:000016d0       ??$_Erase_head@V?$allocator@U?$_Tree_node@U?$pair@$$CBIPAVCaplInstanceData@@@std@@PAX@std@@@std@@@?$_Tree_val@U?$_Tree_simple_types@U?$pair@$$CBIPAVCaplInstanceData@@@std@@@std@@@std@@QAEXAAV?$allocator@U?$_Tree_node@U?$pair@$$CBIPAVCaplInstanceData@@@std@@PAX@std@@@1@@Z 100026d0 f i capldll.obj
 0001:00001710       ??$_Erase_head@V?$allocator@U?$_Tree_node@U?$pair@$$CBIPAVVIACapl@@@std@@PAX@std@@@std@@@?$_Tree_val@U?$_Tree_simple_types@U?$pair@$$CBIPAVVIACapl@@@std@@@std@@@std@@QAEXAAV?$allocator@U?$_Tree_node@U?$pair@$$CBIPAVVIACapl@@@std@@PAX@std@@@1@@Z 10002710 f i capldll.obj
 0001:00001750       ??$_Erase_tree@V?$allocator@U?$_Tree_node@U?$pair@$$CBIPAVCaplInstanceData@@@std@@PAX@std@@@std@@@?$_Tree_val@U?$_Tree_simple_types@U?$pair@$$CBIPAVCaplInstanceData@@@std@@@std@@@std@@QAEXAAV?$allocator@U?$_Tree_node@U?$pair@$$CBIPAVCaplInstanceData@@@std@@PAX@std@@@1@PAU?$_Tree_node@U?$pair@$$CBIPAVCaplInstanceData@@@std@@PAX@1@@Z 10002750 f i capldll.obj
 0001:000017a0       ??$_Erase_tree@V?$allocator@U?$_Tree_node@U?$pair@$$CBIPAVVIACapl@@@std@@PAX@std@@@std@@@?$_Tree_val@U?$_Tree_simple_types@U?$pair@$$CBIPAVVIACapl@@@std@@@std@@@std@@QAEXAAV?$allocator@U?$_Tree_node@U?$pair@$$CBIPAVVIACapl@@@std@@PAX@std@@@1@PAU?$_Tree_node@U?$pair@$$CBIPAVVIACapl@@@std@@PAX@1@@Z 100027a0 f i capldll.obj
 0001:000017f0       ??$_Find@I@?$_Tree@V?$_Tmap_traits@IPAVCaplInstanceData@@U?$less@I@std@@V?$allocator@U?$pair@$$CBIPAVCaplInstanceData@@@std@@@3@$0A@@std@@@std@@ABEPAU?$_Tree_node@U?$pair@$$CBIPAVCaplInstanceData@@@std@@PAX@1@ABI@Z 100027f0 f i capldll.obj
 0001:00001840       ??$_Find@I@?$_Tree@V?$_Tmap_traits@IPAVVIACapl@@U?$less@I@std@@V?$allocator@U?$pair@$$CBIPAVVIACapl@@@std@@@3@$0A@@std@@@std@@ABEPAU?$_Tree_node@U?$pair@$$CBIPAVVIACapl@@@std@@PAX@1@ABI@Z 10002840 f i capldll.obj
 0001:00001890       ??$_Find_lower_bound@I@?$_Tree@V?$_Tmap_traits@IPAVCaplInstanceData@@U?$less@I@std@@V?$allocator@U?$pair@$$CBIPAVCaplInstanceData@@@std@@@3@$0A@@std@@@std@@IBE?AU?$_Tree_find_result@PAU?$_Tree_node@U?$pair@$$CBIPAVCaplInstanceData@@@std@@PAX@std@@@1@ABI@Z 10002890 f i capldll.obj
 0001:00001950       ??$_Find_lower_bound@I@?$_Tree@V?$_Tmap_traits@IPAVVIACapl@@U?$less@I@std@@V?$allocator@U?$pair@$$CBIPAVVIACapl@@@std@@@3@$0A@@std@@@std@@IBE?AU?$_Tree_find_result@PAU?$_Tree_node@U?$pair@$$CBIPAVVIACapl@@@std@@PAX@std@@@1@ABI@Z 10002950 f i capldll.obj
 0001:00001a10       ??$_Freenode0@V?$allocator@U?$_Tree_node@U?$pair@$$CBIPAVCaplInstanceData@@@std@@PAX@std@@@std@@@?$_Tree_node@U?$pair@$$CBIPAVCaplInstanceData@@@std@@PAX@std@@SAXAAV?$allocator@U?$_Tree_node@U?$pair@$$CBIPAVCaplInstanceData@@@std@@PAX@std@@@1@PAU01@@Z 10002a10 f i capldll.obj
 0001:00001a90       ??$_Freenode0@V?$allocator@U?$_Tree_node@U?$pair@$$CBIPAVVIACapl@@@std@@PAX@std@@@std@@@?$_Tree_node@U?$pair@$$CBIPAVVIACapl@@@std@@PAX@std@@SAXAAV?$allocator@U?$_Tree_node@U?$pair@$$CBIPAVVIACapl@@@std@@PAX@std@@@1@PAU01@@Z 10002a90 f i capldll.obj
 0001:00001b10       ??$_Freenode@V?$allocator@U?$_Tree_node@U?$pair@$$CBIPAVCaplInstanceData@@@std@@PAX@std@@@std@@@?$_Tree_node@U?$pair@$$CBIPAVCaplInstanceData@@@std@@PAX@std@@SAXAAV?$allocator@U?$_Tree_node@U?$pair@$$CBIPAVCaplInstanceData@@@std@@PAX@std@@@1@PAU01@@Z 10002b10 f i capldll.obj
 0001:00001b80       ??$_Freenode@V?$allocator@U?$_Tree_node@U?$pair@$$CBIPAVVIACapl@@@std@@PAX@std@@@std@@@?$_Tree_node@U?$pair@$$CBIPAVVIACapl@@@std@@PAX@std@@SAXAAV?$allocator@U?$_Tree_node@U?$pair@$$CBIPAVVIACapl@@@std@@PAX@std@@@1@PAU01@@Z 10002b80 f i capldll.obj
 0001:00001bf0       ??$_Get_size_of_n@$07@std@@YAII@Z 10002bf0 f i capldll.obj
 0001:00001c20       ??$_Get_size_of_n@$0BI@@std@@YAII@Z 10002c20 f i capldll.obj
 0001:00001c50       ??$_Get_unwrapped@AAV?$_Tree_unchecked_const_iterator@V?$_Tree_val@U?$_Tree_simple_types@U?$pair@$$CBIPAVCaplInstanceData@@@std@@@std@@@std@@U_Iterator_base0@2@@std@@@std@@YA?A_TAAV?$_Tree_unchecked_const_iterator@V?$_Tree_val@U?$_Tree_simple_types@U?$pair@$$CBIPAVCaplInstanceData@@@std@@@std@@@std@@U_Iterator_base0@2@@0@@Z 10002c50 f i capldll.obj
 0001:00001c60       ??$_Kfn@$$CBIPAVCaplInstanceData@@@?$_Tmap_traits@IPAVCaplInstanceData@@U?$less@I@std@@V?$allocator@U?$pair@$$CBIPAVCaplInstanceData@@@std@@@3@$0A@@std@@SAABIABU?$pair@$$CBIPAVCaplInstanceData@@@1@@Z 10002c60 f i capldll.obj
 0001:00001c70       ??$_Kfn@$$CBIPAVVIACapl@@@?$_Tmap_traits@IPAVVIACapl@@U?$less@I@std@@V?$allocator@U?$pair@$$CBIPAVVIACapl@@@std@@@3@$0A@@std@@SAABIABU?$pair@$$CBIPAVVIACapl@@@1@@Z 10002c70 f i capldll.obj
 0001:00001c80       ??$_Lower_bound_duplicate@I@?$_Tree@V?$_Tmap_traits@IPAVCaplInstanceData@@U?$less@I@std@@V?$allocator@U?$pair@$$CBIPAVCaplInstanceData@@@std@@@3@$0A@@std@@@std@@IBE_NQAU?$_Tree_node@U?$pair@$$CBIPAVCaplInstanceData@@@std@@PAX@1@ABI@Z 10002c80 f i capldll.obj
 0001:00001ce0       ??$_Lower_bound_duplicate@I@?$_Tree@V?$_Tmap_traits@IPAVVIACapl@@U?$less@I@std@@V?$allocator@U?$pair@$$CBIPAVVIACapl@@@std@@@3@$0A@@std@@@std@@IBE_NQAU?$_Tree_node@U?$pair@$$CBIPAVVIACapl@@@std@@PAX@1@ABI@Z 10002ce0 f i capldll.obj
 0001:00001d40       ??$_Try_emplace@ABI$$V@?$map@IPAVCaplInstanceData@@U?$less@I@std@@V?$allocator@U?$pair@$$CBIPAVCaplInstanceData@@@std@@@3@@std@@AAE?AU?$pair@PAU?$_Tree_node@U?$pair@$$CBIPAVCaplInstanceData@@@std@@PAX@std@@_N@1@ABI@Z 10002d40 f i capldll.obj
 0001:00001e30       ??$_Try_emplace@ABI$$V@?$map@IPAVVIACapl@@U?$less@I@std@@V?$allocator@U?$pair@$$CBIPAVVIACapl@@@std@@@3@@std@@AAE?AU?$pair@PAU?$_Tree_node@U?$pair@$$CBIPAVVIACapl@@@std@@PAX@std@@_N@1@ABI@Z 10002e30 f i capldll.obj
 0001:00001f20       ??$_Tuple_get@$0A@ABI@std@@YA$$QA_P$$QAV?$tuple@ABI@0@@Z 10002f20 f i capldll.obj
 0001:00001f30       ??$_Unfancy@U_Container_proxy@std@@@std@@YAPAU_Container_proxy@0@PAU10@@Z 10002f30 f i capldll.obj
 0001:00001f40       ??$_Voidify_iter@PAPAU?$_Tree_node@U?$pair@$$CBIPAVCaplInstanceData@@@std@@PAX@std@@@std@@YAPAXPAPAU?$_Tree_node@U?$pair@$$CBIPAVCaplInstanceData@@@std@@PAX@0@@Z 10002f40 f i capldll.obj
 0001:00001f50       ??$_Voidify_iter@PAPAU?$_Tree_node@U?$pair@$$CBIPAVVIACapl@@@std@@PAX@std@@@std@@YAPAXPAPAU?$_Tree_node@U?$pair@$$CBIPAVVIACapl@@@std@@PAX@0@@Z 10002f50 f i capldll.obj
 0001:00001f60       ??$_Voidify_iter@PAU?$pair@$$CBIPAVCaplInstanceData@@@std@@@std@@YAPAXPAU?$pair@$$CBIPAVCaplInstanceData@@@0@@Z 10002f60 f i capldll.obj
 0001:00001f70       ??$_Voidify_iter@PAU?$pair@$$CBIPAVVIACapl@@@std@@@std@@YAPAXPAU?$pair@$$CBIPAVVIACapl@@@0@@Z 10002f70 f i capldll.obj
 0001:00001f80       ??$_Voidify_iter@PAU_Container_proxy@std@@@std@@YAPAXPAU_Container_proxy@0@@Z 10002f80 f i capldll.obj
 0001:00001f90       ??$addressof@$$CBV?$_Tree_val@U?$_Tree_simple_types@U?$pair@$$CBIPAVCaplInstanceData@@@std@@@std@@@std@@@std@@YAPBV?$_Tree_val@U?$_Tree_simple_types@U?$pair@$$CBIPAVCaplInstanceData@@@std@@@std@@@0@ABV10@@Z 10002f90 f i capldll.obj
 0001:00001fa0       ??$addressof@$$CBV?$_Tree_val@U?$_Tree_simple_types@U?$pair@$$CBIPAVVIACapl@@@std@@@std@@@std@@@std@@YAPBV?$_Tree_val@U?$_Tree_simple_types@U?$pair@$$CBIPAVVIACapl@@@std@@@std@@@0@ABV10@@Z 10002fa0 f i capldll.obj
 0001:00001fb0       ??$addressof@PAU?$_Tree_node@U?$pair@$$CBIPAVCaplInstanceData@@@std@@PAX@std@@@std@@YAPAPAU?$_Tree_node@U?$pair@$$CBIPAVCaplInstanceData@@@std@@PAX@0@AAPAU10@@Z 10002fb0 f i capldll.obj
 0001:00001fc0       ??$addressof@PAU?$_Tree_node@U?$pair@$$CBIPAVVIACapl@@@std@@PAX@std@@@std@@YAPAPAU?$_Tree_node@U?$pair@$$CBIPAVVIACapl@@@std@@PAX@0@AAPAU10@@Z 10002fc0 f i capldll.obj
 0001:00001fd0       ??$addressof@U?$pair@$$CBIPAVCaplInstanceData@@@std@@@std@@YAPAU?$pair@$$CBIPAVCaplInstanceData@@@0@AAU10@@Z 10002fd0 f i capldll.obj
 0001:00001fe0       ??$addressof@U?$pair@$$CBIPAVVIACapl@@@std@@@std@@YAPAU?$pair@$$CBIPAVVIACapl@@@0@AAU10@@Z 10002fe0 f i capldll.obj
 0001:00001ff0       ??$addressof@U_Container_base12@std@@@std@@YAPAU_Container_base12@0@AAU10@@Z 10002ff0 f i capldll.obj
 0001:00002000       ??$addressof@U_Container_proxy@std@@@std@@YAPAU_Container_proxy@0@AAU10@@Z 10003000 f i capldll.obj
 0001:00002010       ??$addressof@V?$_Tree_val@U?$_Tree_simple_types@U?$pair@$$CBIPAVCaplInstanceData@@@std@@@std@@@std@@@std@@YAPAV?$_Tree_val@U?$_Tree_simple_types@U?$pair@$$CBIPAVCaplInstanceData@@@std@@@std@@@0@AAV10@@Z 10003010 f i capldll.obj
 0001:00002020       ??$addressof@V?$_Tree_val@U?$_Tree_simple_types@U?$pair@$$CBIPAVVIACapl@@@std@@@std@@@std@@@std@@YAPAV?$_Tree_val@U?$_Tree_simple_types@U?$pair@$$CBIPAVVIACapl@@@std@@@std@@@0@AAV10@@Z 10003020 f i capldll.obj
 0001:00002030       ??$construct@U?$pair@$$CBIPAVCaplInstanceData@@@std@@ABUpiecewise_construct_t@2@V?$tuple@ABI@2@V?$tuple@$$V@2@@?$_Default_allocator_traits@V?$allocator@U?$_Tree_node@U?$pair@$$CBIPAVCaplInstanceData@@@std@@PAX@std@@@std@@@std@@SAXAAV?$allocator@U?$_Tree_node@U?$pair@$$CBIPAVCaplInstanceData@@@std@@PAX@std@@@1@QAU?$pair@$$CBIPAVCaplInstanceData@@@1@ABUpiecewise_construct_t@1@$$QAV?$tuple@ABI@1@$$QAV?$tuple@$$V@1@@Z 10003030 f i capldll.obj
 0001:000020a0       ??$construct@U?$pair@$$CBIPAVVIACapl@@@std@@ABUpiecewise_construct_t@2@V?$tuple@ABI@2@V?$tuple@$$V@2@@?$_Default_allocator_traits@V?$allocator@U?$_Tree_node@U?$pair@$$CBIPAVVIACapl@@@std@@PAX@std@@@std@@@std@@SAXAAV?$allocator@U?$_Tree_node@U?$pair@$$CBIPAVVIACapl@@@std@@PAX@std@@@1@QAU?$pair@$$CBIPAVVIACapl@@@1@ABUpiecewise_construct_t@1@$$QAV?$tuple@ABI@1@$$QAV?$tuple@$$V@1@@Z 100030a0 f i capldll.obj
 0001:00002110       ??$destroy@U?$pair@$$CBIPAVCaplInstanceData@@@std@@@?$_Default_allocator_traits@V?$allocator@U?$_Tree_node@U?$pair@$$CBIPAVCaplInstanceData@@@std@@PAX@std@@@std@@@std@@SAXAAV?$allocator@U?$_Tree_node@U?$pair@$$CBIPAVCaplInstanceData@@@std@@PAX@std@@@1@QAU?$pair@$$CBIPAVCaplInstanceData@@@1@@Z 10003110 f i capldll.obj
 0001:00002120       ??$destroy@U?$pair@$$CBIPAVVIACapl@@@std@@@?$_Default_allocator_traits@V?$allocator@U?$_Tree_node@U?$pair@$$CBIPAVVIACapl@@@std@@PAX@std@@@std@@@std@@SAXAAV?$allocator@U?$_Tree_node@U?$pair@$$CBIPAVVIACapl@@@std@@PAX@std@@@1@QAU?$pair@$$CBIPAVVIACapl@@@1@@Z 10003120 f i capldll.obj
 0001:00002130       ??$distance@V?$_Tree_unchecked_const_iterator@V?$_Tree_val@U?$_Tree_simple_types@U?$pair@$$CBIPAVCaplInstanceData@@@std@@@std@@@std@@U_Iterator_base0@2@@std@@@std@@YAHV?$_Tree_unchecked_const_iterator@V?$_Tree_val@U?$_Tree_simple_types@U?$pair@$$CBIPAVCaplInstanceData@@@std@@@std@@@std@@U_Iterator_base0@2@@0@0@Z 10003130 f i capldll.obj
 0001:000021a0       ??$exchange@PAU?$_Tree_node@U?$pair@$$CBIPAVCaplInstanceData@@@std@@PAX@std@@$$T@std@@YAPAU?$_Tree_node@U?$pair@$$CBIPAVCaplInstanceData@@@std@@PAX@0@AAPAU10@$$QA$$T@Z 100031a0 f i capldll.obj
 0001:000021c0       ??$exchange@PAU?$_Tree_node@U?$pair@$$CBIPAVCaplInstanceData@@@std@@PAX@std@@AAPAU12@@std@@YAPAU?$_Tree_node@U?$pair@$$CBIPAVCaplInstanceData@@@std@@PAX@0@AAPAU10@0@Z 100031c0 f i capldll.obj
 0001:000021e0       ??$exchange@PAU?$_Tree_node@U?$pair@$$CBIPAVVIACapl@@@std@@PAX@std@@$$T@std@@YAPAU?$_Tree_node@U?$pair@$$CBIPAVVIACapl@@@std@@PAX@0@AAPAU10@$$QA$$T@Z 100031e0 f i capldll.obj
 0001:00002200       ??$exchange@PAU?$_Tree_node@U?$pair@$$CBIPAVVIACapl@@@std@@PAX@std@@AAPAU12@@std@@YAPAU?$_Tree_node@U?$pair@$$CBIPAVVIACapl@@@std@@PAX@0@AAPAU10@0@Z 10003200 f i capldll.obj
 0001:00002220       ??$forward@AAPAU?$_Tree_node@U?$pair@$$CBIPAVCaplInstanceData@@@std@@PAX@std@@@std@@YAAAPAU?$_Tree_node@U?$pair@$$CBIPAVCaplInstanceData@@@std@@PAX@0@AAPAU10@@Z 10003220 f i capldll.obj
 0001:00002230       ??$forward@AAPAU?$_Tree_node@U?$pair@$$CBIPAVVIACapl@@@std@@PAX@std@@@std@@YAAAPAU?$_Tree_node@U?$pair@$$CBIPAVVIACapl@@@std@@PAX@0@AAPAU10@@Z 10003230 f i capldll.obj
 0001:00002240       ??$forward@ABI@std@@YAABIABI@Z 10003240 f i capldll.obj
 0001:00002250       ??$forward@ABQAU?$_Tree_node@U?$pair@$$CBIPAVCaplInstanceData@@@std@@PAX@std@@@std@@YAABQAU?$_Tree_node@U?$pair@$$CBIPAVCaplInstanceData@@@std@@PAX@0@ABQAU10@@Z 10003250 f i capldll.obj
 0001:00002260       ??$forward@ABQAU?$_Tree_node@U?$pair@$$CBIPAVVIACapl@@@std@@PAX@std@@@std@@YAABQAU?$_Tree_node@U?$pair@$$CBIPAVVIACapl@@@std@@PAX@0@ABQAU10@@Z 10003260 f i capldll.obj
 0001:00002270       ??$forward@ABU?$less@I@std@@@std@@YAABU?$less@I@0@ABU10@@Z 10003270 f i capldll.obj
 0001:00002280       ??$forward@ABUpiecewise_construct_t@std@@@std@@YAABUpiecewise_construct_t@0@ABU10@@Z 10003280 f i capldll.obj
 0001:00002290       ??$forward@PAU?$_Tree_node@U?$pair@$$CBIPAVCaplInstanceData@@@std@@PAX@std@@@std@@YA$$QAPAU?$_Tree_node@U?$pair@$$CBIPAVCaplInstanceData@@@std@@PAX@0@AAPAU10@@Z 10003290 f i capldll.obj
 0001:000022a0       ??$forward@PAU?$_Tree_node@U?$pair@$$CBIPAVVIACapl@@@std@@PAX@std@@@std@@YA$$QAPAU?$_Tree_node@U?$pair@$$CBIPAVVIACapl@@@std@@PAX@0@AAPAU10@@Z 100032a0 f i capldll.obj
 0001:000022b0       ??$forward@PAU_Container_base12@std@@@std@@YA$$QAPAU_Container_base12@0@AAPAU10@@Z 100032b0 f i capldll.obj
 0001:000022c0       ??$forward@U_Zero_then_variadic_args_t@std@@@std@@YA$$QAU_Zero_then_variadic_args_t@0@AAU10@@Z 100032c0 f i capldll.obj
 0001:000022d0       ??$forward@V?$tuple@$$V@std@@@std@@YA$$QAV?$tuple@$$V@0@AAV10@@Z 100032d0 f i capldll.obj
 0001:000022e0       ??$forward@V?$tuple@ABI@std@@@std@@YA$$QAV?$tuple@ABI@0@AAV10@@Z 100032e0 f i capldll.obj
 0001:000022f0       ??$forward@_N@std@@YA$$QA_NAA_N@Z 100032f0 f i capldll.obj
 0001:00002300       ??$forward_as_tuple@$$V@std@@YA?AV?$tuple@$$V@0@XZ 10003300 f i capldll.obj
 0001:00002310       ??$forward_as_tuple@ABI@std@@YA?AV?$tuple@ABI@0@ABI@Z 10003310 f i capldll.obj
 0001:00002330       ??$min@I@std@@YAABIABI0@Z  10003330 f i capldll.obj
 0001:00002360       ??$move@AAD@std@@YA$$QADAAD@Z 10003360 f i capldll.obj
 0001:00002370       ??$move@AAV?$tuple@ABI@std@@@std@@YA$$QAV?$tuple@ABI@0@AAV10@@Z 10003370 f i capldll.obj
 0001:00002380       ??$swap@D$0A@@std@@YAXAAD0@Z 10003380 f i capldll.obj
 0001:000023c0       ??0?$_Alloc_construct_ptr@V?$allocator@U?$_Tree_node@U?$pair@$$CBIPAVCaplInstanceData@@@std@@PAX@std@@@std@@@std@@QAE@AAV?$allocator@U?$_Tree_node@U?$pair@$$CBIPAVCaplInstanceData@@@std@@PAX@std@@@1@@Z 100033c0 f i capldll.obj
 0001:000023f0       ??0?$_Alloc_construct_ptr@V?$allocator@U?$_Tree_node@U?$pair@$$CBIPAVVIACapl@@@std@@PAX@std@@@std@@@std@@QAE@AAV?$allocator@U?$_Tree_node@U?$pair@$$CBIPAVVIACapl@@@std@@PAX@std@@@1@@Z 100033f0 f i capldll.obj
 0001:00002420       ??0?$_Container_proxy_ptr12@V?$allocator@U_Container_proxy@std@@@std@@@std@@QAE@AAV?$allocator@U_Container_proxy@std@@@1@AAU_Container_base12@1@@Z 10003420 f i capldll.obj
 0001:00002490       ??0?$_Tree@V?$_Tmap_traits@IPAVCaplInstanceData@@U?$less@I@std@@V?$allocator@U?$pair@$$CBIPAVCaplInstanceData@@@std@@@3@$0A@@std@@@std@@QAE@ABU?$less@I@1@@Z 10003490 f i capldll.obj
 0001:000024c0       ??0?$_Tree@V?$_Tmap_traits@IPAVVIACapl@@U?$less@I@std@@V?$allocator@U?$pair@$$CBIPAVVIACapl@@@std@@@3@$0A@@std@@@std@@QAE@ABU?$less@I@1@@Z 100034c0 f i capldll.obj
 0001:000024f0       ??0?$_Tree_const_iterator@V?$_Tree_val@U?$_Tree_simple_types@U?$pair@$$CBIPAVCaplInstanceData@@@std@@@std@@@std@@@std@@QAE@PAU?$_Tree_node@U?$pair@$$CBIPAVCaplInstanceData@@@std@@PAX@1@PBV?$_Tree_val@U?$_Tree_simple_types@U?$pair@$$CBIPAVCaplInstanceData@@@std@@@std@@@1@@Z 100034f0 f i capldll.obj
 0001:00002510       ??0?$_Tree_const_iterator@V?$_Tree_val@U?$_Tree_simple_types@U?$pair@$$CBIPAVVIACapl@@@std@@@std@@@std@@@std@@QAE@PAU?$_Tree_node@U?$pair@$$CBIPAVVIACapl@@@std@@PAX@1@PBV?$_Tree_val@U?$_Tree_simple_types@U?$pair@$$CBIPAVVIACapl@@@std@@@std@@@1@@Z 10003510 f i capldll.obj
 0001:00002530       ??0?$_Tree_iterator@V?$_Tree_val@U?$_Tree_simple_types@U?$pair@$$CBIPAVCaplInstanceData@@@std@@@std@@@std@@@std@@QAE@PAU?$_Tree_node@U?$pair@$$CBIPAVCaplInstanceData@@@std@@PAX@1@PBV?$_Tree_val@U?$_Tree_simple_types@U?$pair@$$CBIPAVCaplInstanceData@@@std@@@std@@@1@@Z 10003530 f i capldll.obj
 0001:00002550       ??0?$_Tree_iterator@V?$_Tree_val@U?$_Tree_simple_types@U?$pair@$$CBIPAVVIACapl@@@std@@@std@@@std@@@std@@QAE@PAU?$_Tree_node@U?$pair@$$CBIPAVVIACapl@@@std@@PAX@1@PBV?$_Tree_val@U?$_Tree_simple_types@U?$pair@$$CBIPAVVIACapl@@@std@@@std@@@1@@Z 10003550 f i capldll.obj
 0001:00002570       ??0?$_Tree_temp_node_alloc@V?$allocator@U?$_Tree_node@U?$pair@$$CBIPAVCaplInstanceData@@@std@@PAX@std@@@std@@@std@@QAE@AAV?$allocator@U?$_Tree_node@U?$pair@$$CBIPAVCaplInstanceData@@@std@@PAX@std@@@1@@Z 10003570 f i capldll.obj
 0001:000025d0       ??0?$_Tree_temp_node_alloc@V?$allocator@U?$_Tree_node@U?$pair@$$CBIPAVVIACapl@@@std@@PAX@std@@@std@@@std@@QAE@AAV?$allocator@U?$_Tree_node@U?$pair@$$CBIPAVVIACapl@@@std@@PAX@std@@@1@@Z 100035d0 f i capldll.obj
 0001:00002630       ??0?$_Tree_unchecked_const_iterator@V?$_Tree_val@U?$_Tree_simple_types@U?$pair@$$CBIPAVCaplInstanceData@@@std@@@std@@@std@@U_Iterator_base0@2@@std@@QAE@PAU?$_Tree_node@U?$pair@$$CBIPAVCaplInstanceData@@@std@@PAX@1@PBV?$_Tree_val@U?$_Tree_simple_types@U?$pair@$$CBIPAVCaplInstanceData@@@std@@@std@@@1@@Z 10003630 f i capldll.obj
 0001:00002660       ??0?$_Tree_unchecked_const_iterator@V?$_Tree_val@U?$_Tree_simple_types@U?$pair@$$CBIPAVCaplInstanceData@@@std@@@std@@@std@@U_Iterator_base12@2@@std@@QAE@PAU?$_Tree_node@U?$pair@$$CBIPAVCaplInstanceData@@@std@@PAX@1@PBV?$_Tree_val@U?$_Tree_simple_types@U?$pair@$$CBIPAVCaplInstanceData@@@std@@@std@@@1@@Z 10003660 f i capldll.obj
 0001:00002690       ??0?$_Tree_unchecked_const_iterator@V?$_Tree_val@U?$_Tree_simple_types@U?$pair@$$CBIPAVVIACapl@@@std@@@std@@@std@@U_Iterator_base12@2@@std@@QAE@PAU?$_Tree_node@U?$pair@$$CBIPAVVIACapl@@@std@@PAX@1@PBV?$_Tree_val@U?$_Tree_simple_types@U?$pair@$$CBIPAVVIACapl@@@std@@@std@@@1@@Z 10003690 f i capldll.obj
 0001:000026c0       ??0?$_Tree_unchecked_iterator@V?$_Tree_val@U?$_Tree_simple_types@U?$pair@$$CBIPAVCaplInstanceData@@@std@@@std@@@std@@@std@@QAE@PAU?$_Tree_node@U?$pair@$$CBIPAVCaplInstanceData@@@std@@PAX@1@PBV?$_Tree_val@U?$_Tree_simple_types@U?$pair@$$CBIPAVCaplInstanceData@@@std@@@std@@@1@@Z 100036c0 f i capldll.obj
 0001:000026e0       ??0?$_Tree_val@U?$_Tree_simple_types@U?$pair@$$CBIPAVCaplInstanceData@@@std@@@std@@@std@@QAE@XZ 100036e0 f i capldll.obj
 0001:00002710       ??0?$_Tree_val@U?$_Tree_simple_types@U?$pair@$$CBIPAVVIACapl@@@std@@@std@@@std@@QAE@XZ 10003710 f i capldll.obj
 0001:00002740       ??0?$allocator@U?$_Tree_node@U?$pair@$$CBIPAVCaplInstanceData@@@std@@PAX@std@@@std@@QAE@XZ 10003740 f i capldll.obj
 0001:00002750       ??0?$allocator@U?$_Tree_node@U?$pair@$$CBIPAVVIACapl@@@std@@PAX@std@@@std@@QAE@XZ 10003750 f i capldll.obj
 0001:00002760       ??0?$map@IPAVCaplInstanceData@@U?$less@I@std@@V?$allocator@U?$pair@$$CBIPAVCaplInstanceData@@@std@@@3@@std@@QAE@XZ 10003760 f i capldll.obj
 0001:00002780       ??0?$map@IPAVVIACapl@@U?$less@I@std@@V?$allocator@U?$pair@$$CBIPAVVIACapl@@@std@@@3@@std@@QAE@XZ 10003780 f i capldll.obj
 0001:000027a0       ??0?$tuple@$$V@std@@QAE@ABV01@@Z 100037a0 f i capldll.obj
 0001:000027b0       ??0?$tuple@ABI@std@@QAE@$$QAV01@@Z 100037b0 f i capldll.obj
 0001:000027e0       ??0_Basic_container_proxy_ptr12@std@@IAE@XZ 100037e0 f i capldll.obj
 0001:00002800       ??0_Container_base12@std@@QAE@XZ 10003800 f i capldll.obj
 0001:00002820       ??0_Container_proxy@std@@QAE@PAU_Container_base12@1@@Z 10003820 f i capldll.obj
 0001:00002850       ??0_Iterator_base12@std@@QAE@XZ 10003850 f i capldll.obj
 0001:00002880       ??0bad_alloc@std@@AAE@QBD@Z 10003880 f i capldll.obj
 0001:000028b0       ??0bad_alloc@std@@QAE@ABV01@@Z 100038b0 f i capldll.obj
 0001:000028e0       ??0bad_array_new_length@std@@QAE@ABV01@@Z 100038e0 f i capldll.obj
 0001:00002910       ??0bad_array_new_length@std@@QAE@XZ 10003910 f i capldll.obj
 0001:00002940       ??0exception@std@@QAE@ABV01@@Z 10003940 f i capldll.obj
 0001:00002980       ??0exception@std@@QAE@QBDH@Z 10003980 f i capldll.obj
 0001:000029b0       ??1?$_Alloc_construct_ptr@V?$allocator@U?$_Tree_node@U?$pair@$$CBIPAVCaplInstanceData@@@std@@PAX@std@@@std@@@std@@QAE@XZ 100039b0 f i capldll.obj
 0001:00002a10       ??1?$_Alloc_construct_ptr@V?$allocator@U?$_Tree_node@U?$pair@$$CBIPAVVIACapl@@@std@@PAX@std@@@std@@@std@@QAE@XZ 10003a10 f i capldll.obj
 0001:00002a70       ??1?$_Container_proxy_ptr12@V?$allocator@U_Container_proxy@std@@@std@@@std@@QAE@XZ 10003a70 f i capldll.obj
 0001:00002aa0       ??1?$_Tree@V?$_Tmap_traits@IPAVCaplInstanceData@@U?$less@I@std@@V?$allocator@U?$pair@$$CBIPAVCaplInstanceData@@@std@@@3@$0A@@std@@@std@@QAE@XZ 10003aa0 f i capldll.obj
 0001:00002b00       ??1?$_Tree@V?$_Tmap_traits@IPAVVIACapl@@U?$less@I@std@@V?$allocator@U?$pair@$$CBIPAVVIACapl@@@std@@@3@$0A@@std@@@std@@QAE@XZ 10003b00 f i capldll.obj
 0001:00002b60       ??1?$_Tree_const_iterator@V?$_Tree_val@U?$_Tree_simple_types@U?$pair@$$CBIPAVCaplInstanceData@@@std@@@std@@@std@@@std@@QAE@XZ 10003b60 f i capldll.obj
 0001:00002b80       ??1?$_Tree_const_iterator@V?$_Tree_val@U?$_Tree_simple_types@U?$pair@$$CBIPAVVIACapl@@@std@@@std@@@std@@@std@@QAE@XZ 10003b80 f i capldll.obj
 0001:00002ba0       ??1?$_Tree_iterator@V?$_Tree_val@U?$_Tree_simple_types@U?$pair@$$CBIPAVCaplInstanceData@@@std@@@std@@@std@@@std@@QAE@XZ 10003ba0 f i capldll.obj
 0001:00002bc0       ??1?$_Tree_iterator@V?$_Tree_val@U?$_Tree_simple_types@U?$pair@$$CBIPAVVIACapl@@@std@@@std@@@std@@@std@@QAE@XZ 10003bc0 f i capldll.obj
 0001:00002be0       ??1?$_Tree_temp_node@V?$allocator@U?$_Tree_node@U?$pair@$$CBIPAVCaplInstanceData@@@std@@PAX@std@@@std@@@std@@QAE@XZ 10003be0 f i capldll.obj
 0001:00002c80       ??1?$_Tree_temp_node@V?$allocator@U?$_Tree_node@U?$pair@$$CBIPAVVIACapl@@@std@@PAX@std@@@std@@@std@@QAE@XZ 10003c80 f i capldll.obj
 0001:00002d20       ??1?$_Tree_temp_node_alloc@V?$allocator@U?$_Tree_node@U?$pair@$$CBIPAVCaplInstanceData@@@std@@PAX@std@@@std@@@std@@QAE@XZ 10003d20 f i capldll.obj
 0001:00002d40       ??1?$_Tree_temp_node_alloc@V?$allocator@U?$_Tree_node@U?$pair@$$CBIPAVVIACapl@@@std@@PAX@std@@@std@@@std@@QAE@XZ 10003d40 f i capldll.obj
 0001:00002d60       ??1?$_Tree_unchecked_const_iterator@V?$_Tree_val@U?$_Tree_simple_types@U?$pair@$$CBIPAVCaplInstanceData@@@std@@@std@@@std@@U_Iterator_base12@2@@std@@QAE@XZ 10003d60 f i capldll.obj
 0001:00002d80       ??1?$_Tree_unchecked_const_iterator@V?$_Tree_val@U?$_Tree_simple_types@U?$pair@$$CBIPAVVIACapl@@@std@@@std@@@std@@U_Iterator_base12@2@@std@@QAE@XZ 10003d80 f i capldll.obj
 0001:00002da0       ??1?$map@IPAVCaplInstanceData@@U?$less@I@std@@V?$allocator@U?$pair@$$CBIPAVCaplInstanceData@@@std@@@3@@std@@QAE@XZ 10003da0 f i capldll.obj
 0001:00002dc0       ??1?$map@IPAVVIACapl@@U?$less@I@std@@V?$allocator@U?$pair@$$CBIPAVVIACapl@@@std@@@3@@std@@QAE@XZ 10003dc0 f i capldll.obj
 0001:00002de0       ??1_Iterator_base12@std@@QAE@XZ 10003de0 f i capldll.obj
 0001:00002e00       ??1bad_alloc@std@@UAE@XZ   10003e00 f i capldll.obj
 0001:00002e20       ??1bad_array_new_length@std@@UAE@XZ 10003e20 f i capldll.obj
 0001:00002e40       ??1exception@std@@UAE@XZ   10003e40 f i capldll.obj
 0001:00002e70       ??2@YAPAXIPAX@Z            10003e70 f i capldll.obj
 0001:00002e80       ??4?$_Tree_const_iterator@V?$_Tree_val@U?$_Tree_simple_types@U?$pair@$$CBIPAVCaplInstanceData@@@std@@@std@@@std@@@std@@QAEAAV01@$$QAV01@@Z 10003e80 f i capldll.obj
 0001:00002ea0       ??4?$_Tree_iterator@V?$_Tree_val@U?$_Tree_simple_types@U?$pair@$$CBIPAVCaplInstanceData@@@std@@@std@@@std@@@std@@QAEAAV01@$$QAV01@@Z 10003ea0 f i capldll.obj
 0001:00002ec0       ??4?$_Tree_unchecked_const_iterator@V?$_Tree_val@U?$_Tree_simple_types@U?$pair@$$CBIPAVCaplInstanceData@@@std@@@std@@@std@@U_Iterator_base12@2@@std@@QAEAAV01@$$QAV01@@Z 10003ec0 f i capldll.obj
 0001:00002ef0       ??4_Iterator_base12@std@@QAEAAU01@ABU01@@Z 10003ef0 f i capldll.obj
 0001:00002f10       ??8?$_Tree_const_iterator@V?$_Tree_val@U?$_Tree_simple_types@U?$pair@$$CBIPAVCaplInstanceData@@@std@@@std@@@std@@@std@@QBE_NABV01@@Z 10003f10 f i capldll.obj
 0001:00002fb0       ??8?$_Tree_const_iterator@V?$_Tree_val@U?$_Tree_simple_types@U?$pair@$$CBIPAVVIACapl@@@std@@@std@@@std@@@std@@QBE_NABV01@@Z 10003fb0 f i capldll.obj
 0001:00003050       ??8?$_Tree_unchecked_const_iterator@V?$_Tree_val@U?$_Tree_simple_types@U?$pair@$$CBIPAVCaplInstanceData@@@std@@@std@@@std@@U_Iterator_base0@2@@std@@QBE_NABV01@@Z 10004050 f i capldll.obj
 0001:00003080       ??9?$_Tree_const_iterator@V?$_Tree_val@U?$_Tree_simple_types@U?$pair@$$CBIPAVCaplInstanceData@@@std@@@std@@@std@@@std@@QBE_NABV01@@Z 10004080 f i capldll.obj
 0001:000030c0       ??9?$_Tree_const_iterator@V?$_Tree_val@U?$_Tree_simple_types@U?$pair@$$CBIPAVVIACapl@@@std@@@std@@@std@@@std@@QBE_NABV01@@Z 100040c0 f i capldll.obj
 0001:00003100       ??9?$_Tree_unchecked_const_iterator@V?$_Tree_val@U?$_Tree_simple_types@U?$pair@$$CBIPAVCaplInstanceData@@@std@@@std@@@std@@U_Iterator_base0@2@@std@@QBE_NABV01@@Z 10004100 f i capldll.obj
 0001:00003140       ??A?$map@IPAVCaplInstanceData@@U?$less@I@std@@V?$allocator@U?$pair@$$CBIPAVCaplInstanceData@@@std@@@3@@std@@QAEAAPAVCaplInstanceData@@ABI@Z 10004140 f i capldll.obj
 0001:00003170       ??A?$map@IPAVVIACapl@@U?$less@I@std@@V?$allocator@U?$pair@$$CBIPAVVIACapl@@@std@@@3@@std@@QAEAAPAVVIACapl@@ABI@Z 10004170 f i capldll.obj
 0001:000031a0       ??C?$_Tree_iterator@V?$_Tree_val@U?$_Tree_simple_types@U?$pair@$$CBIPAVCaplInstanceData@@@std@@@std@@@std@@@std@@QBEPAU?$pair@$$CBIPAVCaplInstanceData@@@1@XZ 100041a0 f i capldll.obj
 0001:000031c0       ??C?$_Tree_iterator@V?$_Tree_val@U?$_Tree_simple_types@U?$pair@$$CBIPAVVIACapl@@@std@@@std@@@std@@@std@@QBEPAU?$pair@$$CBIPAVVIACapl@@@1@XZ 100041c0 f i capldll.obj
 0001:000031e0       ??D?$_Tree_const_iterator@V?$_Tree_val@U?$_Tree_simple_types@U?$pair@$$CBIPAVCaplInstanceData@@@std@@@std@@@std@@@std@@QBEABU?$pair@$$CBIPAVCaplInstanceData@@@1@XZ 100041e0 f i capldll.obj
 0001:000032c0       ??D?$_Tree_const_iterator@V?$_Tree_val@U?$_Tree_simple_types@U?$pair@$$CBIPAVVIACapl@@@std@@@std@@@std@@@std@@QBEABU?$pair@$$CBIPAVVIACapl@@@1@XZ 100042c0 f i capldll.obj
 0001:000033a0       ??D?$_Tree_iterator@V?$_Tree_val@U?$_Tree_simple_types@U?$pair@$$CBIPAVCaplInstanceData@@@std@@@std@@@std@@@std@@QBEAAU?$pair@$$CBIPAVCaplInstanceData@@@1@XZ 100043a0 f i capldll.obj
 0001:000033c0       ??D?$_Tree_iterator@V?$_Tree_val@U?$_Tree_simple_types@U?$pair@$$CBIPAVVIACapl@@@std@@@std@@@std@@@std@@QBEAAU?$pair@$$CBIPAVVIACapl@@@1@XZ 100043c0 f i capldll.obj
 0001:000033e0       ??E?$_Tree_unchecked_const_iterator@V?$_Tree_val@U?$_Tree_simple_types@U?$pair@$$CBIPAVCaplInstanceData@@@std@@@std@@@std@@U_Iterator_base0@2@@std@@QAE?AV01@H@Z 100043e0 f i capldll.obj
 0001:00003410       ??E?$_Tree_unchecked_const_iterator@V?$_Tree_val@U?$_Tree_simple_types@U?$pair@$$CBIPAVCaplInstanceData@@@std@@@std@@@std@@U_Iterator_base0@2@@std@@QAEAAV01@XZ 10004410 f i capldll.obj
 0001:00003480       ??R?$less@I@std@@QBE_NABI0@Z 10004480 f i capldll.obj
 0001:000034b0       ??_Gbad_alloc@std@@UAEPAXI@Z 100044b0 f i capldll.obj
 0001:000034b0       ??_Ebad_alloc@std@@UAEPAXI@Z 100044b0 f i capldll.obj
 0001:000034e0       ??_Ebad_array_new_length@std@@UAEPAXI@Z 100044e0 f i capldll.obj
 0001:000034e0       ??_Gbad_array_new_length@std@@UAEPAXI@Z 100044e0 f i capldll.obj
 0001:00003510       ??_Eexception@std@@UAEPAXI@Z 10004510 f i capldll.obj
 0001:00003510       ??_Gexception@std@@UAEPAXI@Z 10004510 f i capldll.obj
 0001:00003540       ?_Adjust_manually_vector_aligned@std@@YAXAAPAXAAI@Z 10004540 f i capldll.obj
 0001:00003650       ?_Adopt@_Iterator_base0@std@@QAEXPBX@Z 10004650 f i capldll.obj
 0001:00003660       ?_Adopt@_Iterator_base12@std@@QAEXPBU_Container_base12@2@@Z 10004660 f i capldll.obj
 0001:00003680       ?_Adopt_locked@_Iterator_base12@std@@AAEXPBU_Container_base12@2@@Z 10004680 f i capldll.obj
 0001:000036b0       ?_Adopt_unlocked@_Iterator_base12@std@@AAEXPBU_Container_base12@2@@Z 100046b0 f i capldll.obj
 0001:00003710       ?_Alloc_sentinel_and_proxy@?$_Tree@V?$_Tmap_traits@IPAVCaplInstanceData@@U?$less@I@std@@V?$allocator@U?$pair@$$CBIPAVCaplInstanceData@@@std@@@3@$0A@@std@@@std@@IAEXXZ 10004710 f i capldll.obj
 0001:000037b0       ?_Alloc_sentinel_and_proxy@?$_Tree@V?$_Tmap_traits@IPAVVIACapl@@U?$less@I@std@@V?$allocator@U?$pair@$$CBIPAVVIACapl@@@std@@@3@$0A@@std@@@std@@IAEXXZ 100047b0 f i capldll.obj
 0001:00003850       ?_Allocate@?$_Alloc_construct_ptr@V?$allocator@U?$_Tree_node@U?$pair@$$CBIPAVCaplInstanceData@@@std@@PAX@std@@@std@@@std@@QAEXXZ 10004850 f i capldll.obj
 0001:00003880       ?_Allocate@?$_Alloc_construct_ptr@V?$allocator@U?$_Tree_node@U?$pair@$$CBIPAVVIACapl@@@std@@PAX@std@@@std@@@std@@QAEXXZ 10004880 f i capldll.obj
 0001:000038b0       ?_Allocate@_Default_allocate_traits@std@@SAPAXI@Z 100048b0 f i capldll.obj
 0001:000038d0       ?_Assign_locked@_Iterator_base12@std@@AAEXABU12@@Z 100048d0 f i capldll.obj
 0001:00003900       ?_Assign_unlocked@_Iterator_base12@std@@AAEXABU12@@Z 10004900 f i capldll.obj
 0001:00003940       ?_Check_grow_by_1@?$_Tree@V?$_Tmap_traits@IPAVCaplInstanceData@@U?$less@I@std@@V?$allocator@U?$pair@$$CBIPAVCaplInstanceData@@@std@@@3@$0A@@std@@@std@@IAEXXZ 10004940 f i capldll.obj
 0001:00003970       ?_Check_grow_by_1@?$_Tree@V?$_Tmap_traits@IPAVVIACapl@@U?$less@I@std@@V?$allocator@U?$pair@$$CBIPAVVIACapl@@@std@@@3@$0A@@std@@@std@@IAEXXZ 10004970 f i capldll.obj
 0001:000039a0       ?_Erase_unchecked@?$_Tree@V?$_Tmap_traits@IPAVCaplInstanceData@@U?$less@I@std@@V?$allocator@U?$pair@$$CBIPAVCaplInstanceData@@@std@@@3@$0A@@std@@@std@@AAEPAU?$_Tree_node@U?$pair@$$CBIPAVCaplInstanceData@@@std@@PAX@2@V?$_Tree_unchecked_const_iterator@V?$_Tree_val@U?$_Tree_simple_types@U?$pair@$$CBIPAVCaplInstanceData@@@std@@@std@@@std@@U_Iterator_base0@2@@2@0@Z 100049a0 f i capldll.obj
 0001:00003a20       ?_Erase_unchecked@?$_Tree@V?$_Tmap_traits@IPAVCaplInstanceData@@U?$less@I@std@@V?$allocator@U?$pair@$$CBIPAVCaplInstanceData@@@std@@@3@$0A@@std@@@std@@AAEPAU?$_Tree_node@U?$pair@$$CBIPAVCaplInstanceData@@@std@@PAX@2@V?$_Tree_unchecked_const_iterator@V?$_Tree_val@U?$_Tree_simple_types@U?$pair@$$CBIPAVCaplInstanceData@@@std@@@std@@@std@@U_Iterator_base0@2@@2@@Z 10004a20 f i capldll.obj
 0001:00003a80       ?_Extract@?$_Tree_val@U?$_Tree_simple_types@U?$pair@$$CBIPAVCaplInstanceData@@@std@@@std@@@std@@QAEPAU?$_Tree_node@U?$pair@$$CBIPAVCaplInstanceData@@@std@@PAX@2@V?$_Tree_unchecked_const_iterator@V?$_Tree_val@U?$_Tree_simple_types@U?$pair@$$CBIPAVCaplInstanceData@@@std@@@std@@@std@@U_Iterator_base0@2@@2@@Z 10004a80 f i capldll.obj
 0001:00003eb0       ?_Get_first@?$_Compressed_pair@U?$less@I@std@@V?$_Compressed_pair@V?$allocator@U?$_Tree_node@U?$pair@$$CBIPAVCaplInstanceData@@@std@@PAX@std@@@std@@V?$_Tree_val@U?$_Tree_simple_types@U?$pair@$$CBIPAVCaplInstanceData@@@std@@@std@@@2@$00@2@$00@std@@QBEABU?$less@I@2@XZ 10004eb0 f i capldll.obj
 0001:00003ec0       ?_Get_first@?$_Compressed_pair@U?$less@I@std@@V?$_Compressed_pair@V?$allocator@U?$_Tree_node@U?$pair@$$CBIPAVVIACapl@@@std@@PAX@std@@@std@@V?$_Tree_val@U?$_Tree_simple_types@U?$pair@$$CBIPAVVIACapl@@@std@@@std@@@2@$00@2@$00@std@@QBEABU?$less@I@2@XZ 10004ec0 f i capldll.obj
 0001:00003ed0       ?_Get_first@?$_Compressed_pair@V?$allocator@U?$_Tree_node@U?$pair@$$CBIPAVCaplInstanceData@@@std@@PAX@std@@@std@@V?$_Tree_val@U?$_Tree_simple_types@U?$pair@$$CBIPAVCaplInstanceData@@@std@@@std@@@2@$00@std@@QAEAAV?$allocator@U?$_Tree_node@U?$pair@$$CBIPAVCaplInstanceData@@@std@@PAX@std@@@2@XZ 10004ed0 f i capldll.obj
 0001:00003ee0       ?_Get_first@?$_Compressed_pair@V?$allocator@U?$_Tree_node@U?$pair@$$CBIPAVCaplInstanceData@@@std@@PAX@std@@@std@@V?$_Tree_val@U?$_Tree_simple_types@U?$pair@$$CBIPAVCaplInstanceData@@@std@@@std@@@2@$00@std@@QBEABV?$allocator@U?$_Tree_node@U?$pair@$$CBIPAVCaplInstanceData@@@std@@PAX@std@@@2@XZ 10004ee0 f i capldll.obj
 0001:00003ef0       ?_Get_first@?$_Compressed_pair@V?$allocator@U?$_Tree_node@U?$pair@$$CBIPAVVIACapl@@@std@@PAX@std@@@std@@V?$_Tree_val@U?$_Tree_simple_types@U?$pair@$$CBIPAVVIACapl@@@std@@@std@@@2@$00@std@@QAEAAV?$allocator@U?$_Tree_node@U?$pair@$$CBIPAVVIACapl@@@std@@PAX@std@@@2@XZ 10004ef0 f i capldll.obj
 0001:00003f00       ?_Get_first@?$_Compressed_pair@V?$allocator@U?$_Tree_node@U?$pair@$$CBIPAVVIACapl@@@std@@PAX@std@@@std@@V?$_Tree_val@U?$_Tree_simple_types@U?$pair@$$CBIPAVVIACapl@@@std@@@std@@@2@$00@std@@QBEABV?$allocator@U?$_Tree_node@U?$pair@$$CBIPAVVIACapl@@@std@@PAX@std@@@2@XZ 10004f00 f i capldll.obj
 0001:00003f10       ?_Get_scary@?$_Tree@V?$_Tmap_traits@IPAVCaplInstanceData@@U?$less@I@std@@V?$allocator@U?$pair@$$CBIPAVCaplInstanceData@@@std@@@3@$0A@@std@@@std@@IAEPAV?$_Tree_val@U?$_Tree_simple_types@U?$pair@$$CBIPAVCaplInstanceData@@@std@@@std@@@2@XZ 10004f10 f i capldll.obj
 0001:00003f30       ?_Get_scary@?$_Tree@V?$_Tmap_traits@IPAVCaplInstanceData@@U?$less@I@std@@V?$allocator@U?$pair@$$CBIPAVCaplInstanceData@@@std@@@3@$0A@@std@@@std@@IBEPBV?$_Tree_val@U?$_Tree_simple_types@U?$pair@$$CBIPAVCaplInstanceData@@@std@@@std@@@2@XZ 10004f30 f i capldll.obj
 0001:00003f50       ?_Get_scary@?$_Tree@V?$_Tmap_traits@IPAVVIACapl@@U?$less@I@std@@V?$allocator@U?$pair@$$CBIPAVVIACapl@@@std@@@3@$0A@@std@@@std@@IAEPAV?$_Tree_val@U?$_Tree_simple_types@U?$pair@$$CBIPAVVIACapl@@@std@@@std@@@2@XZ 10004f50 f i capldll.obj
 0001:00003f70       ?_Get_scary@?$_Tree@V?$_Tmap_traits@IPAVVIACapl@@U?$less@I@std@@V?$allocator@U?$pair@$$CBIPAVVIACapl@@@std@@@3@$0A@@std@@@std@@IBEPBV?$_Tree_val@U?$_Tree_simple_types@U?$pair@$$CBIPAVVIACapl@@@std@@@std@@@2@XZ 10004f70 f i capldll.obj
 0001:00003f90       ?_Getal@?$_Tree@V?$_Tmap_traits@IPAVCaplInstanceData@@U?$less@I@std@@V?$allocator@U?$pair@$$CBIPAVCaplInstanceData@@@std@@@3@$0A@@std@@@std@@IAEAAV?$allocator@U?$_Tree_node@U?$pair@$$CBIPAVCaplInstanceData@@@std@@PAX@std@@@2@XZ 10004f90 f i capldll.obj
 0001:00003fb0       ?_Getal@?$_Tree@V?$_Tmap_traits@IPAVCaplInstanceData@@U?$less@I@std@@V?$allocator@U?$pair@$$CBIPAVCaplInstanceData@@@std@@@3@$0A@@std@@@std@@IBEABV?$allocator@U?$_Tree_node@U?$pair@$$CBIPAVCaplInstanceData@@@std@@PAX@std@@@2@XZ 10004fb0 f i capldll.obj
 0001:00003fd0       ?_Getal@?$_Tree@V?$_Tmap_traits@IPAVVIACapl@@U?$less@I@std@@V?$allocator@U?$pair@$$CBIPAVVIACapl@@@std@@@3@$0A@@std@@@std@@IAEAAV?$allocator@U?$_Tree_node@U?$pair@$$CBIPAVVIACapl@@@std@@PAX@std@@@2@XZ 10004fd0 f i capldll.obj
 0001:00003ff0       ?_Getal@?$_Tree@V?$_Tmap_traits@IPAVVIACapl@@U?$less@I@std@@V?$allocator@U?$pair@$$CBIPAVVIACapl@@@std@@@3@$0A@@std@@@std@@IBEABV?$allocator@U?$_Tree_node@U?$pair@$$CBIPAVVIACapl@@@std@@PAX@std@@@2@XZ 10004ff0 f i capldll.obj
 0001:00004010       ?_Getcomp@?$_Tree@V?$_Tmap_traits@IPAVCaplInstanceData@@U?$less@I@std@@V?$allocator@U?$pair@$$CBIPAVCaplInstanceData@@@std@@@3@$0A@@std@@@std@@IBEABU?$less@I@2@XZ 10005010 f i capldll.obj
 0001:00004030       ?_Getcomp@?$_Tree@V?$_Tmap_traits@IPAVVIACapl@@U?$less@I@std@@V?$allocator@U?$pair@$$CBIPAVVIACapl@@@std@@@3@$0A@@std@@@std@@IBEABU?$less@I@2@XZ 10005030 f i capldll.obj
 0001:00004050       ?_Getcont@_Iterator_base12@std@@QBEPBU_Container_base12@2@XZ 10005050 f i capldll.obj
 0001:00004080       ?_Insert_node@?$_Tree_val@U?$_Tree_simple_types@U?$pair@$$CBIPAVCaplInstanceData@@@std@@@std@@@std@@QAEPAU?$_Tree_node@U?$pair@$$CBIPAVCaplInstanceData@@@std@@PAX@2@U?$_Tree_id@PAU?$_Tree_node@U?$pair@$$CBIPAVCaplInstanceData@@@std@@PAX@std@@@2@QAU32@@Z 10005080 f i capldll.obj
 0001:00004290       ?_Insert_node@?$_Tree_val@U?$_Tree_simple_types@U?$pair@$$CBIPAVVIACapl@@@std@@@std@@@std@@QAEPAU?$_Tree_node@U?$pair@$$CBIPAVVIACapl@@@std@@PAX@2@U?$_Tree_id@PAU?$_Tree_node@U?$pair@$$CBIPAVVIACapl@@@std@@PAX@std@@@2@QAU32@@Z 10005290 f i capldll.obj
 0001:000044a0       ?_Lrotate@?$_Tree_val@U?$_Tree_simple_types@U?$pair@$$CBIPAVCaplInstanceData@@@std@@@std@@@std@@QAEXPAU?$_Tree_node@U?$pair@$$CBIPAVCaplInstanceData@@@std@@PAX@2@@Z 100054a0 f i capldll.obj
 0001:00004540       ?_Lrotate@?$_Tree_val@U?$_Tree_simple_types@U?$pair@$$CBIPAVVIACapl@@@std@@@std@@@std@@QAEXPAU?$_Tree_node@U?$pair@$$CBIPAVVIACapl@@@std@@PAX@2@@Z 10005540 f i capldll.obj
 0001:000045e0       ?_Max@?$_Tree_val@U?$_Tree_simple_types@U?$pair@$$CBIPAVCaplInstanceData@@@std@@@std@@@std@@SAPAU?$_Tree_node@U?$pair@$$CBIPAVCaplInstanceData@@@std@@PAX@2@PAU32@@Z 100055e0 f i capldll.obj
 0001:00004610       ?_Min@?$_Tree_val@U?$_Tree_simple_types@U?$pair@$$CBIPAVCaplInstanceData@@@std@@@std@@@std@@SAPAU?$_Tree_node@U?$pair@$$CBIPAVCaplInstanceData@@@std@@PAX@2@PAU32@@Z 10005610 f i capldll.obj
 0001:00004630       ?_Orphan_all@_Container_base12@std@@QAEXXZ 10005630 f i capldll.obj
 0001:00004650       ?_Orphan_all_locked_v3@_Container_base12@std@@AAEXXZ 10005650 f i capldll.obj
 0001:00004680       ?_Orphan_all_unlocked_v3@_Container_base12@std@@AAEXXZ 10005680 f i capldll.obj
 0001:000046e0       ?_Orphan_me_locked_v3@_Iterator_base12@std@@AAEXXZ 100056e0 f i capldll.obj
 0001:00004710       ?_Orphan_me_unlocked_v3@_Iterator_base12@std@@AAEXXZ 10005710 f i capldll.obj
 0001:000047d0       ?_Orphan_ptr@?$_Tree_val@U?$_Tree_simple_types@U?$pair@$$CBIPAVCaplInstanceData@@@std@@@std@@@std@@QAEXQAU?$_Tree_node@U?$pair@$$CBIPAVCaplInstanceData@@@std@@PAX@2@@Z 100057d0 f i capldll.obj
 0001:00004850       ?_Orphan_ptr@?$_Tree_val@U?$_Tree_simple_types@U?$pair@$$CBIPAVVIACapl@@@std@@@std@@@std@@QAEXQAU?$_Tree_node@U?$pair@$$CBIPAVVIACapl@@@std@@PAX@2@@Z 10005850 f i capldll.obj
 0001:000048d0       ?_Release@?$_Alloc_construct_ptr@V?$allocator@U?$_Tree_node@U?$pair@$$CBIPAVCaplInstanceData@@@std@@PAX@std@@@std@@@std@@QAEPAU?$_Tree_node@U?$pair@$$CBIPAVCaplInstanceData@@@std@@PAX@2@XZ 100058d0 f i capldll.obj
 0001:00004900       ?_Release@?$_Alloc_construct_ptr@V?$allocator@U?$_Tree_node@U?$pair@$$CBIPAVVIACapl@@@std@@PAX@std@@@std@@@std@@QAEPAU?$_Tree_node@U?$pair@$$CBIPAVVIACapl@@@std@@PAX@2@XZ 10005900 f i capldll.obj
 0001:00004930       ?_Release@_Basic_container_proxy_ptr12@std@@QAEXXZ 10005930 f i capldll.obj
 0001:00004950       ?_Rrotate@?$_Tree_val@U?$_Tree_simple_types@U?$pair@$$CBIPAVCaplInstanceData@@@std@@@std@@@std@@QAEXPAU?$_Tree_node@U?$pair@$$CBIPAVCaplInstanceData@@@std@@PAX@2@@Z 10005950 f i capldll.obj
 0001:000049f0       ?_Rrotate@?$_Tree_val@U?$_Tree_simple_types@U?$pair@$$CBIPAVVIACapl@@@std@@@std@@@std@@QAEXPAU?$_Tree_node@U?$pair@$$CBIPAVVIACapl@@@std@@PAX@2@@Z 100059f0 f i capldll.obj
 0001:00004a90       ?_Throw_bad_array_new_length@std@@YAXXZ 10005a90 f i capldll.obj
 0001:00004ab0       ?_Throw_tree_length_error@std@@YAXXZ 10005ab0 f i capldll.obj
 0001:00004ac0       ?_Unchecked_begin@?$_Tree@V?$_Tmap_traits@IPAVCaplInstanceData@@U?$less@I@std@@V?$allocator@U?$pair@$$CBIPAVCaplInstanceData@@@std@@@3@$0A@@std@@@std@@QAE?AV?$_Tree_unchecked_iterator@V?$_Tree_val@U?$_Tree_simple_types@U?$pair@$$CBIPAVCaplInstanceData@@@std@@@std@@@std@@@2@XZ 10005ac0 f i capldll.obj
 0001:00004af0       ?allocate@?$allocator@U?$_Tree_node@U?$pair@$$CBIPAVCaplInstanceData@@@std@@PAX@std@@@std@@QAEPAU?$_Tree_node@U?$pair@$$CBIPAVCaplInstanceData@@@std@@PAX@2@I@Z 10005af0 f i capldll.obj
 0001:00004b20       ?allocate@?$allocator@U?$_Tree_node@U?$pair@$$CBIPAVVIACapl@@@std@@PAX@std@@@std@@QAEPAU?$_Tree_node@U?$pair@$$CBIPAVVIACapl@@@std@@PAX@2@I@Z 10005b20 f i capldll.obj
 0001:00004b50       ?allocate@?$allocator@U_Container_proxy@std@@@std@@QAEPAU_Container_proxy@2@I@Z 10005b50 f i capldll.obj
 0001:00004b80       ?begin@?$_Tree@V?$_Tmap_traits@IPAVCaplInstanceData@@U?$less@I@std@@V?$allocator@U?$pair@$$CBIPAVCaplInstanceData@@@std@@@3@$0A@@std@@@std@@QAE?AV?$_Tree_iterator@V?$_Tree_val@U?$_Tree_simple_types@U?$pair@$$CBIPAVCaplInstanceData@@@std@@@std@@@std@@@2@XZ 10005b80 f i capldll.obj
 0001:00004bc0       ?clear@?$_Tree@V?$_Tmap_traits@IPAVCaplInstanceData@@U?$less@I@std@@V?$allocator@U?$pair@$$CBIPAVCaplInstanceData@@@std@@@3@$0A@@std@@@std@@QAEXXZ 10005bc0 f i capldll.obj
 0001:00004c30       ?clear@?$_Tree@V?$_Tmap_traits@IPAVVIACapl@@U?$less@I@std@@V?$allocator@U?$pair@$$CBIPAVVIACapl@@@std@@@3@$0A@@std@@@std@@QAEXXZ 10005c30 f i capldll.obj
 0001:00004ca0       ?deallocate@?$_Default_allocator_traits@V?$allocator@U?$_Tree_node@U?$pair@$$CBIPAVCaplInstanceData@@@std@@PAX@std@@@std@@@std@@SAXAAV?$allocator@U?$_Tree_node@U?$pair@$$CBIPAVCaplInstanceData@@@std@@PAX@std@@@2@QAU?$_Tree_node@U?$pair@$$CBIPAVCaplInstanceData@@@std@@PAX@2@I@Z 10005ca0 f i capldll.obj
 0001:00004cc0       ?deallocate@?$_Default_allocator_traits@V?$allocator@U?$_Tree_node@U?$pair@$$CBIPAVVIACapl@@@std@@PAX@std@@@std@@@std@@SAXAAV?$allocator@U?$_Tree_node@U?$pair@$$CBIPAVVIACapl@@@std@@PAX@std@@@2@QAU?$_Tree_node@U?$pair@$$CBIPAVVIACapl@@@std@@PAX@2@I@Z 10005cc0 f i capldll.obj
 0001:00004ce0       ?deallocate@?$_Default_allocator_traits@V?$allocator@U_Container_proxy@std@@@std@@@std@@SAXAAV?$allocator@U_Container_proxy@std@@@2@QAU_Container_proxy@2@I@Z 10005ce0 f i capldll.obj
 0001:00004d00       ?deallocate@?$allocator@U?$_Tree_node@U?$pair@$$CBIPAVCaplInstanceData@@@std@@PAX@std@@@std@@QAEXQAU?$_Tree_node@U?$pair@$$CBIPAVCaplInstanceData@@@std@@PAX@2@I@Z 10005d00 f i capldll.obj
 0001:00004d20       ?deallocate@?$allocator@U?$_Tree_node@U?$pair@$$CBIPAVVIACapl@@@std@@PAX@std@@@std@@QAEXQAU?$_Tree_node@U?$pair@$$CBIPAVVIACapl@@@std@@PAX@2@I@Z 10005d20 f i capldll.obj
 0001:00004d40       ?end@?$_Tree@V?$_Tmap_traits@IPAVCaplInstanceData@@U?$less@I@std@@V?$allocator@U?$pair@$$CBIPAVCaplInstanceData@@@std@@@3@$0A@@std@@@std@@QAE?AV?$_Tree_iterator@V?$_Tree_val@U?$_Tree_simple_types@U?$pair@$$CBIPAVCaplInstanceData@@@std@@@std@@@std@@@2@XZ 10005d40 f i capldll.obj
 0001:00004d70       ?end@?$_Tree@V?$_Tmap_traits@IPAVVIACapl@@U?$less@I@std@@V?$allocator@U?$pair@$$CBIPAVVIACapl@@@std@@@3@$0A@@std@@@std@@QAE?AV?$_Tree_iterator@V?$_Tree_val@U?$_Tree_simple_types@U?$pair@$$CBIPAVVIACapl@@@std@@@std@@@std@@@2@XZ 10005d70 f i capldll.obj
 0001:00004da0       ?erase@?$_Tree@V?$_Tmap_traits@IPAVCaplInstanceData@@U?$less@I@std@@V?$allocator@U?$pair@$$CBIPAVCaplInstanceData@@@std@@@3@$0A@@std@@@std@@QAEIABI@Z 10005da0 f i capldll.obj
 0001:00004e10       ?find@?$_Tree@V?$_Tmap_traits@IPAVCaplInstanceData@@U?$less@I@std@@V?$allocator@U?$pair@$$CBIPAVCaplInstanceData@@@std@@@3@$0A@@std@@@std@@QAE?AV?$_Tree_iterator@V?$_Tree_val@U?$_Tree_simple_types@U?$pair@$$CBIPAVCaplInstanceData@@@std@@@std@@@std@@@2@ABI@Z 10005e10 f i capldll.obj
 0001:00004e50       ?find@?$_Tree@V?$_Tmap_traits@IPAVVIACapl@@U?$less@I@std@@V?$allocator@U?$pair@$$CBIPAVVIACapl@@@std@@@3@$0A@@std@@@std@@QAE?AV?$_Tree_iterator@V?$_Tree_val@U?$_Tree_simple_types@U?$pair@$$CBIPAVVIACapl@@@std@@@std@@@std@@@2@ABI@Z 10005e50 f i capldll.obj
 0001:00004e90       ?max@?$numeric_limits@H@std@@SAHXZ 10005e90 f i capldll.obj
 0001:00004ea0       ?max_size@?$_Default_allocator_traits@V?$allocator@U?$_Tree_node@U?$pair@$$CBIPAVCaplInstanceData@@@std@@PAX@std@@@std@@@std@@SAIABV?$allocator@U?$_Tree_node@U?$pair@$$CBIPAVCaplInstanceData@@@std@@PAX@std@@@2@@Z 10005ea0 f i capldll.obj
 0001:00004eb0       ?max_size@?$_Default_allocator_traits@V?$allocator@U?$_Tree_node@U?$pair@$$CBIPAVVIACapl@@@std@@PAX@std@@@std@@@std@@SAIABV?$allocator@U?$_Tree_node@U?$pair@$$CBIPAVVIACapl@@@std@@PAX@std@@@2@@Z 10005eb0 f i capldll.obj
 0001:00004ec0       ?max_size@?$_Tree@V?$_Tmap_traits@IPAVCaplInstanceData@@U?$less@I@std@@V?$allocator@U?$pair@$$CBIPAVCaplInstanceData@@@std@@@3@$0A@@std@@@std@@QBEIXZ 10005ec0 f i capldll.obj
 0001:00004f00       ?max_size@?$_Tree@V?$_Tmap_traits@IPAVVIACapl@@U?$less@I@std@@V?$allocator@U?$pair@$$CBIPAVVIACapl@@@std@@@3@$0A@@std@@@std@@QBEIXZ 10005f00 f i capldll.obj
 0001:00004f40       ?pointer_to@?$pointer_traits@PAU?$pair@$$CBIPAVCaplInstanceData@@@std@@@std@@SAPAU?$pair@$$CBIPAVCaplInstanceData@@@2@AAU32@@Z 10005f40 f i capldll.obj
 0001:00004f60       ?pointer_to@?$pointer_traits@PAU?$pair@$$CBIPAVVIACapl@@@std@@@std@@SAPAU?$pair@$$CBIPAVVIACapl@@@2@AAU32@@Z 10005f60 f i capldll.obj
 0001:00004f80       ?size@?$_Tree@V?$_Tmap_traits@IPAVCaplInstanceData@@U?$less@I@std@@V?$allocator@U?$pair@$$CBIPAVCaplInstanceData@@@std@@@3@$0A@@std@@@std@@QBEIXZ 10005f80 f i capldll.obj
 0001:00004fa0       ?what@exception@std@@UBEPBDXZ 10005fa0 f i capldll.obj
 0001:00004fd0       _pochisq                   10005fd0 f   chisq.obj
 0001:00005560       _ENT_SimpleTest@44         10006560 f   ent.obj
 0001:000055e0       _ENT_VarTest@76            100065e0 f   ent.obj
 0001:00005650       _ENT@44                    10006650 f   ent.obj
 0001:00005900       _rt_init                   10006900 f   randtest.obj
 0001:00005a30       _rt_add                    10006a30 f   randtest.obj
 0001:00005ce0       _rt_end                    10006ce0 f   randtest.obj
 0001:00005fe0       ??0_Init_locks@std@@QAE@XZ 10006fe0 f   libcpmtd:xlock.obj
 0001:00006040       ??0_Lockit@std@@QAE@H@Z    10007040 f   libcpmtd:xlock.obj
 0001:00006090       ??0_Lockit@std@@QAE@XZ     10007090 f   libcpmtd:xlock.obj
 0001:000060d0       ??1_Init_locks@std@@QAE@XZ 100070d0 f   libcpmtd:xlock.obj
 0001:00006130       ??1_Lockit@std@@QAE@XZ     10007130 f   libcpmtd:xlock.obj
 0001:00006170       ?_Init_locks_ctor@_Init_locks@std@@CAXPAV12@@Z 10007170 f   libcpmtd:xlock.obj
 0001:000061d0       ?_Init_locks_dtor@_Init_locks@std@@CAXPAV12@@Z 100071d0 f   libcpmtd:xlock.obj
 0001:00006230       ?_Lockit_ctor@_Lockit@std@@CAXPAV12@@Z 10007230 f   libcpmtd:xlock.obj
 0001:00006250       ?_Lockit_ctor@_Lockit@std@@CAXPAV12@H@Z 10007250 f   libcpmtd:xlock.obj
 0001:00006290       ?_Lockit_ctor@_Lockit@std@@SAXH@Z 10007290 f   libcpmtd:xlock.obj
 0001:000062c0       ?_Lockit_dtor@_Lockit@std@@CAXPAV12@@Z 100072c0 f   libcpmtd:xlock.obj
 0001:000062e0       ?_Lockit_dtor@_Lockit@std@@SAXH@Z 100072e0 f   libcpmtd:xlock.obj
 0001:00006310       __Lock_at_thread_exit_mutex 10007310 f   libcpmtd:xlock.obj
 0001:00006330       __Unlock_at_thread_exit_mutex 10007330 f   libcpmtd:xlock.obj
 0001:00006350       ??0bad_alloc@std@@QAE@XZ   10007350 f i libcpmtd:xthrow.obj
 0001:00006380       ??0bad_function_call@std@@QAE@ABV01@@Z 10007380 f i libcpmtd:xthrow.obj
 0001:000063b0       ??0bad_function_call@std@@QAE@XZ 100073b0 f i libcpmtd:xthrow.obj
 0001:000063d0       ??0exception@std@@QAE@QBD@Z 100073d0 f i libcpmtd:xthrow.obj
 0001:00006420       ??0exception@std@@QAE@XZ   10007420 f i libcpmtd:xthrow.obj
 0001:00006450       ??0invalid_argument@std@@QAE@ABV01@@Z 10007450 f i libcpmtd:xthrow.obj
 0001:00006480       ??0invalid_argument@std@@QAE@PBD@Z 10007480 f i libcpmtd:xthrow.obj
 0001:000064b0       ??0length_error@std@@QAE@ABV01@@Z 100074b0 f i libcpmtd:xthrow.obj
 0001:000064e0       ??0length_error@std@@QAE@PBD@Z 100074e0 f i libcpmtd:xthrow.obj
 0001:00006510       ??0logic_error@std@@QAE@ABV01@@Z 10007510 f i libcpmtd:xthrow.obj
 0001:00006540       ??0logic_error@std@@QAE@PBD@Z 10007540 f i libcpmtd:xthrow.obj
 0001:00006570       ??0out_of_range@std@@QAE@ABV01@@Z 10007570 f i libcpmtd:xthrow.obj
 0001:000065a0       ??0out_of_range@std@@QAE@PBD@Z 100075a0 f i libcpmtd:xthrow.obj
 0001:000065d0       ??0overflow_error@std@@QAE@ABV01@@Z 100075d0 f i libcpmtd:xthrow.obj
 0001:00006600       ??0overflow_error@std@@QAE@PBD@Z 10007600 f i libcpmtd:xthrow.obj
 0001:00006630       ??0regex_error@std@@QAE@ABV01@@Z 10007630 f i libcpmtd:xthrow.obj
 0001:00006670       ??0regex_error@std@@QAE@W4error_type@regex_constants@1@@Z 10007670 f i libcpmtd:xthrow.obj
 0001:000066b0       ??0runtime_error@std@@QAE@ABV01@@Z 100076b0 f i libcpmtd:xthrow.obj
 0001:000066e0       ??0runtime_error@std@@QAE@PBD@Z 100076e0 f i libcpmtd:xthrow.obj
 0001:00006710       ??1bad_function_call@std@@UAE@XZ 10007710 f i libcpmtd:xthrow.obj
 0001:00006730       ??1invalid_argument@std@@UAE@XZ 10007730 f i libcpmtd:xthrow.obj
 0001:00006750       ??1length_error@std@@UAE@XZ 10007750 f i libcpmtd:xthrow.obj
 0001:00006770       ??1logic_error@std@@UAE@XZ 10007770 f i libcpmtd:xthrow.obj
 0001:00006790       ??1out_of_range@std@@UAE@XZ 10007790 f i libcpmtd:xthrow.obj
 0001:000067b0       ??1overflow_error@std@@UAE@XZ 100077b0 f i libcpmtd:xthrow.obj
 0001:000067d0       ??1regex_error@std@@UAE@XZ 100077d0 f i libcpmtd:xthrow.obj
 0001:000067f0       ??1runtime_error@std@@UAE@XZ 100077f0 f i libcpmtd:xthrow.obj
 0001:00006810       ??_Gbad_function_call@std@@UAEPAXI@Z 10007810 f i libcpmtd:xthrow.obj
 0001:00006810       ??_Ebad_function_call@std@@UAEPAXI@Z 10007810 f i libcpmtd:xthrow.obj
 0001:00006840       ??_Ginvalid_argument@std@@UAEPAXI@Z 10007840 f i libcpmtd:xthrow.obj
 0001:00006840       ??_Einvalid_argument@std@@UAEPAXI@Z 10007840 f i libcpmtd:xthrow.obj
 0001:00006870       ??_Glength_error@std@@UAEPAXI@Z 10007870 f i libcpmtd:xthrow.obj
 0001:00006870       ??_Elength_error@std@@UAEPAXI@Z 10007870 f i libcpmtd:xthrow.obj
 0001:000068a0       ??_Glogic_error@std@@UAEPAXI@Z 100078a0 f i libcpmtd:xthrow.obj
 0001:000068a0       ??_Elogic_error@std@@UAEPAXI@Z 100078a0 f i libcpmtd:xthrow.obj
 0001:000068d0       ??_Gout_of_range@std@@UAEPAXI@Z 100078d0 f i libcpmtd:xthrow.obj
 0001:000068d0       ??_Eout_of_range@std@@UAEPAXI@Z 100078d0 f i libcpmtd:xthrow.obj
 0001:00006900       ??_Eoverflow_error@std@@UAEPAXI@Z 10007900 f i libcpmtd:xthrow.obj
 0001:00006900       ??_Goverflow_error@std@@UAEPAXI@Z 10007900 f i libcpmtd:xthrow.obj
 0001:00006930       ??_Eregex_error@std@@UAEPAXI@Z 10007930 f i libcpmtd:xthrow.obj
 0001:00006930       ??_Gregex_error@std@@UAEPAXI@Z 10007930 f i libcpmtd:xthrow.obj
 0001:00006960       ??_Gruntime_error@std@@UAEPAXI@Z 10007960 f i libcpmtd:xthrow.obj
 0001:00006960       ??_Eruntime_error@std@@UAEPAXI@Z 10007960 f i libcpmtd:xthrow.obj
 0001:00006990       ?_Stringify@regex_error@std@@CAPBDW4error_type@regex_constants@2@@Z 10007990 f i libcpmtd:xthrow.obj
 0001:00006a60       ?_Xbad_alloc@std@@YAXXZ    10007a60 f   libcpmtd:xthrow.obj
 0001:00006a80       ?_Xbad_function_call@std@@YAXXZ 10007a80 f   libcpmtd:xthrow.obj
 0001:00006aa0       ?_Xinvalid_argument@std@@YAXPBD@Z 10007aa0 f   libcpmtd:xthrow.obj
 0001:00006ad0       ?_Xlength_error@std@@YAXPBD@Z 10007ad0 f   libcpmtd:xthrow.obj
 0001:00006b00       ?_Xout_of_range@std@@YAXPBD@Z 10007b00 f   libcpmtd:xthrow.obj
 0001:00006b30       ?_Xoverflow_error@std@@YAXPBD@Z 10007b30 f   libcpmtd:xthrow.obj
 0001:00006b60       ?_Xregex_error@std@@YAXW4error_type@regex_constants@1@@Z 10007b60 f   libcpmtd:xthrow.obj
 0001:00006b90       ?_Xruntime_error@std@@YAXPBD@Z 10007b90 f   libcpmtd:xthrow.obj
 0001:00006bc0       ?__empty_global_delete@@YAXPAX@Z 10007bc0 f i libcpmtd:xthrow.obj
 0001:00006bd0       ?__empty_global_delete@@YAXPAXI@Z 10007bd0 f i libcpmtd:xthrow.obj
 0001:00006be0       ?__empty_global_delete@@YAXPAXIW4align_val_t@std@@@Z 10007be0 f i libcpmtd:xthrow.obj
 0001:00006bf0       ?__empty_global_delete@@YAXPAXW4align_val_t@std@@@Z 10007bf0 f i libcpmtd:xthrow.obj
 0001:00006c00       ?what@bad_function_call@std@@UBEPBDXZ 10007c00 f i libcpmtd:xthrow.obj
 0001:00006c10       __Mtxdst                   10007c10 f   libcpmtd:xmtx.obj
 0001:00006c20       __Mtxinit                  10007c20 f   libcpmtd:xmtx.obj
 0001:00006c40       __Mtxlock                  10007c40 f   libcpmtd:xmtx.obj
 0001:00006c50       __Mtxunlock                10007c50 f   libcpmtd:xmtx.obj
 0001:00006c60       ??2@YAPAXI@Z               10007c60 f   LIBCMTD:new_scalar.obj
 0001:00006cb0       ??3@YAXPAXI@Z              10007cb0 f   LIBCMTD:delete_scalar_size.obj
 0001:00006cd0       ?configure_argv@__scrt_narrow_argv_policy@@SAHXZ 10007cd0 f i LIBCMTD:utility.obj
 0001:00006d80       ?initialize_environment@__scrt_narrow_environment_policy@@SAHXZ 10007d80 f i LIBCMTD:utility.obj
 0001:00006e00       _NtCurrentTeb              10007e00 f i LIBCMTD:utility.obj
 0001:00006e10       ___scrt_acquire_startup_lock 10007e10 f   LIBCMTD:utility.obj
 0001:00006e60       ___scrt_dllmain_after_initialize_c 10007e60 f   LIBCMTD:utility.obj
 0001:00006e90       ___scrt_dllmain_before_initialize_c 10007e90 f   LIBCMTD:utility.obj
 0001:00006eb0       ___scrt_dllmain_crt_thread_attach 10007eb0 f   LIBCMTD:utility.obj
 0001:00006ee0       ___scrt_dllmain_crt_thread_detach 10007ee0 f   LIBCMTD:utility.obj
 0001:00006f00       ___scrt_dllmain_exception_filter 10007f00 f   LIBCMTD:utility.obj
 0001:00006f50       ___scrt_dllmain_uninitialize_c 10007f50 f   LIBCMTD:utility.obj
 0001:00006f80       ___scrt_dllmain_uninitialize_critical 10007f80 f   LIBCMTD:utility.obj
 0001:00006fa0       ___scrt_initialize_crt     10007fa0 f   LIBCMTD:utility.obj
 0001:00006ff0       ___scrt_initialize_onexit_tables 10007ff0 f   LIBCMTD:utility.obj
 0001:000070d0       ___scrt_is_nonwritable_in_current_image 100080d0 f   LIBCMTD:utility.obj
 0001:00007200       ___scrt_release_startup_lock 10008200 f   LIBCMTD:utility.obj
 0001:00007230       ___scrt_uninitialize_crt   10008230 f   LIBCMTD:utility.obj
 0001:00007270       __onexit                   10008270 f   LIBCMTD:utility.obj
 0001:000072e0       _at_quick_exit             100082e0 f   LIBCMTD:utility.obj
 0001:00007320       _atexit                    10008320 f   LIBCMTD:utility.obj
 0001:00007350       @__security_check_cookie@4 10008350 f   LIBCMTD:secchk.obj
 0001:00007360       ??1type_info@@UAE@XZ       10008360 f   LIBCMTD:std_type_info_static.obj
 0001:00007380       ??_Etype_info@@UAEPAXI@Z   10008380 f i LIBCMTD:std_type_info_static.obj
 0001:00007380       ??_Gtype_info@@UAEPAXI@Z   10008380 f i LIBCMTD:std_type_info_static.obj
 0001:00007880       __CRT_INIT@12              10008880 f   LIBCMTD:dll_dllmain.obj
 0001:000078a0       __DllMainCRTStartup@12     100088a0 f   LIBCMTD:dll_dllmain.obj
 0001:000078d0       ?__scrt_throw_std_bad_alloc@@YAXXZ 100088d0 f   LIBCMTD:throw_bad_alloc.obj
 0001:000078f0       ?__scrt_throw_std_bad_array_new_length@@YAXXZ 100088f0 f   LIBCMTD:throw_bad_alloc.obj
 0001:00007910       ??3@YAXPAX@Z               10008910 f   LIBCMTD:delete_scalar.obj
 0001:00007930       ___isa_available_init      10008930 f   LIBCMTD:cpu_disp.obj
 0001:00007c70       __get_startup_argv_mode    10008c70 f   LIBCMTD:argv_mode.obj
 0001:00007c80       ___scrt_is_ucrt_dll_in_use 10008c80 f   LIBCMTD:ucrt_detection.obj
 0001:00007cb0       ___scrt_fastfail           10008cb0 f   LIBCMTD:utility_desktop.obj
 0001:00007df0       ___scrt_get_show_window_mode 10008df0 f   LIBCMTD:utility_desktop.obj
 0001:00007e30       ___scrt_initialize_mta     10008e30 f   LIBCMTD:utility_desktop.obj
 0001:00007e40       ___scrt_initialize_winrt   10008e40 f   LIBCMTD:utility_desktop.obj
 0001:00007e50       ___scrt_is_managed_app     10008e50 f   LIBCMTD:utility_desktop.obj
 0001:00007ee0       ___scrt_set_unhandled_exception_filter 10008ee0 f   LIBCMTD:utility_desktop.obj
 0001:00007ef0       ___scrt_stub_for_initialize_mta 10008ef0 f   LIBCMTD:utility_desktop.obj
 0001:00007ef0       ___scrt_exe_initialize_mta 10008ef0 f   LIBCMTD:utility_desktop.obj
 0001:00007f00       ___scrt_unhandled_exception_filter@4 10008f00 f   LIBCMTD:utility_desktop.obj
 0001:00007f80       __crt_debugger_hook        10008f80 f   LIBCMTD:utility_desktop.obj
 0001:00007f90       @_guard_check_icall_nop@4  10008f90 f i LIBCMTD:guard_support.obj
 0001:00007fa0       _ReadNoFence               10008fa0 f i LIBCMTD:guard_support.obj
 0001:00007fc0       _ReadPointerNoFence        10008fc0 f i LIBCMTD:guard_support.obj
 0001:00007fe0       ___castguard_check_failure_debugbreak 10008fe0 f i LIBCMTD:guard_support.obj
 0001:00008000       ___castguard_check_failure_fastfail 10009000 f i LIBCMTD:guard_support.obj
 0001:00008020       ___castguard_check_failure_nop 10009020 f i LIBCMTD:guard_support.obj
 0001:00008030       ___castguard_check_failure_os_handled 10009030 f i LIBCMTD:guard_support.obj
 0001:000080b0       ___castguard_slow_path_check_debugbreak 100090b0 f i LIBCMTD:guard_support.obj
 0001:000080e0       ___castguard_slow_path_check_fastfail 100090e0 f i LIBCMTD:guard_support.obj
 0001:00008120       ___castguard_slow_path_check_nop 10009120 f i LIBCMTD:guard_support.obj
 0001:00008130       ___castguard_slow_path_check_os_handled 10009130 f i LIBCMTD:guard_support.obj
 0001:000081d0       __guard_icall_checks_enforced 100091d0 f i LIBCMTD:guard_support.obj
 0001:00008200       ___raise_securityfailure   10009200 f   LIBCMTD:gs_report.obj
 0001:00008230       ___report_gsfailure        10009230 f   LIBCMTD:gs_report.obj
 0001:00008340       ___report_rangecheckfailure 10009340 f   LIBCMTD:gs_report.obj
 0001:00008350       ___report_securityfailure  10009350 f   LIBCMTD:gs_report.obj
 0001:00008430       ___report_securityfailureEx 10009430 f   LIBCMTD:gs_report.obj
 0001:000085d0       ___security_init_cookie    100095d0 f   LIBCMTD:gs_support.obj
 0001:00008650       _DllMain@12                10009650 f   LIBCMTD:dll_dllmain_stub.obj
 0001:00008660       ?__scrt_initialize_type_info@@YAXXZ 10009660 f   LIBCMTD:tncleanup.obj
 0001:00008670       ?__scrt_uninitialize_type_info@@YAXXZ 10009670 f   LIBCMTD:tncleanup.obj
 0001:00008690       ___local_stdio_printf_options 10009690 f i LIBCMTD:default_local_stdio_options.obj
 0001:000086a0       ___local_stdio_scanf_options 100096a0 f i LIBCMTD:default_local_stdio_options.obj
 0001:000086b0       ___scrt_initialize_default_local_stdio_options 100096b0 f   LIBCMTD:default_local_stdio_options.obj
 0001:000086f0       ___scrt_get_dyn_tls_init_callback 100096f0 f   LIBCMTD:dyn_tls_init.obj
 0001:00008700       __RTC_Initialize           10009700 f   LIBCMTD:initsect.obj
 0001:00008730       __RTC_Terminate            10009730 f   LIBCMTD:initsect.obj
 0001:00008760       _memcpy                    10009760 f   libvcruntimed:memcpy.obj
 0001:00008ce0       ??$?RD@__crt_public_free_policy@@QBEXQBD@Z 10009ce0 f i libvcruntimed:std_exception.obj
 0001:00008d00       ??0?$__crt_unique_heap_ptr@DU__crt_public_free_policy@@@@QAE@QAD@Z 10009d00 f i libvcruntimed:std_exception.obj
 0001:00008d20       ??1?$__crt_unique_heap_ptr@DU__crt_public_free_policy@@@@QAE@XZ 10009d20 f i libvcruntimed:std_exception.obj
 0001:00008d40       ??B?$__crt_unique_heap_ptr@DU__crt_public_free_policy@@@@QBE_NXZ 10009d40 f i libvcruntimed:std_exception.obj
 0001:00008d60       ?detach@?$__crt_unique_heap_ptr@DU__crt_public_free_policy@@@@QAEPADXZ 10009d60 f i libvcruntimed:std_exception.obj
 0001:00008d90       ?get@?$__crt_unique_heap_ptr@DU__crt_public_free_policy@@@@QBEPADXZ 10009d90 f i libvcruntimed:std_exception.obj
 0001:00008da0       ?is_valid@?$__crt_unique_heap_ptr@DU__crt_public_free_policy@@@@QBE_NXZ 10009da0 f i libvcruntimed:std_exception.obj
 0001:00008dd0       ?release@?$__crt_unique_heap_ptr@DU__crt_public_free_policy@@@@QAEXXZ 10009dd0 f i libvcruntimed:std_exception.obj
 0001:00008e00       ___std_exception_copy      10009e00 f   libvcruntimed:std_exception.obj
 0001:00008ef0       ___std_exception_destroy   10009ef0 f   libvcruntimed:std_exception.obj
 0001:00008f20       __CxxThrowException@8      10009f20 f   libvcruntimed:throw.obj
 0001:00008fd0       ??$?0AAViterator@TryBlockMap@__FrameHandler3@@AAV012@$0A@@?$pair@Viterator@TryBlockMap@__FrameHandler3@@V123@@std@@QAE@AAViterator@TryBlockMap@__FrameHandler3@@0@Z 10009fd0 f i libvcruntimed:trnsctrl.obj
 0001:00009020       ??$forward@AAViterator@TryBlockMap@__FrameHandler3@@@std@@YAAAViterator@TryBlockMap@__FrameHandler3@@AAV123@@Z 1000a020 f i libvcruntimed:trnsctrl.obj
 0001:00009030       ??0iterator@TryBlockMap@__FrameHandler3@@QAE@AAV12@I@Z 1000a030 f i libvcruntimed:trnsctrl.obj
 0001:00009060       ?GetRangeOfTrysToCheck@__FrameHandler3@@SA?AU?$pair@Viterator@TryBlockMap@__FrameHandler3@@V123@@std@@AAVTryBlockMap@1@HPAXPBU_s_FuncInfo@@H@Z 1000a060 f   libvcruntimed:trnsctrl.obj
 0001:00009140       ?_CallCatchBlock2@@YAPAXPAUEHRegistrationNode@@PBU_s_FuncInfo@@PAXHK@Z 1000a140 f   libvcruntimed:trnsctrl.obj
 0001:000091b0       ?_CallSETranslator@@YAHPAUEHExceptionRecord@@PAUEHRegistrationNode@@PAX2PBU_s_FuncInfo@@H1@Z 1000a1b0 f   libvcruntimed:trnsctrl.obj
 0001:000092c0       ?_JumpToContinuation@@YGXPAXPAUEHRegistrationNode@@@Z 1000a2c0 f   libvcruntimed:trnsctrl.obj
 0001:00009300       ?_UnwindNestedFrames@@YGXPAUEHRegistrationNode@@PAUEHExceptionRecord@@@Z 1000a300 f   libvcruntimed:trnsctrl.obj
 0001:00009360       __CatchGuardHandler        1000a360 f   libvcruntimed:trnsctrl.obj
 0001:000093b0       __CreateFrameInfo          1000a3b0 f   libvcruntimed:trnsctrl.obj
 0001:000093e0       __FindAndUnlinkFrame       1000a3e0 f   libvcruntimed:trnsctrl.obj
 0001:00009450       __TranslatorGuardHandler   1000a450 f   libvcruntimed:trnsctrl.obj
 0001:00009500       ___CxxFrameHandler         1000a500 f   libvcruntimed:trnsctrl.obj
 0001:00009540       ___CxxFrameHandler2        1000a540 f   libvcruntimed:trnsctrl.obj
 0001:00009580       ___CxxFrameHandler3        1000a580 f   libvcruntimed:trnsctrl.obj
 0001:000095c0       ___CxxLongjmpUnwind@4      1000a5c0 f   libvcruntimed:trnsctrl.obj
 0001:00009600       _memset                    1000a600 f   libvcruntimed:memset.obj
 0001:00009760       ___vcrt_initialize         1000a760 f   libvcruntimed:initialization.obj
 0001:000097a0       ___vcrt_thread_attach      1000a7a0 f   libvcruntimed:initialization.obj
 0001:000097c0       ___vcrt_thread_detach      1000a7c0 f   libvcruntimed:initialization.obj
 0001:000097e0       ___vcrt_uninitialize       1000a7e0 f   libvcruntimed:initialization.obj
 0001:00009800       ___vcrt_uninitialize_critical 1000a800 f   libvcruntimed:initialization.obj
 0001:00009880       __except_handler4          1000a880 f   libvcruntimed:chandler4.obj
 0001:00009a70       ___DestructExceptionObject 1000aa70 f   libvcruntimed:ehhelpers.obj
 0001:00009b90       ?_CallMemberFunction0@@YGXQAX0@Z 1000ab90 f i libvcruntimed:ehhelpers.obj
 0001:00009c30       ?raw_name@type_info@@QBEPBDXZ 1000ac30 f i libvcruntimed:ehhelpers.obj
 0001:00009c50       __IsExceptionObjectToBeDestroyed 1000ac50 f   libvcruntimed:ehhelpers.obj
 0001:00009c90       __SetWinRTOutOfMemoryExceptionCallback 1000ac90 f   libvcruntimed:ehhelpers.obj
 0001:00009ca0       ___AdjustPointer           1000aca0 f   libvcruntimed:ehhelpers.obj
 0001:00009cf0       ___FrameUnwindFilter       1000acf0 f   libvcruntimed:ehhelpers.obj
 0001:00009d80       ___GetPlatformExceptionInfo 1000ad80 f   libvcruntimed:ehhelpers.obj
 0001:00009e00       ___current_exception       1000ae00 f   libvcruntimed:ehhelpers.obj
 0001:00009e10       ___current_exception_context 1000ae10 f   libvcruntimed:ehhelpers.obj
 0001:00009e20       ___processing_throw        1000ae20 f   libvcruntimed:ehhelpers.obj
 0001:00009e30       ___std_terminate           1000ae30 f   libvcruntimed:ehhelpers.obj
 0001:00009e40       __is_exception_typeof      1000ae40 f   libvcruntimed:ehhelpers.obj
 0001:00009f40       ??$?RD@__crt_internal_free_policy@@QBEXQBD@Z 1000af40 f i libvcruntimed:std_type_info.obj
 0001:00009f60       ??$?RX@__crt_internal_free_policy@@QBEXQBX@Z 1000af60 f i libvcruntimed:std_type_info.obj
 0001:00009f80       ??$__crt_interlocked_compare_exchange_pointer@$$CBDPAD$$T@@YAPBDPDSBDQAD$$T@Z 1000af80 f i libvcruntimed:std_type_info.obj
 0001:00009fa0       ??$__crt_interlocked_read_pointer@$$CBD@@YAPBDPDSBD@Z 1000afa0 f i libvcruntimed:std_type_info.obj
 0001:00009fc0       ??0?$__crt_unique_heap_ptr@DU__crt_internal_free_policy@@@@QAE@QAD@Z 1000afc0 f i libvcruntimed:std_type_info.obj
 0001:00009fe0       ??0?$__crt_unique_heap_ptr@XU__crt_internal_free_policy@@@@QAE@QAX@Z 1000afe0 f i libvcruntimed:std_type_info.obj
 0001:0000a000       ??1?$__crt_unique_heap_ptr@DU__crt_internal_free_policy@@@@QAE@XZ 1000b000 f i libvcruntimed:std_type_info.obj
 0001:0000a020       ??1?$__crt_unique_heap_ptr@XU__crt_internal_free_policy@@@@QAE@XZ 1000b020 f i libvcruntimed:std_type_info.obj
 0001:0000a040       ??B?$__crt_unique_heap_ptr@DU__crt_internal_free_policy@@@@QBE_NXZ 1000b040 f i libvcruntimed:std_type_info.obj
 0001:0000a060       ??B?$__crt_unique_heap_ptr@XU__crt_internal_free_policy@@@@QBE_NXZ 1000b060 f i libvcruntimed:std_type_info.obj
 0001:0000a0f0       ?__crt_interlocked_read_32@@YAHPDH@Z 1000b0f0 f i libvcruntimed:std_type_info.obj
 0001:0000a110       ?detach@?$__crt_unique_heap_ptr@XU__crt_internal_free_policy@@@@QAEPAXXZ 1000b110 f i libvcruntimed:std_type_info.obj
 0001:0000a140       ?get@?$__crt_unique_heap_ptr@DU__crt_internal_free_policy@@@@QBEPADXZ 1000b140 f i libvcruntimed:std_type_info.obj
 0001:0000a150       ?get@?$__crt_unique_heap_ptr@XU__crt_internal_free_policy@@@@QBEPAXXZ 1000b150 f i libvcruntimed:std_type_info.obj
 0001:0000a160       ?is_valid@?$__crt_unique_heap_ptr@DU__crt_internal_free_policy@@@@QBE_NXZ 1000b160 f i libvcruntimed:std_type_info.obj
 0001:0000a190       ?is_valid@?$__crt_unique_heap_ptr@XU__crt_internal_free_policy@@@@QBE_NXZ 1000b190 f i libvcruntimed:std_type_info.obj
 0001:0000a1c0       ?release@?$__crt_unique_heap_ptr@DU__crt_internal_free_policy@@@@QAEXXZ 1000b1c0 f i libvcruntimed:std_type_info.obj
 0001:0000a1f0       ?release@?$__crt_unique_heap_ptr@XU__crt_internal_free_policy@@@@QAEXXZ 1000b1f0 f i libvcruntimed:std_type_info.obj
 0001:0000a220       ___std_type_info_compare   1000b220 f   libvcruntimed:std_type_info.obj
 0001:0000a250       ___std_type_info_destroy_list 1000b250 f   libvcruntimed:std_type_info.obj
 0001:0000a290       ___std_type_info_hash      1000b290 f   libvcruntimed:std_type_info.obj
 0001:0000a2f0       ___std_type_info_name      1000b2f0 f   libvcruntimed:std_type_info.obj
 0001:0000a4d0       ??$?RU__vcrt_ptd@@@__crt_internal_free_policy@@QBEXQBU__vcrt_ptd@@@Z 1000b4d0 f i libvcruntimed:per_thread_data.obj
 0001:0000a4f0       ??0?$__crt_unique_heap_ptr@U__vcrt_ptd@@U__crt_internal_free_policy@@@@QAE@QAU__vcrt_ptd@@@Z 1000b4f0 f i libvcruntimed:per_thread_data.obj
 0001:0000a530       ??1?$__crt_unique_heap_ptr@U__vcrt_ptd@@U__crt_internal_free_policy@@@@QAE@XZ 1000b530 f i libvcruntimed:per_thread_data.obj
 0001:0000a570       ??B?$__crt_unique_heap_ptr@U__vcrt_ptd@@U__crt_internal_free_policy@@@@QBE_NXZ 1000b570 f i libvcruntimed:per_thread_data.obj
 0001:0000a590       ?detach@?$__crt_unique_heap_ptr@U__vcrt_ptd@@U__crt_internal_free_policy@@@@QAEPAU__vcrt_ptd@@XZ 1000b590 f i libvcruntimed:per_thread_data.obj
 0001:0000a5c0       ?get@?$__crt_unique_heap_ptr@U__vcrt_ptd@@U__crt_internal_free_policy@@@@QBEPAU__vcrt_ptd@@XZ 1000b5c0 f i libvcruntimed:per_thread_data.obj
 0001:0000a5d0       ?is_valid@?$__crt_unique_heap_ptr@U__vcrt_ptd@@U__crt_internal_free_policy@@@@QBE_NXZ 1000b5d0 f i libvcruntimed:per_thread_data.obj
 0001:0000a600       ?release@?$__crt_unique_heap_ptr@U__vcrt_ptd@@U__crt_internal_free_policy@@@@QAEXXZ 1000b600 f i libvcruntimed:per_thread_data.obj
 0001:0000a660       ___vcrt_freefls@4          1000b660 f   libvcruntimed:per_thread_data.obj
 0001:0000a690       ___vcrt_freeptd            1000b690 f   libvcruntimed:per_thread_data.obj
 0001:0000a6f0       ___vcrt_getptd             1000b6f0 f   libvcruntimed:per_thread_data.obj
 0001:0000a710       ___vcrt_getptd_noexit      1000b710 f   libvcruntimed:per_thread_data.obj
 0001:0000a870       ___vcrt_getptd_noinit      1000b870 f   libvcruntimed:per_thread_data.obj
 0001:0000a8d0       ___vcrt_initialize_ptd     1000b8d0 f   libvcruntimed:per_thread_data.obj
 0001:0000a920       ___vcrt_uninitialize_ptd   1000b920 f   libvcruntimed:per_thread_data.obj
 0001:0000b4a0       ??$TypeMatchHelper@V__FrameHandler3@@@@YAHPBU_s_HandlerType@@PBU_s_CatchableType@@PBU_s_ThrowInfo@@@Z 1000c4a0 f i libvcruntimed:frame.obj
 0001:0000b580       ??$__InternalCxxFrameHandler@V__FrameHandler3@@@@YA?AW4_EXCEPTION_DISPOSITION@@PAUEHExceptionRecord@@PAUEHRegistrationNode@@PAU_CONTEXT@@PAXPBU_s_FuncInfo@@H1E@Z 1000c580 f i libvcruntimed:frame.obj
 0001:0000b740       ??0HandlerMap@__FrameHandler3@@QAE@PBU_s_TryBlockMapEntry@@II@Z 1000c740 f i libvcruntimed:frame.obj
 0001:0000b770       ??0TryBlockMap@__FrameHandler3@@QAE@PBU_s_FuncInfo@@I@Z 1000c770 f i libvcruntimed:frame.obj
 0001:0000b7a0       ??0bad_exception@std@@QAE@ABV01@@Z 1000c7a0 f i libvcruntimed:frame.obj
 0001:0000b7d0       ??0bad_exception@std@@QAE@XZ 1000c7d0 f i libvcruntimed:frame.obj
 0001:0000b800       ??0iterator@HandlerMap@__FrameHandler3@@QAE@AAV12@I@Z 1000c800 f i libvcruntimed:frame.obj
 0001:0000b830       ??1bad_exception@std@@UAE@XZ 1000c830 f i libvcruntimed:frame.obj
 0001:0000b850       ??8iterator@HandlerMap@__FrameHandler3@@QBE_NABV012@@Z 1000c850 f i libvcruntimed:frame.obj
 0001:0000b880       ??8type_info@@QBE_NABV0@@Z 1000c880 f i libvcruntimed:frame.obj
 0001:0000b8c0       ??9iterator@HandlerMap@__FrameHandler3@@QBE_NABV012@@Z 1000c8c0 f i libvcruntimed:frame.obj
 0001:0000b900       ??Diterator@HandlerMap@__FrameHandler3@@QAE?BU_s_HandlerType@@XZ 1000c900 f i libvcruntimed:frame.obj
 0001:0000b940       ??Diterator@TryBlockMap@__FrameHandler3@@QAE?BU_s_TryBlockMapEntry@@XZ 1000c940 f i libvcruntimed:frame.obj
 0001:0000b990       ??Eiterator@HandlerMap@__FrameHandler3@@QAEAAV012@XZ 1000c990 f i libvcruntimed:frame.obj
 0001:0000b9b0       ??Eiterator@TryBlockMap@__FrameHandler3@@QAEAAV012@XZ 1000c9b0 f i libvcruntimed:frame.obj
 0001:0000b9d0       ??Miterator@TryBlockMap@__FrameHandler3@@QBE_NABV012@@Z 1000c9d0 f i libvcruntimed:frame.obj
 0001:0000ba00       ??_Gbad_exception@std@@UAEPAXI@Z 1000ca00 f i libvcruntimed:frame.obj
 0001:0000ba00       ??_Ebad_exception@std@@UAEPAXI@Z 1000ca00 f i libvcruntimed:frame.obj
 0001:0000ba30       ?BuildCatchObject@__FrameHandler3@@SAXPAUEHExceptionRecord@@PAXPBU_s_HandlerType@@PBU_s_CatchableType@@@Z 1000ca30 f   libvcruntimed:frame.obj
 0001:0000ba50       ?BuildCatchObjectHelper@__FrameHandler3@@SAHPAUEHExceptionRecord@@PAXPBU_s_HandlerType@@PBU_s_CatchableType@@@Z 1000ca50 f   libvcruntimed:frame.obj
 0001:0000bdf0       ?FrameUnwindToEmptyState@__FrameHandler3@@SAXPAUEHRegistrationNode@@PAXPBU_s_FuncInfo@@@Z 1000cdf0 f   libvcruntimed:frame.obj
 0001:0000be10       ?FrameUnwindToState@__FrameHandler3@@SAXPAUEHRegistrationNode@@PAXPBU_s_FuncInfo@@H@Z 1000ce10 f   libvcruntimed:frame.obj
 0001:0000bf90       ?GetMaxState@__FrameHandler3@@SAHPAXPBU_s_FuncInfo@@@Z 1000cf90 f i libvcruntimed:frame.obj
 0001:0000c0b0       ?TypeMatch@__FrameHandler3@@SAHPBU_s_HandlerType@@PBU_s_CatchableType@@PBU_s_ThrowInfo@@@Z 1000d0b0 f   libvcruntimed:frame.obj
 0001:0000c0d0       ?_CallMemberFunction1@@YGXQAX00@Z 1000d0d0 f i libvcruntimed:frame.obj
 0001:0000c100       ?_CallMemberFunction2@@YGXQAX00H@Z 1000d100 f i libvcruntimed:frame.obj
 0001:0000c130       ?begin@HandlerMap@__FrameHandler3@@QAE?AViterator@12@XZ 1000d130 f i libvcruntimed:frame.obj
 0001:0000c150       ?end@HandlerMap@__FrameHandler3@@QAE?AViterator@12@XZ 1000d150 f i libvcruntimed:frame.obj
 0001:0000c180       ?getESTypes@__FrameHandler3@@SAPBU_s_ESTypeList@@PBU_s_FuncInfo@@@Z 1000d180 f i libvcruntimed:frame.obj
 0001:0000c190       ?getLastEntry@HandlerMap@__FrameHandler3@@QAEPBU_s_HandlerType@@XZ 1000d190 f i libvcruntimed:frame.obj
 0001:0000c1b0       ?getMagicNum@__FrameHandler3@@SAIPBU_s_FuncInfo@@@Z 1000d1b0 f i libvcruntimed:frame.obj
 0001:0000c1c0       ?getNumTryBlocks@TryBlockMap@__FrameHandler3@@QAEIXZ 1000d1c0 f i libvcruntimed:frame.obj
 0001:0000c1e0       ?isEHs@__FrameHandler3@@SA_NPBU_s_FuncInfo@@@Z 1000d1e0 f i libvcruntimed:frame.obj
 0001:0000c210       ?isNoExcept@__FrameHandler3@@SA_NPBU_s_FuncInfo@@@Z 1000d210 f i libvcruntimed:frame.obj
 0001:0000c240       ___BuildCatchObject        1000d240 f   libvcruntimed:frame.obj
 0001:0000c260       ___BuildCatchObjectHelper  1000d260 f   libvcruntimed:frame.obj
 0001:0000c280       ___TypeMatch               1000d280 f   libvcruntimed:frame.obj
 0001:0000c2a0       ___vcrt_EncodePointer      1000d2a0 f i libvcruntimed:frame.obj
 0001:0000c2b0       __CallSettingFrame@12      1000d2b0 f   libvcruntimed:lowhelpr.obj
 0001:0000c2d7       __NLG_Return               1000d2d7     libvcruntimed:lowhelpr.obj
 0001:0000c310       ___except_validate_context_record 1000d310 f   libvcruntimed:jbcxrval.obj
 0001:0000c360       ___except_validate_jump_buffer 1000d360 f   libvcruntimed:jbcxrval.obj
 0001:0000c380       ___except_validate_jump_buffer_common 1000d380 f i libvcruntimed:jbcxrval.obj
 0001:0000c3e0       ___vcrt_initialize_locks   1000d3e0 f   libvcruntimed:locks.obj
 0001:0000c440       ___vcrt_lock               1000d440 f   libvcruntimed:locks.obj
 0001:0000c460       ___vcrt_uninitialize_locks 1000d460 f   libvcruntimed:locks.obj
 0001:0000c4b0       ___vcrt_unlock             1000d4b0 f   libvcruntimed:locks.obj
 0001:0000c4d0       __local_unwind4            1000d4d0 f   libvcruntimed:exsup4.obj
 0001:0000c5c0       __seh_longjmp_unwind4@4    1000d5c0 f   libvcruntimed:exsup4.obj
 0001:0000c5f0       @_EH4_CallFilterFunc@8     1000d5f0 f   libvcruntimed:exsup4.obj
 0001:0000c610       @_EH4_TransferToHandler@8  1000d610 f   libvcruntimed:exsup4.obj
 0001:0000c630       @_EH4_GlobalUnwind2@8      1000d630 f   libvcruntimed:exsup4.obj
 0001:0000c650       @_EH4_LocalUnwind@16       1000d650 f   libvcruntimed:exsup4.obj
 0001:0000c670       ??$?0$00@DName@@QAE@PBDU?$StringLifeSelector@$00@@@Z 1000d670 f i libvcruntimed:undname.obj
 0001:0000c6c0       ??$?0$00@pcharNode@@QAE@PBDHU?$StringLifeSelector@$00@@@Z 1000d6c0 f i libvcruntimed:undname.obj
 0001:0000c700       ??$?0$01@DName@@QAE@PBDU?$StringLifeSelector@$01@@@Z 1000d700 f i libvcruntimed:undname.obj
 0001:0000c750       ??$?0$01@pcharNode@@QAE@PBDHU?$StringLifeSelector@$01@@@Z 1000d750 f i libvcruntimed:undname.obj
 0001:0000c7d0       ??$?0$0A@@DName@@QAE@PBDU?$StringLifeSelector@$0A@@@@Z 1000d7d0 f i libvcruntimed:undname.obj
 0001:0000c820       ??$?0$0A@@pcharNode@@QAE@PBDHU?$StringLifeSelector@$0A@@@@Z 1000d820 f i libvcruntimed:undname.obj
 0001:0000c8a0       ??$?0_K$0A@@?$optional@_K@std@@QAE@$$QA_K@Z 1000d8a0 f i libvcruntimed:undname.obj
 0001:0000c8e0       ??$?0_K@?$_Optional_construct_base@_K@std@@QAE@Uin_place_t@1@$$QA_K@Z 1000d8e0 f i libvcruntimed:undname.obj
 0001:0000c910       ??$?0_K@?$_Optional_destruct_base@_K$00@std@@QAE@Uin_place_t@1@$$QA_K@Z 1000d910 f i libvcruntimed:undname.obj
 0001:0000c940       ??$append@VDNameNode@@@DName@@AAEXPBVDNameNode@@@Z 1000d940 f i libvcruntimed:undname.obj
 0001:0000c9d0       ??$append@VDNameStatusNode@@@DName@@AAEXPBVDNameStatusNode@@@Z 1000d9d0 f i libvcruntimed:undname.obj
 0001:0000ca60       ??$append@VcharNode@@@DName@@AAEXPBVcharNode@@@Z 1000da60 f i libvcruntimed:undname.obj
 0001:0000caf0       ??$append@VpDNameNode@@@DName@@AAEXPBVpDNameNode@@@Z 1000daf0 f i libvcruntimed:undname.obj
 0001:0000cb80       ??$append@VpcharNode@@@DName@@AAEXPBVpcharNode@@@Z 1000db80 f i libvcruntimed:undname.obj
 0001:0000cc10       ??$doPchar@$00@DName@@AAEXPBDH@Z 1000dc10 f i libvcruntimed:undname.obj
 0001:0000cd20       ??$doPchar@$01@DName@@AAEXPBDH@Z 1000dd20 f i libvcruntimed:undname.obj
 0001:0000ce30       ??$doPchar@$0A@@DName@@AAEXPBDH@Z 1000de30 f i libvcruntimed:undname.obj
 0001:0000cf40       ??$forward@_K@std@@YA$$QA_KAA_K@Z 1000df40 f i libvcruntimed:undname.obj
 0001:0000cf50       ??$size@D$04@std@@YAIAAY04$$CBD@Z 1000df50 f i libvcruntimed:undname.obj
 0001:0000cf60       ??$size@D$0EB@@std@@YAIAAY0EB@$$CBD@Z 1000df60 f i libvcruntimed:undname.obj
 0001:0000cf70       ??0?$_Optional_construct_base@_K@std@@QAE@XZ 1000df70 f i libvcruntimed:undname.obj
 0001:0000cf90       ??0?$_Optional_destruct_base@_K$00@std@@QAE@XZ 1000df90 f i libvcruntimed:undname.obj
 0001:0000cfb0       ??0?$optional@_K@std@@QAE@XZ 1000dfb0 f i libvcruntimed:undname.obj
 0001:0000cfd0       ??0Block@_HeapManager@@QAE@XZ 1000dfd0 f i libvcruntimed:undname.obj
 0001:0000cff0       ??0DName@@QAE@AAPBDD@Z     1000dff0 f   libvcruntimed:undname.obj
 0001:0000d160       ??0DName@@QAE@ABUStringLiteral@@@Z 1000e160 f   libvcruntimed:undname.obj
 0001:0000d1b0       ??0DName@@QAE@ABV0@@Z      1000e1b0 f i libvcruntimed:undname.obj
 0001:0000d1e0       ??0DName@@QAE@D@Z          1000e1e0 f   libvcruntimed:undname.obj
 0001:0000d210       ??0DName@@QAE@PAV0@@Z      1000e210 f   libvcruntimed:undname.obj
 0001:0000d2c0       ??0DName@@QAE@W4DNameStatus@@@Z 1000e2c0 f   libvcruntimed:undname.obj
 0001:0000d360       ??0DName@@QAE@XZ           1000e360 f i libvcruntimed:undname.obj
 0001:0000d390       ??0DName@@QAE@_J@Z         1000e390 f   libvcruntimed:undname.obj
 0001:0000d480       ??0DName@@QAE@_K@Z         1000e480 f   libvcruntimed:undname.obj
 0001:0000d530       ??0DNameNode@@IAE@XZ       1000e530 f i libvcruntimed:undname.obj
 0001:0000d550       ??0Replicator@@QAE@XZ      1000e550 f i libvcruntimed:undname.obj
 0001:0000d590       ??0UnDecorator@@QAE@PBDP6APADJ@ZK@Z 1000e590 f i libvcruntimed:undname.obj
 0001:0000d610       ??0_Nontrivial_dummy_type@std@@QAE@XZ 1000e610 f i libvcruntimed:undname.obj
 0001:0000d620       ??0charNode@@QAE@D@Z       1000e620 f i libvcruntimed:undname.obj
 0001:0000d650       ??0pDNameNode@@QAE@PAVDName@@@Z 1000e650 f   libvcruntimed:undname.obj
 0001:0000d6b0       ??0pairNode@@QAE@PBVDNameNode@@0@Z 1000e6b0 f i libvcruntimed:undname.obj
 0001:0000d710       ??2@YAPAXIAAV_HeapManager@@H@Z 1000e710 f   libvcruntimed:undname.obj
 0001:0000d750       ??4DName@@QAEAAV0@ABUStringLiteral@@@Z 1000e750 f   libvcruntimed:undname.obj
 0001:0000d790       ??4DName@@QAEAAV0@ABV0@@Z  1000e790 f   libvcruntimed:undname.obj
 0001:0000d7c0       ??4DName@@QAEAAV0@D@Z      1000e7c0 f i libvcruntimed:undname.obj
 0001:0000d7f0       ??4DName@@QAEAAV0@PAV0@@Z  1000e7f0 f   libvcruntimed:undname.obj
 0001:0000d890       ??4DName@@QAEAAV0@W4DNameStatus@@@Z 1000e890 f   libvcruntimed:undname.obj
 0001:0000d910       ??AReplicator@@QBE?AVDName@@H@Z 1000e910 f   libvcruntimed:undname.obj
 0001:0000d980       ??B?$optional@_K@std@@QBE_NXZ 1000e980 f i libvcruntimed:undname.obj
 0001:0000d9a0       ??D?$optional@_K@std@@QGAEAA_KXZ 1000e9a0 f i libvcruntimed:undname.obj
 0001:0000da10       ??H@YA?AVDName@@ABUStringLiteral@@ABV0@@Z 1000ea10 f i libvcruntimed:undname.obj
 0001:0000da40       ??H@YA?AVDName@@DABV0@@Z   1000ea40 f i libvcruntimed:undname.obj
 0001:0000da70       ??H@YA?AVDName@@W4DNameStatus@@ABV0@@Z 1000ea70 f i libvcruntimed:undname.obj
 0001:0000daa0       ??HDName@@QBE?AV0@ABUStringLiteral@@@Z 1000eaa0 f   libvcruntimed:undname.obj
 0001:0000dae0       ??HDName@@QBE?AV0@ABV0@@Z  1000eae0 f   libvcruntimed:undname.obj
 0001:0000db20       ??HDName@@QBE?AV0@D@Z      1000eb20 f   libvcruntimed:undname.obj
 0001:0000db60       ??HDName@@QBE?AV0@PAV0@@Z  1000eb60 f   libvcruntimed:undname.obj
 0001:0000dba0       ??HDName@@QBE?AV0@W4DNameStatus@@@Z 1000eba0 f   libvcruntimed:undname.obj
 0001:0000dbe0       ??HStringLiteral@@QBE?AU0@H@Z 1000ebe0 f i libvcruntimed:undname.obj
 0001:0000dc10       ??YDName@@QAEAAV0@ABUStringLiteral@@@Z 1000ec10 f   libvcruntimed:undname.obj
 0001:0000dcb0       ??YDName@@QAEAAV0@ABV0@@Z  1000ecb0 f   libvcruntimed:undname.obj
 0001:0000dd50       ??YDName@@QAEAAV0@D@Z      1000ed50 f   libvcruntimed:undname.obj
 0001:0000ddd0       ??YDName@@QAEAAV0@PAV0@@Z  1000edd0 f   libvcruntimed:undname.obj
 0001:0000de80       ??YDName@@QAEAAV0@W4DNameStatus@@@Z 1000ee80 f   libvcruntimed:undname.obj
 0001:0000dee0       ??YReplicator@@QAEAAV0@ABVDName@@@Z 1000eee0 f   libvcruntimed:undname.obj
 0001:0000df70       ??_5DName@@QAEAAV0@ABV0@@Z 1000ef70 f   libvcruntimed:undname.obj
 0001:0000dfd0       ??__K_l@@YA?AUStringLiteral@@PBDI@Z 1000efd0 f i libvcruntimed:undname.obj
 0001:0000dff0       ?Constructor@_HeapManager@@QAEXP6APAXI@ZP6AXPAX@Z@Z 1000eff0 f i libvcruntimed:undname.obj
 0001:0000e030       ?Destructor@_HeapManager@@QAEXXZ 1000f030 f i libvcruntimed:undname.obj
 0001:0000e0a0       ?UScore@UnDecorator@@SA?AUStringLiteral@@W4Tokens@@@Z 1000f0a0 f   libvcruntimed:undname.obj
 0001:0000e0f0       ?composeDeclaration@UnDecorator@@CA?AVDName@@ABV2@@Z 1000f0f0 f i libvcruntimed:undname.obj
 0001:00010060       ?dbGetString@DName@@QBEPADXZ 10011060 f   libvcruntimed:undname.obj
 0001:00010080       ?doAccessSpecifiers@UnDecorator@@SAHXZ 10011080 f i libvcruntimed:undname.obj
 0001:000100b0       ?doAllocationLanguage@UnDecorator@@SAHXZ 100110b0 f i libvcruntimed:undname.obj
 0001:000100e0       ?doAllocationModel@UnDecorator@@SAHXZ 100110e0 f i libvcruntimed:undname.obj
 0001:00010110       ?doEcsu@UnDecorator@@SAHXZ 10011110 f i libvcruntimed:undname.obj
 0001:00010140       ?doEllipsis@UnDecorator@@SAHXZ 10011140 f i libvcruntimed:undname.obj
 0001:00010170       ?doFunctionReturns@UnDecorator@@SAHXZ 10011170 f i libvcruntimed:undname.obj
 0001:000101a0       ?doMSKeywords@UnDecorator@@SAHXZ 100111a0 f i libvcruntimed:undname.obj
 0001:000101d0       ?doMemberTypes@UnDecorator@@SAHXZ 100111d0 f i libvcruntimed:undname.obj
 0001:00010200       ?doNameOnly@UnDecorator@@SAHXZ 10011200 f i libvcruntimed:undname.obj
 0001:00010210       ?doNoIdentCharCheck@UnDecorator@@SAHXZ 10011210 f i libvcruntimed:undname.obj
 0001:00010220       ?doPchar@DName@@AAEXD@Z    10011220 f   libvcruntimed:undname.obj
 0001:00010290       ?doPtr64@UnDecorator@@SAHXZ 10011290 f i libvcruntimed:undname.obj
 0001:000102c0       ?doRestrictionSpec@UnDecorator@@SAHXZ 100112c0 f i libvcruntimed:undname.obj
 0001:000102f0       ?doThisTypes@UnDecorator@@SAHXZ 100112f0 f i libvcruntimed:undname.obj
 0001:00010320       ?doThrowTypes@UnDecorator@@SAHXZ 10011320 f i libvcruntimed:undname.obj
 0001:00010350       ?doTypeOnly@UnDecorator@@SAHXZ 10011350 f i libvcruntimed:undname.obj
 0001:00010360       ?doUnderScore@UnDecorator@@SAHXZ 10011360 f i libvcruntimed:undname.obj
 0001:00010390       ?getAddressOf@UnDecorator@@CA?AVDName@@XZ 10011390 f   libvcruntimed:undname.obj
 0001:00010410       ?getArgumentList@UnDecorator@@CA?AVDName@@XZ 10011410 f   libvcruntimed:undname.obj
 0001:00010560       ?getArgumentTypes@UnDecorator@@CA?AVDName@@XZ 10011560 f   libvcruntimed:undname.obj
 0001:00010770       ?getArrayAccess@UnDecorator@@CA?AVDName@@XZ 10011770 f   libvcruntimed:undname.obj
 0001:00010810       ?getArrayObject@UnDecorator@@CA?AVDName@@XZ 10011810 f   libvcruntimed:undname.obj
 0001:000108f0       ?getArrayType@UnDecorator@@CA?AVDName@@ABV2@@Z 100118f0 f i libvcruntimed:undname.obj
 0001:00010b90       ?getBasedType@UnDecorator@@CA?AVDName@@XZ 10011b90 f   libvcruntimed:undname.obj
 0001:00010c80       ?getBasicDataType@UnDecorator@@CA?AVDName@@ABV2@@Z 10011c80 f   libvcruntimed:undname.obj
 0001:000115f0       ?getCHPEName@UnDecorator@@QAEPADPADH@Z 100125f0 f i libvcruntimed:undname.obj
 0001:00011750       ?getCallIndex@UnDecorator@@CA?AVDName@@XZ 10012750 f i libvcruntimed:undname.obj
 0001:00011770       ?getCallingConvention@UnDecorator@@CA?AVDName@@XZ 10012770 f   libvcruntimed:undname.obj
 0001:000119b0       ?getDataIndirectType@UnDecorator@@CA?AVDName@@ABV2@W4IndirectionKind@@0H@Z 100129b0 f   libvcruntimed:undname.obj
 0001:000122d0       ?getDataIndirectType@UnDecorator@@CA?AVDName@@XZ 100132d0 f i libvcruntimed:undname.obj
 0001:00012310       ?getDataType@UnDecorator@@CA?AVDName@@PAV2@@Z 10013310 f   libvcruntimed:undname.obj
 0001:00012450       ?getDecoratedName@UnDecorator@@CA?AVDName@@XZ 10013450 f   libvcruntimed:undname.obj
 0001:00012890       ?getDimension@UnDecorator@@CA?AVDName@@_N@Z 10013890 f   libvcruntimed:undname.obj
 0001:00012af0       ?getDispatchTarget@UnDecorator@@CA?AVDName@@XZ 10013af0 f   libvcruntimed:undname.obj
 0001:00012b90       ?getDisplacement@UnDecorator@@CA?AVDName@@XZ 10013b90 f i libvcruntimed:undname.obj
 0001:00012bb0       ?getECSUDataType@UnDecorator@@CA?AVDName@@XZ 10013bb0 f   libvcruntimed:undname.obj
 0001:00012e10       ?getECSUName@UnDecorator@@CA?AVDName@@XZ 10013e10 f i libvcruntimed:undname.obj
 0001:00012e30       ?getEnumType@UnDecorator@@CA?AVDName@@XZ 10013e30 f i libvcruntimed:undname.obj
 0001:00013000       ?getExtendedDataIndirectType@UnDecorator@@CA?AVDName@@AAW4IndirectionKind@@AA_NH@Z 10014000 f   libvcruntimed:undname.obj
 0001:00013250       ?getExternalDataType@UnDecorator@@CA?AVDName@@ABV2@@Z 10014250 f i libvcruntimed:undname.obj
 0001:000132f0       ?getFloatingPoint@UnDecorator@@CA?AVDName@@H@Z 100142f0 f   libvcruntimed:undname.obj
 0001:000134b0       ?getFunctionIndirectType@UnDecorator@@CA?AVDName@@ABV2@@Z 100144b0 f   libvcruntimed:undname.obj
 0001:00013990       ?getGuardNumber@UnDecorator@@CA?AVDName@@XZ 10014990 f i libvcruntimed:undname.obj
 0001:000139b0       ?getLastChar@DName@@QBEDXZ 100149b0 f i libvcruntimed:undname.obj
 0001:000139f0       ?getLastChar@DNameStatusNode@@UBEDXZ 100149f0 f i libvcruntimed:undname.obj
 0001:00013a20       ?getLastChar@charNode@@UBEDXZ 10014a20 f i libvcruntimed:undname.obj
 0001:00013a40       ?getLastChar@pDNameNode@@UBEDXZ 10014a40 f i libvcruntimed:undname.obj
 0001:00013a70       ?getLastChar@pairNode@@UBEDXZ 10014a70 f i libvcruntimed:undname.obj
 0001:00013ae0       ?getLastChar@pcharNode@@UBEDXZ 10014ae0 f i libvcruntimed:undname.obj
 0001:00013b20       ?getLexicalFrame@UnDecorator@@CA?AVDName@@XZ 10014b20 f i libvcruntimed:undname.obj
 0001:00013b60       ?getMemberAccess@UnDecorator@@CA?AVDName@@XZ 10014b60 f   libvcruntimed:undname.obj
 0001:00013bf0       ?getMemoryWithBuffer@_HeapManager@@QAEPAXI@Z 10014bf0 f   libvcruntimed:undname.obj
 0001:00013ce0       ?getMemoryWithoutBuffer@_HeapManager@@QAEPAXI@Z 10014ce0 f   libvcruntimed:undname.obj
 0001:00013d20       ?getNoexcept@UnDecorator@@CA?AVDName@@XZ 10014d20 f   libvcruntimed:undname.obj
 0001:00013da0       ?getNumberOfDimensions@UnDecorator@@CAHXZ 10014da0 f   libvcruntimed:undname.obj
 0001:00013eb0       ?getOperatorName@UnDecorator@@CA?AVDName@@_NPA_N@Z 10014eb0 f i libvcruntimed:undname.obj
 0001:000149b0       ?getPointerToMember@UnDecorator@@CA?AVDName@@XZ 100159b0 f   libvcruntimed:undname.obj
 0001:00014aa0       ?getPointerType@UnDecorator@@CA?AVDName@@ABV2@0@Z 10015aa0 f i libvcruntimed:undname.obj
 0001:00014ac0       ?getPointerTypeArray@UnDecorator@@CA?AVDName@@ABV2@0@Z 10015ac0 f i libvcruntimed:undname.obj
 0001:00014ae0       ?getPrimaryDataType@UnDecorator@@CA?AVDName@@ABV2@@Z 10015ae0 f   libvcruntimed:undname.obj
 0001:00014f70       ?getPtrRefDataType@UnDecorator@@CA?AVDName@@ABV2@H@Z 10015f70 f   libvcruntimed:undname.obj
 0001:00015220       ?getPtrRefType@UnDecorator@@CA?AVDName@@ABV2@0W4IndirectionKind@@@Z 10016220 f   libvcruntimed:undname.obj
 0001:000153a0       ?getReferenceType@UnDecorator@@CA?AVDName@@ABV2@0W4IndirectionKind@@@Z 100163a0 f i libvcruntimed:undname.obj
 0001:000153c0       ?getRestrictionSpec@UnDecorator@@CA?AVDName@@XZ 100163c0 f   libvcruntimed:undname.obj
 0001:00015580       ?getReturnType@UnDecorator@@CA?AVDName@@PAV2@@Z 10016580 f   libvcruntimed:undname.obj
 0001:000155d0       ?getScope@UnDecorator@@CA?AVDName@@XZ 100165d0 f   libvcruntimed:undname.obj
 0001:00015b60       ?getScopedName@UnDecorator@@CA?AVDName@@XZ 10016b60 f   libvcruntimed:undname.obj
 0001:00015cb0       ?getSignedDimension@UnDecorator@@CA?AVDName@@XZ 10016cb0 f   libvcruntimed:undname.obj
 0001:00015d30       ?getStorageConvention@UnDecorator@@CA?AVDName@@XZ 10016d30 f i libvcruntimed:undname.obj
 0001:00015d50       ?getString@DName@@QBEPADPAD0@Z 10016d50 f i libvcruntimed:undname.obj
 0001:00015db0       ?getString@DName@@QBEPADPADH@Z 10016db0 f i libvcruntimed:undname.obj
 0001:00015e40       ?getString@DNameStatusNode@@UBEPADPAD0@Z 10016e40 f i libvcruntimed:undname.obj
 0001:00015e80       ?getString@charNode@@UBEPADPAD0@Z 10016e80 f i libvcruntimed:undname.obj
 0001:00015eb0       ?getString@pDNameNode@@UBEPADPAD0@Z 10016eb0 f i libvcruntimed:undname.obj
 0001:00015ef0       ?getString@pairNode@@UBEPADPAD0@Z 10016ef0 f i libvcruntimed:undname.obj
 0001:00015f80       ?getString@pcharNode@@UBEPADPAD0@Z 10016f80 f i libvcruntimed:undname.obj
 0001:00015fb0       ?getStringEncoding@UnDecorator@@CA?AVDName@@W4PrefixKind@@H@Z 10016fb0 f   libvcruntimed:undname.obj
 0001:000160c0       ?getStringHelper@@YAPADPADPBD1H@Z 100170c0 f i libvcruntimed:undname.obj
 0001:00016100       ?getStringObject@UnDecorator@@CA?AVDName@@XZ 10017100 f   libvcruntimed:undname.obj
 0001:000161b0       ?getSymbolName@UnDecorator@@CA?AVDName@@XZ 100171b0 f i libvcruntimed:undname.obj
 0001:00016240       ?getTemplateArgumentList@UnDecorator@@CA?AVDName@@XZ 10017240 f   libvcruntimed:undname.obj
 0001:00016530       ?getTemplateName@UnDecorator@@CA?AVDName@@_N@Z 10017530 f   libvcruntimed:undname.obj
 0001:000166f0       ?getTemplateNonTypeArgument@UnDecorator@@CA?AVDName@@XZ 100176f0 f   libvcruntimed:undname.obj
 0001:00016cf0       ?getTemplateTypeArgument@UnDecorator@@CA?AVDName@@XZ 10017cf0 f   libvcruntimed:undname.obj
 0001:00016e90       ?getThisType@UnDecorator@@CA?AVDName@@XZ 10017e90 f i libvcruntimed:undname.obj
 0001:00016ed0       ?getThrowTypes@UnDecorator@@CA?AVDName@@XZ 10017ed0 f   libvcruntimed:undname.obj
 0001:00016f10       ?getTypeEncoding@UnDecorator@@CAHXZ 10017f10 f i libvcruntimed:undname.obj
 0001:000179d0       ?getUndecoratedName@UnDecorator@@QAEPADPADH@Z 100189d0 f i libvcruntimed:undname.obj
 0001:00017b30       ?getUnionObject@UnDecorator@@CA?AVDName@@XZ 10018b30 f   libvcruntimed:undname.obj
 0001:00017c00       ?getVCallThunkType@UnDecorator@@CA?AVDName@@XZ 10018c00 f i libvcruntimed:undname.obj
 0001:00017c80       ?getValue@UnDecorator@@CA?AV?$optional@_K@std@@XZ 10018c80 f   libvcruntimed:undname.obj
 0001:00017d40       ?getValueObject@UnDecorator@@CA?AVDName@@XZ 10018d40 f   libvcruntimed:undname.obj
 0001:00017f20       ?getVbTableType@UnDecorator@@CA?AVDName@@ABV2@@Z 10018f20 f i libvcruntimed:undname.obj
 0001:00017f40       ?getVdispMapType@UnDecorator@@CA?AVDName@@ABV2@@Z 10018f40 f i libvcruntimed:undname.obj
 0001:00017fd0       ?getVfTableType@UnDecorator@@CA?AVDName@@ABV2@@Z 10018fd0 f i libvcruntimed:undname.obj
 0001:000181d0       ?getZName@UnDecorator@@CA?AVDName@@_N0@Z 100191d0 f   libvcruntimed:undname.obj
 0001:00018510       ?haveTemplateParameters@UnDecorator@@SAHXZ 10019510 f i libvcruntimed:undname.obj
 0001:00018520       ?isArray@DName@@QBEHXZ     10019520 f i libvcruntimed:undname.obj
 0001:00018540       ?isComArray@DName@@QBEHXZ  10019540 f i libvcruntimed:undname.obj
 0001:00018560       ?isEmpty@DName@@QBEHXZ     10019560 f i libvcruntimed:undname.obj
 0001:00018590       ?isFull@Replicator@@QBEHXZ 10019590 f i libvcruntimed:undname.obj
 0001:000185c0       ?isNoTE@DName@@QBEHXZ      100195c0 f i libvcruntimed:undname.obj
 0001:000185e0       ?isPinPtr@DName@@QBEHXZ    100195e0 f i libvcruntimed:undname.obj
 0001:00018600       ?isPtrRef@DName@@QBEHXZ    10019600 f i libvcruntimed:undname.obj
 0001:00018620       ?isUDC@DName@@QBEHXZ       10019620 f i libvcruntimed:undname.obj
 0001:00018660       ?isUDTThunk@DName@@QBEHXZ  10019660 f i libvcruntimed:undname.obj
 0001:000186a0       ?isVCallThunk@DName@@QBEHXZ 100196a0 f i libvcruntimed:undname.obj
 0001:000186c0       ?isValid@DName@@QBEHXZ     100196c0 f i libvcruntimed:undname.obj
 0001:00018700       ?length@DName@@QBEHXZ      10019700 f i libvcruntimed:undname.obj
 0001:00018740       ?length@DNameStatusNode@@UBEHXZ 10019740 f i libvcruntimed:undname.obj
 0001:00018760       ?length@charNode@@UBEHXZ   10019760 f i libvcruntimed:undname.obj
 0001:00018770       ?length@pDNameNode@@UBEHXZ 10019770 f i libvcruntimed:undname.obj
 0001:000187a0       ?length@pairNode@@UBEHXZ   100197a0 f i libvcruntimed:undname.obj
 0001:00018810       ?length@pcharNode@@UBEHXZ  10019810 f i libvcruntimed:undname.obj
 0001:00018830       ?make@DNameStatusNode@@SAPBV1@W4DNameStatus@@@Z 10019830 f i libvcruntimed:undname.obj
 0001:00018860       ?parseDecoratedName@UnDecorator@@CA?AVDName@@XZ 10019860 f   libvcruntimed:undname.obj
 0001:000189f0       ?raw_length@DNameStatusNode@@UBEHXZ 100199f0 f i libvcruntimed:undname.obj
 0001:00018a10       ?raw_length@charNode@@UBEHXZ 10019a10 f i libvcruntimed:undname.obj
 0001:00018a30       ?raw_length@pDNameNode@@UBEHXZ 10019a30 f i libvcruntimed:undname.obj
 0001:00018a40       ?raw_length@pairNode@@UBEHXZ 10019a40 f i libvcruntimed:undname.obj
 0001:00018a60       ?raw_length@pcharNode@@UBEHXZ 10019a60 f i libvcruntimed:undname.obj
 0001:00018a80       ?setIsArray@DName@@QAEXXZ  10019a80 f i libvcruntimed:undname.obj
 0001:00018aa0       ?setIsComArray@DName@@QAEXXZ 10019aa0 f i libvcruntimed:undname.obj
 0001:00018ac0       ?setIsNoTE@DName@@QAEXXZ   10019ac0 f i libvcruntimed:undname.obj
 0001:00018ae0       ?setIsPinPtr@DName@@QAEXXZ 10019ae0 f i libvcruntimed:undname.obj
 0001:00018b00       ?setIsUDC@DName@@QAEXXZ    10019b00 f i libvcruntimed:undname.obj
 0001:00018b30       ?setIsVCallThunk@DName@@QAEXXZ 10019b30 f i libvcruntimed:undname.obj
 0001:00018b50       ?setPtrRef@DName@@QAEAAV1@XZ 10019b50 f i libvcruntimed:undname.obj
 0001:00018b70       ?status@DName@@QBE?AW4DNameStatus@@XZ 10019b70 f i libvcruntimed:undname.obj
 0001:00018c70       ___unDName                 10019c70 f   libvcruntimed:undname.obj
 0001:00018ca0       ___unDNameEx               10019ca0 f   libvcruntimed:undname.obj
 0001:00018d70       __vsprintf_s_l             10019d70 f i libvcruntimed:undname.obj
 0001:00018dc0       _sprintf_s                 10019dc0 f i libvcruntimed:undname.obj
 0001:00018e00       _unDNameGenerateCHPE       10019e00 f   libvcruntimed:undname.obj
 0001:00018e60       ??$__crt_interlocked_exchange_pointer@UHINSTANCE__@@PAU1@@@YAPAUHINSTANCE__@@PDSAU0@QAU0@@Z 10019e60 f i libvcruntimed:winapi_downlevel.obj
 0001:00018e70       ??$__crt_interlocked_exchange_pointer@UHINSTANCE__@@PAX@@YAPAUHINSTANCE__@@PDSAU0@QAX@Z 10019e70 f i libvcruntimed:winapi_downlevel.obj
 0001:00018e80       ??$__crt_interlocked_exchange_pointer@XPAX@@YAPAXPDSAXQAX@Z 10019e80 f i libvcruntimed:winapi_downlevel.obj
 0001:00018e90       ??$__crt_interlocked_read_pointer@UHINSTANCE__@@@@YAPAUHINSTANCE__@@PDSAU0@@Z 10019e90 f i libvcruntimed:winapi_downlevel.obj
 0001:00018eb0       ??$__crt_interlocked_read_pointer@X@@YAPAXPDSAX@Z 10019eb0 f i libvcruntimed:winapi_downlevel.obj
 0001:00019280       ___vcrt_FlsAlloc           1001a280 f   libvcruntimed:winapi_downlevel.obj
 0001:000192c0       ___vcrt_FlsFree            1001a2c0 f   libvcruntimed:winapi_downlevel.obj
 0001:00019300       ___vcrt_FlsGetValue        1001a300 f   libvcruntimed:winapi_downlevel.obj
 0001:00019340       ___vcrt_FlsSetValue        1001a340 f   libvcruntimed:winapi_downlevel.obj
 0001:00019390       ___vcrt_InitializeCriticalSectionEx 1001a390 f   libvcruntimed:winapi_downlevel.obj
 0001:00019410       __get_unexpected           1001a410 f   libvcruntimed:unexpected.obj
 0001:00019430       _set_unexpected            1001a430 f   libvcruntimed:unexpected.obj
 0001:00019460       _unexpected                1001a460 f   libvcruntimed:unexpected.obj
 0001:000194a0       _memmove                   1001a4a0 f   libvcruntimed:memmove.obj
 0001:00019a20       ?GetCurrentState@__FrameHandler3@@SAHPAUEHRegistrationNode@@PAXPBU_s_FuncInfo@@@Z 1001aa20 f   libvcruntimed:ehstate.obj
 0001:00019a50       ?SetState@__FrameHandler3@@SAXPAUEHRegistrationNode@@PBU_s_FuncInfo@@H@Z 1001aa50 f   libvcruntimed:ehstate.obj
 0001:00019a60       __global_unwind2           1001aa60 f   libvcruntimed:exsup.obj
 0001:00019ae0       __local_unwind2            1001aae0 f   libvcruntimed:exsup.obj
 0001:00019b80       __abnormal_termination     1001ab80 f   libvcruntimed:exsup.obj
 0001:00019bb0       __NLG_Notify1              1001abb0 f   libvcruntimed:exsup.obj
 0001:00019bc0       __NLG_Notify               1001abc0 f   libvcruntimed:exsup.obj
 0001:00019bd7       __NLG_Dispatch2            1001abd7     libvcruntimed:exsup.obj
 0001:00019bd7       __NLG_Dispatch             1001abd7     libvcruntimed:exsup.obj
 0001:00019be0       __NLG_Call                 1001abe0 f   libvcruntimed:exsup.obj
 0001:00019be2       __NLG_Return2              1001abe2     libvcruntimed:exsup.obj
 0001:00019bf0       ??$__crt_interlocked_exchange_pointer@$$A6AXXZP6AXXZ@@YAP6AXXZPDS6AXXZQ6AXXZ@Z 1001abf0 f i libvcruntimed:purevirt.obj
 0001:00019c00       ??$__crt_interlocked_read_pointer@$$A6AXXZ@@YAP6AXXZPDS6AXXZ@Z 1001ac00 f i libvcruntimed:purevirt.obj
 0001:00019c20       __get_purecall_handler     1001ac20 f   libvcruntimed:purevirt.obj
 0001:00019c40       __purecall                 1001ac40 f   libvcruntimed:purevirt.obj
 0001:00019c70       __set_purecall_handler     1001ac70 f   libvcruntimed:purevirt.obj
 0001:00019c90       ??$__crt_fast_decode_pointer@P6AXPB_W00II@Z@@YAP6AXPB_W00II@ZQ6AX000II@Z@Z 1001ac90 f i libucrtd:invalid_parameter.obj
 0001:00019cc0       ??$__crt_fast_encode_pointer@P6AXPB_W00II@Z@@YAP6AXPB_W00II@ZQ6AX000II@Z@Z 1001acc0 f i libucrtd:invalid_parameter.obj
 0001:00019cf0       ??$initialize_from_array@$$BY00Q6AXPB_W00II@Z@?$dual_state_global@P6AXPB_W00II@Z@__crt_state_management@@QAAXAAY00Q6AXPB_W00II@Z@Z 1001acf0 f i libucrtd:invalid_parameter.obj
 0001:00019d40       ?__crt_rotate_pointer_value@@YAIIH@Z 1001ad40 f i libucrtd:invalid_parameter.obj
 0001:00019d50       ?dangerous_get_state_array@?$dual_state_global@P6AXPB_W00II@Z@__crt_state_management@@QAEPAP6AXPB_W00II@ZXZ 1001ad50 f i libucrtd:invalid_parameter.obj
 0001:00019d60       ?get_current_state_index@__crt_state_management@@YAIXZ 1001ad60 f i libucrtd:invalid_parameter.obj
 0001:00019d70       ?value@?$dual_state_global@P6AXPB_W00II@Z@__crt_state_management@@QAEAAP6AXPB_W00II@ZXZ 1001ad70 f i libucrtd:invalid_parameter.obj
 0001:00019d90       ___acrt_call_reportfault   1001ad90 f   libucrtd:invalid_parameter.obj
 0001:00019ef0       ___acrt_initialize_invalid_parameter_handler 1001aef0 f   libucrtd:invalid_parameter.obj
 0001:00019f20       __get_invalid_parameter_handler 1001af20 f   libucrtd:invalid_parameter.obj
 0001:00019f40       __get_thread_local_invalid_parameter_handler 1001af40 f   libucrtd:invalid_parameter.obj
 0001:00019f70       __invalid_parameter        1001af70 f   libucrtd:invalid_parameter.obj
 0001:0001a030       __invalid_parameter_noinfo 1001b030 f   libucrtd:invalid_parameter.obj
 0001:0001a050       __invalid_parameter_noinfo_noreturn 1001b050 f   libucrtd:invalid_parameter.obj
 0001:0001a080       __invoke_watson            1001b080 f   libucrtd:invalid_parameter.obj
 0001:0001a0c0       __set_invalid_parameter_handler 1001b0c0 f   libucrtd:invalid_parameter.obj
 0001:0001a110       __set_thread_local_invalid_parameter_handler 1001b110 f   libucrtd:invalid_parameter.obj
 0001:0001a140       _strlen                    1001b140 f   libucrtd:strlen.obj
 0001:0001a1d0       __abs64                    1001b1d0 f   libucrtd:abs.obj
 0001:0001a220       _abs                       1001b220 f   libucrtd:abs.obj
 0001:0001a250       ??$?RU?$__crt_report_hook_node@D@@@__crt_internal_free_policy@@QBEXQBU?$__crt_report_hook_node@D@@@Z 1001b250 f i libucrtd:dbgrpt.obj
 0001:0001a270       ??$?RU?$__crt_report_hook_node@_W@@@__crt_internal_free_policy@@QBEXQBU?$__crt_report_hook_node@_W@@@Z 1001b270 f i libucrtd:dbgrpt.obj
 0001:0001b060       ??$get_module_file_name@AAPAUHINSTANCE__@@AAY0BAF@DK@?$__crt_char_traits@D@@SAKAAPAUHINSTANCE__@@AAY0BAF@D$$QAK@Z 1001c060 f i libucrtd:dbgrpt.obj
 0001:0001b080       ??$get_module_file_name@AAPAUHINSTANCE__@@AAY0BAF@_WK@?$__crt_char_traits@_W@@SAKAAPAUHINSTANCE__@@AAY0BAF@_W$$QAK@Z 1001c080 f i libucrtd:dbgrpt.obj
 0001:0001b0a0       ??$tcscpy_s@AAY0BAF@DIPBD@?$__crt_char_traits@D@@SAHAAY0BAF@D$$QAI$$QAPBD@Z 1001c0a0 f i libucrtd:dbgrpt.obj
 0001:0001b0c0       ??$tcscpy_s@AAY0BAF@_WIPB_W@?$__crt_char_traits@_W@@SAHAAY0BAF@_W$$QAI$$QAPB_W@Z 1001c0c0 f i libucrtd:dbgrpt.obj
 0001:0001b0e0       ??$tcslen@AAY0BAF@D@?$__crt_char_traits@D@@SAIAAY0BAF@D@Z 1001c0e0 f i libucrtd:dbgrpt.obj
 0001:0001b100       ??$tcslen@AAY0BAF@_W@?$__crt_char_traits@_W@@SAIAAY0BAF@_W@Z 1001c100 f i libucrtd:dbgrpt.obj
 0001:0001b120       ??$tcslen@ABQBD@?$__crt_char_traits@D@@SAIABQBD@Z 1001c120 f i libucrtd:dbgrpt.obj
 0001:0001b140       ??$tcslen@ABQB_W@?$__crt_char_traits@_W@@SAIABQB_W@Z 1001c140 f i libucrtd:dbgrpt.obj
 0001:0001b240       ??0?$__crt_unique_heap_ptr@U?$__crt_report_hook_node@D@@U__crt_internal_free_policy@@@@QAE@QAU?$__crt_report_hook_node@D@@@Z 1001c240 f i libucrtd:dbgrpt.obj
 0001:0001b260       ??0?$__crt_unique_heap_ptr@U?$__crt_report_hook_node@_W@@U__crt_internal_free_policy@@@@QAE@QAU?$__crt_report_hook_node@_W@@@Z 1001c260 f i libucrtd:dbgrpt.obj
 0001:0001b280       ??1?$__crt_unique_heap_ptr@U?$__crt_report_hook_node@D@@U__crt_internal_free_policy@@@@QAE@XZ 1001c280 f i libucrtd:dbgrpt.obj
 0001:0001b2a0       ??1?$__crt_unique_heap_ptr@U?$__crt_report_hook_node@_W@@U__crt_internal_free_policy@@@@QAE@XZ 1001c2a0 f i libucrtd:dbgrpt.obj
 0001:0001b2c0       ??B?$__crt_unique_heap_ptr@U?$__crt_report_hook_node@D@@U__crt_internal_free_policy@@@@QBE_NXZ 1001c2c0 f i libucrtd:dbgrpt.obj
 0001:0001b2e0       ??B?$__crt_unique_heap_ptr@U?$__crt_report_hook_node@_W@@U__crt_internal_free_policy@@@@QBE_NXZ 1001c2e0 f i libucrtd:dbgrpt.obj
 0001:0001b820       ?detach@?$__crt_unique_heap_ptr@U?$__crt_report_hook_node@D@@U__crt_internal_free_policy@@@@QAEPAU?$__crt_report_hook_node@D@@XZ 1001c820 f i libucrtd:dbgrpt.obj
 0001:0001b850       ?detach@?$__crt_unique_heap_ptr@U?$__crt_report_hook_node@_W@@U__crt_internal_free_policy@@@@QAEPAU?$__crt_report_hook_node@_W@@XZ 1001c850 f i libucrtd:dbgrpt.obj
 0001:0001b880       ?get@?$__crt_unique_heap_ptr@U?$__crt_report_hook_node@D@@U__crt_internal_free_policy@@@@QBEPAU?$__crt_report_hook_node@D@@XZ 1001c880 f i libucrtd:dbgrpt.obj
 0001:0001b8a0       ?get@?$__crt_unique_heap_ptr@U?$__crt_report_hook_node@_W@@U__crt_internal_free_policy@@@@QBEPAU?$__crt_report_hook_node@_W@@XZ 1001c8a0 f i libucrtd:dbgrpt.obj
 0001:0001b920       ?is_valid@?$__crt_unique_heap_ptr@U?$__crt_report_hook_node@D@@U__crt_internal_free_policy@@@@QBE_NXZ 1001c920 f i libucrtd:dbgrpt.obj
 0001:0001b950       ?is_valid@?$__crt_unique_heap_ptr@U?$__crt_report_hook_node@_W@@U__crt_internal_free_policy@@@@QBE_NXZ 1001c950 f i libucrtd:dbgrpt.obj
 0001:0001b980       ?release@?$__crt_unique_heap_ptr@U?$__crt_report_hook_node@D@@U__crt_internal_free_policy@@@@QAEXXZ 1001c980 f i libucrtd:dbgrpt.obj
 0001:0001b9b0       ?release@?$__crt_unique_heap_ptr@U?$__crt_report_hook_node@_W@@U__crt_internal_free_policy@@@@QAEXXZ 1001c9b0 f i libucrtd:dbgrpt.obj
 0001:0001b9e0       __CrtDbgReport             1001c9e0 f   libucrtd:dbgrpt.obj
 0001:0001ba30       __CrtDbgReportW            1001ca30 f   libucrtd:dbgrpt.obj
 0001:0001ba80       __CrtSetReportHook2        1001ca80 f   libucrtd:dbgrpt.obj
 0001:0001baa0       __CrtSetReportHookW2       1001caa0 f   libucrtd:dbgrpt.obj
 0001:0001bac0       ___acrt_MessageWindowA     1001cac0 f   libucrtd:dbgrpt.obj
 0001:0001baf0       ___acrt_MessageWindowW     1001caf0 f   libucrtd:dbgrpt.obj
 0001:0001bb20       __invoke_watson_if_error   1001cb20 f i libucrtd:dbgrpt.obj
 0001:0001bb50       __invoke_watson_if_oneof   1001cb50 f i libucrtd:dbgrpt.obj
 0001:0001bb90       __snwprintf_s              1001cb90 f i libucrtd:dbgrpt.obj
 0001:0001bbd0       __vsnwprintf_s_l           1001cbd0 f i libucrtd:dbgrpt.obj
 0001:0001bc30       _exp                       1001cc30 f   libucrtd:exp.obj
 0001:0001bc90       _fabs                      1001cc90 f   libucrtd:fabs.obj
 0001:0001bd20       _log                       1001cd20 f   libucrtd:log.obj
 0001:0001bd70       _sqrt                      1001cd70 f   libucrtd:sqrt.obj
 0001:0001bd80       _log10                     1001cd80 f   libucrtd:log10.obj
 0001:0001bdd0       _pow                       1001cdd0 f   libucrtd:pow.obj
 0001:0001be20       ___acrt_initialize_locks   1001ce20 f   libucrtd:locks.obj
 0001:0001be80       ___acrt_lock               1001ce80 f   libucrtd:locks.obj
 0001:0001bea0       ___acrt_uninitialize_locks 1001cea0 f   libucrtd:locks.obj
 0001:0001bef0       ___acrt_unlock             1001cef0 f   libucrtd:locks.obj
 0001:0001bf10       __lock_locales             1001cf10 f   libucrtd:locks.obj
 0001:0001bf30       __unlock_locales           1001cf30 f   libucrtd:locks.obj
 0001:0001bf50       ??$?B$$A6AHI@Z@__crt_fast_encoded_nullptr_t@@QBEP6AHI@ZXZ 1001cf50 f i libucrtd:new_handler.obj
 0001:0001bf70       ??$__crt_fast_decode_pointer@P6AHI@Z@@YAP6AHI@ZQ6AHI@Z@Z 1001cf70 f i libucrtd:new_handler.obj
 0001:0001bfa0       ??$__crt_fast_encode_pointer@P6AHI@Z@@YAP6AHI@ZQ6AHI@Z@Z 1001cfa0 f i libucrtd:new_handler.obj
 0001:0001bfd0       ?__crt_fast_encode_pointer@@YA?AU__crt_fast_encoded_nullptr_t@@$$T@Z 1001cfd0 f i libucrtd:new_handler.obj
 0001:0001bfe0       ?_set_new_handler@@YAP6AHI@ZH@Z 1001cfe0 f   libucrtd:new_handler.obj
 0001:0001c040       ?initialize@?$dual_state_global@P6AHI@Z@__crt_state_management@@QAEXQ6AHI@Z@Z 1001d040 f i libucrtd:new_handler.obj
 0001:0001c080       ?value@?$dual_state_global@P6AHI@Z@__crt_state_management@@QAEAAP6AHI@ZXZ 1001d080 f i libucrtd:new_handler.obj
 0001:0001c0a0       ___acrt_initialize_new_handler 1001d0a0 f   libucrtd:new_handler.obj
 0001:0001c0c0       __callnewh                 1001d0c0 f   libucrtd:new_handler.obj
 0001:0001c100       __query_new_handler        1001d100 f   libucrtd:new_handler.obj
 0001:0001c190       __set_new_handler          1001d190 f   libucrtd:new_handler.obj
 0001:0001c240       _malloc                    1001d240 f   libucrtd:malloc.obj
 0001:0001c2b0       __seh_filter_dll           1001d2b0 f   libucrtd:exception_filter.obj
 0001:0001c2e0       __seh_filter_exe           1001d2e0 f   libucrtd:exception_filter.obj
 0001:0001c4f0       ??$?B$$A6GXPAXK0@Z@__crt_fast_encoded_nullptr_t@@QBEP6GXPAXK0@ZXZ 1001d4f0 f i libucrtd:exit.obj
 0001:0001c5d0       ??$__crt_fast_decode_pointer@P6GXPAXK0@Z@@YAP6GXPAXK0@ZQ6GX0K0@Z@Z 1001d5d0 f i libucrtd:exit.obj
 0001:0001c600       ??$__crt_fast_encode_pointer@P6GXPAXK0@Z@@YAP6GXPAXK0@ZQ6GX0K0@Z@Z 1001d600 f i libucrtd:exit.obj
 0001:0001c630       ??$__crt_get_proc_address@P6GXI@Z@@YAP6GXI@ZQAUHINSTANCE__@@QBD@Z 1001d630 f i libucrtd:exit.obj
 0001:0001c650       ??$__crt_interlocked_read@J@@YAJPDJ@Z 1001d650 f i libucrtd:exit.obj
 0001:0001c6e0       ??0?$__crt_unique_handle_t@U__crt_hmodule_traits@@@@QAE@QAUHINSTANCE__@@@Z 1001d6e0 f i libucrtd:exit.obj
 0001:0001c700       ??1?$__crt_unique_handle_t@U__crt_hmodule_traits@@@@QAE@XZ 1001d700 f i libucrtd:exit.obj
 0001:0001c8c0       ?__acrt_select_exit_lock@@YA?AW4__acrt_lock_id@@XZ 1001d8c0 f i libucrtd:exit.obj
 0001:0001c8f0       ?close@?$__crt_unique_handle_t@U__crt_hmodule_traits@@@@QAEXXZ 1001d8f0 f i libucrtd:exit.obj
 0001:0001c930       ?close@__crt_hmodule_traits@@SA_NPAUHINSTANCE__@@@Z 1001d930 f i libucrtd:exit.obj
 0001:0001ca20       ?get@?$__crt_unique_handle_t@U__crt_hmodule_traits@@@@QBEPAUHINSTANCE__@@XZ 1001da20 f i libucrtd:exit.obj
 0001:0001ca40       ?get_address_of@?$__crt_unique_handle_t@U__crt_hmodule_traits@@@@QAEPAPAUHINSTANCE__@@XZ 1001da40 f i libucrtd:exit.obj
 0001:0001ca50       ?get_invalid_value@__crt_hmodule_traits@@SAPAUHINSTANCE__@@XZ 1001da50 f i libucrtd:exit.obj
 0001:0001cbd0       __Exit                     1001dbd0 f   libucrtd:exit.obj
 0001:0001cbf0       ___acrt_initialize_thread_local_exit_callback 1001dbf0 f   libucrtd:exit.obj
 0001:0001cc00       __c_exit                   1001dc00 f   libucrtd:exit.obj
 0001:0001cc20       __cexit                    1001dc20 f   libucrtd:exit.obj
 0001:0001cc40       __exit                     1001dc40 f   libucrtd:exit.obj
 0001:0001cc60       __is_c_termination_complete 1001dc60 f   libucrtd:exit.obj
 0001:0001cc80       __register_thread_local_exe_atexit_callback 1001dc80 f   libucrtd:exit.obj
 0001:0001ccc0       _exit                      1001dcc0 f   libucrtd:exit.obj
 0001:0001cce0       _quick_exit                1001dce0 f   libucrtd:exit.obj
 0001:0001cd00       ??$?RE@__crt_internal_free_policy@@QBEXQBE@Z 1001dd00 f i libucrtd:argv_parsing.obj
 0001:0001cd20       ??$?RPAD@__crt_internal_free_policy@@QBEXQBQAD@Z 1001dd20 f i libucrtd:argv_parsing.obj
 0001:0001cd40       ??$?RPA_W@__crt_internal_free_policy@@QBEXQBQA_W@Z 1001dd40 f i libucrtd:argv_parsing.obj
 0001:0001d2a0       ??$get_module_file_name@$$TAAY0BAF@DH@?$__crt_char_traits@D@@SAK$$QA$$TAAY0BAF@D$$QAH@Z 1001e2a0 f i libucrtd:argv_parsing.obj
 0001:0001d2c0       ??$get_module_file_name@$$TAAY0BAF@_WH@?$__crt_char_traits@_W@@SAK$$QA$$TAAY0BAF@_W$$QAH@Z 1001e2c0 f i libucrtd:argv_parsing.obj
 0001:0001d9e0       ??$set_program_name@PAD@?$__crt_char_traits@D@@SAX$$QAPAD@Z 1001e9e0 f i libucrtd:argv_parsing.obj
 0001:0001da00       ??$set_program_name@PA_W@?$__crt_char_traits@_W@@SAX$$QAPA_W@Z 1001ea00 f i libucrtd:argv_parsing.obj
 0001:0001da60       ??0?$__crt_unique_heap_ptr@EU__crt_internal_free_policy@@@@QAE@QAE@Z 1001ea60 f i libucrtd:argv_parsing.obj
 0001:0001da80       ??0?$__crt_unique_heap_ptr@PADU__crt_internal_free_policy@@@@QAE@QAPAD@Z 1001ea80 f i libucrtd:argv_parsing.obj
 0001:0001daa0       ??0?$__crt_unique_heap_ptr@PA_WU__crt_internal_free_policy@@@@QAE@QAPA_W@Z 1001eaa0 f i libucrtd:argv_parsing.obj
 0001:0001dac0       ??1?$__crt_unique_heap_ptr@EU__crt_internal_free_policy@@@@QAE@XZ 1001eac0 f i libucrtd:argv_parsing.obj
 0001:0001dae0       ??1?$__crt_unique_heap_ptr@PADU__crt_internal_free_policy@@@@QAE@XZ 1001eae0 f i libucrtd:argv_parsing.obj
 0001:0001db00       ??1?$__crt_unique_heap_ptr@PA_WU__crt_internal_free_policy@@@@QAE@XZ 1001eb00 f i libucrtd:argv_parsing.obj
 0001:0001db20       ??B?$__crt_unique_heap_ptr@EU__crt_internal_free_policy@@@@QBE_NXZ 1001eb20 f i libucrtd:argv_parsing.obj
 0001:0001dbe0       ?detach@?$__crt_unique_heap_ptr@EU__crt_internal_free_policy@@@@QAEPAEXZ 1001ebe0 f i libucrtd:argv_parsing.obj
 0001:0001dc10       ?detach@?$__crt_unique_heap_ptr@PADU__crt_internal_free_policy@@@@QAEPAPADXZ 1001ec10 f i libucrtd:argv_parsing.obj
 0001:0001dc40       ?detach@?$__crt_unique_heap_ptr@PA_WU__crt_internal_free_policy@@@@QAEPAPA_WXZ 1001ec40 f i libucrtd:argv_parsing.obj
 0001:0001dcd0       ?get@?$__crt_unique_heap_ptr@EU__crt_internal_free_policy@@@@QBEPAEXZ 1001ecd0 f i libucrtd:argv_parsing.obj
 0001:0001dcf0       ?get@?$__crt_unique_heap_ptr@PADU__crt_internal_free_policy@@@@QBEPAPADXZ 1001ecf0 f i libucrtd:argv_parsing.obj
 0001:0001dd10       ?get@?$__crt_unique_heap_ptr@PA_WU__crt_internal_free_policy@@@@QBEPAPA_WXZ 1001ed10 f i libucrtd:argv_parsing.obj
 0001:0001dd30       ?get_address_of@?$__crt_unique_heap_ptr@PADU__crt_internal_free_policy@@@@QAEPAPAPADXZ 1001ed30 f i libucrtd:argv_parsing.obj
 0001:0001dd40       ?get_address_of@?$__crt_unique_heap_ptr@PA_WU__crt_internal_free_policy@@@@QAEPAPAPA_WXZ 1001ed40 f i libucrtd:argv_parsing.obj
 0001:0001dd90       ?is_valid@?$__crt_unique_heap_ptr@EU__crt_internal_free_policy@@@@QBE_NXZ 1001ed90 f i libucrtd:argv_parsing.obj
 0001:0001ddc0       ?release@?$__crt_unique_heap_ptr@EU__crt_internal_free_policy@@@@QAEXXZ 1001edc0 f i libucrtd:argv_parsing.obj
 0001:0001ddf0       ?release@?$__crt_unique_heap_ptr@PADU__crt_internal_free_policy@@@@QAEXXZ 1001edf0 f i libucrtd:argv_parsing.obj
 0001:0001de20       ?release@?$__crt_unique_heap_ptr@PA_WU__crt_internal_free_policy@@@@QAEXXZ 1001ee20 f i libucrtd:argv_parsing.obj
 0001:0001de90       ___acrt_allocate_buffer_for_argv 1001ee90 f   libucrtd:argv_parsing.obj
 0001:0001df50       __configure_narrow_argv    1001ef50 f   libucrtd:argv_parsing.obj
 0001:0001df70       __configure_wide_argv      1001ef70 f   libucrtd:argv_parsing.obj
 0001:0001df90       __set_pgmptr               1001ef90 f i libucrtd:argv_parsing.obj
 0001:0001dfa0       __set_wpgmptr              1001efa0 f i libucrtd:argv_parsing.obj
 0001:0001dfaf       ??$?R_W@__crt_internal_free_policy@@QBEXQB_W@Z 1001efaf f i libucrtd:environment_initialization.obj
 0001:0001e418       ??$get_environment_from_os@$$V@?$__crt_char_traits@D@@SAPADXZ 1001f418 f i libucrtd:environment_initialization.obj
 0001:0001e41d       ??$get_environment_from_os@$$V@?$__crt_char_traits@_W@@SAPA_WXZ 1001f41d f i libucrtd:environment_initialization.obj
 0001:0001e546       ??$set_variable_in_environment_nolock@PADH@?$__crt_char_traits@D@@SAH$$QAPAD$$QAH@Z 1001f546 f i libucrtd:environment_initialization.obj
 0001:0001e55e       ??$set_variable_in_environment_nolock@PA_WH@?$__crt_char_traits@_W@@SAH$$QAPA_W$$QAH@Z 1001f55e f i libucrtd:environment_initialization.obj
 0001:0001e576       ??$tcscpy_s@PADABIAAPAD@?$__crt_char_traits@D@@SAH$$QAPADABIAAPAD@Z 1001f576 f i libucrtd:environment_initialization.obj
 0001:0001e594       ??$tcscpy_s@PA_WABIAAPA_W@?$__crt_char_traits@_W@@SAH$$QAPA_WABIAAPA_W@Z 1001f594 f i libucrtd:environment_initialization.obj
 0001:0001e5b2       ??$tcslen@AAPAD@?$__crt_char_traits@D@@SAIAAPAD@Z 1001f5b2 f i libucrtd:environment_initialization.obj
 0001:0001e5ca       ??$tcslen@AAPA_W@?$__crt_char_traits@_W@@SAIAAPA_W@Z 1001f5ca f i libucrtd:environment_initialization.obj
 0001:0001e5e8       ??$uninitialize@A6AXAAPAPAD@Z@?$dual_state_global@PAPAD@__crt_state_management@@QAEXA6AXAAPAPAD@Z@Z 1001f5e8 f i libucrtd:environment_initialization.obj
 0001:0001e611       ??$uninitialize@A6AXAAPAPA_W@Z@?$dual_state_global@PAPA_W@__crt_state_management@@QAEXA6AXAAPAPA_W@Z@Z 1001f611 f i libucrtd:environment_initialization.obj
 0001:0001e670       ??0?$__crt_unique_heap_ptr@_WU__crt_internal_free_policy@@@@QAE@QA_W@Z 1001f670 f i libucrtd:environment_initialization.obj
 0001:0001e680       ??1?$__crt_unique_heap_ptr@_WU__crt_internal_free_policy@@@@QAE@XZ 1001f680 f i libucrtd:environment_initialization.obj
 0001:0001e695       ??B?$__crt_unique_heap_ptr@PADU__crt_internal_free_policy@@@@QBE_NXZ 1001f695 f i libucrtd:environment_initialization.obj
 0001:0001e69c       ??B?$__crt_unique_heap_ptr@PA_WU__crt_internal_free_policy@@@@QBE_NXZ 1001f69c f i libucrtd:environment_initialization.obj
 0001:0001e6a3       ??B?$__crt_unique_heap_ptr@_WU__crt_internal_free_policy@@@@QBE_NXZ 1001f6a3 f i libucrtd:environment_initialization.obj
 0001:0001e6aa       ?__crt_compute_required_transform_buffer_count@@YAIIQBD@Z 1001f6aa f i libucrtd:environment_initialization.obj
 0001:0001e6c6       ?__crt_compute_required_transform_buffer_count@@YAIIQB_W@Z 1001f6c6 f i libucrtd:environment_initialization.obj
 0001:0001e6e4       ?__crt_transform_string@@YAIIQBDQA_WI@Z 1001f6e4 f i libucrtd:environment_initialization.obj
 0001:0001e703       ?__crt_transform_string@@YAIIQB_WQADI@Z 1001f703 f i libucrtd:environment_initialization.obj
 0001:0001e725       ?detach@?$__crt_unique_heap_ptr@DU__crt_internal_free_policy@@@@QAEPADXZ 1001f725 f i libucrtd:environment_initialization.obj
 0001:0001e72b       ?detach@?$__crt_unique_heap_ptr@_WU__crt_internal_free_policy@@@@QAEPA_WXZ 1001f72b f i libucrtd:environment_initialization.obj
 0001:0001e731       ?get@?$__crt_unique_heap_ptr@_WU__crt_internal_free_policy@@@@QBEPA_WXZ 1001f731 f i libucrtd:environment_initialization.obj
 0001:0001e758       ?initialize@?$dual_state_global@PAPAD@__crt_state_management@@QAEXQAPAD@Z 1001f758 f i libucrtd:environment_initialization.obj
 0001:0001e77e       ?initialize@?$dual_state_global@PAPA_W@__crt_state_management@@QAEXQAPA_W@Z 1001f77e f i libucrtd:environment_initialization.obj
 0001:0001e7a4       ?is_valid@?$__crt_unique_heap_ptr@PADU__crt_internal_free_policy@@@@QBE_NXZ 1001f7a4 f i libucrtd:environment_initialization.obj
 0001:0001e7ab       ?is_valid@?$__crt_unique_heap_ptr@PA_WU__crt_internal_free_policy@@@@QBE_NXZ 1001f7ab f i libucrtd:environment_initialization.obj
 0001:0001e7b2       ?is_valid@?$__crt_unique_heap_ptr@_WU__crt_internal_free_policy@@@@QBE_NXZ 1001f7b2 f i libucrtd:environment_initialization.obj
 0001:0001e7c1       ?release@?$__crt_unique_heap_ptr@_WU__crt_internal_free_policy@@@@QAEXXZ 1001f7c1 f i libucrtd:environment_initialization.obj
 0001:0001e7d6       ?value@?$dual_state_global@PAPAD@__crt_state_management@@QAEAAPAPADXZ 1001f7d6 f i libucrtd:environment_initialization.obj
 0001:0001e7d9       ?value@?$dual_state_global@PAPA_W@__crt_state_management@@QAEAAPAPA_WXZ 1001f7d9 f i libucrtd:environment_initialization.obj
 0001:0001e7dc       ___dcrt_get_or_create_narrow_environment_nolock 1001f7dc f   libucrtd:environment_initialization.obj
 0001:0001e7e1       ___dcrt_get_or_create_wide_environment_nolock 1001f7e1 f   libucrtd:environment_initialization.obj
 0001:0001e7e6       ___dcrt_uninitialize_environments_nolock 1001f7e6 f   libucrtd:environment_initialization.obj
 0001:0001e81d       ___p__environ              1001f81d f   libucrtd:environment_initialization.obj
 0001:0001e823       ___p__wenviron             1001f823 f   libucrtd:environment_initialization.obj
 0001:0001e829       __get_initial_narrow_environment 1001f829 f   libucrtd:environment_initialization.obj
 0001:0001e83d       __get_initial_wide_environment 1001f83d f   libucrtd:environment_initialization.obj
 0001:0001e851       __initialize_narrow_environment 1001f851 f   libucrtd:environment_initialization.obj
 0001:0001e856       __initialize_wide_environment 1001f856 f   libucrtd:environment_initialization.obj
 0001:0001e860       ??$?B$$A6AXXZ@__crt_fast_encoded_nullptr_t@@QBEP6AXXZXZ 1001f860 f i libucrtd:onexit.obj
 0001:0001e880       ??$?BP6AXXZ@__crt_fast_encoded_nullptr_t@@QBEPAP6AXXZXZ 1001f880 f i libucrtd:onexit.obj
 0001:0001e8a0       ??$?RP6AXXZ@__crt_internal_free_policy@@QBEXQBQ6AXXZ@Z 1001f8a0 f i libucrtd:onexit.obj
 0001:0001ea60       ??$__crt_fast_decode_pointer@P6AXXZ@@YAP6AXXZQ6AXXZ@Z 1001fa60 f i libucrtd:onexit.obj
 0001:0001ea90       ??$__crt_fast_decode_pointer@PAP6AXXZ@@YAPAP6AXXZQAP6AXXZ@Z 1001fa90 f i libucrtd:onexit.obj
 0001:0001eac0       ??$__crt_fast_encode_pointer@P6AHXZ@@YAP6AHXZQ6AHXZ@Z 1001fac0 f i libucrtd:onexit.obj
 0001:0001eaf0       ??$__crt_fast_encode_pointer@P6AXXZ@@YAP6AXXZQ6AXXZ@Z 1001faf0 f i libucrtd:onexit.obj
 0001:0001eb20       ??$__crt_fast_encode_pointer@PAP6AXXZ@@YAPAP6AXXZQAP6AXXZ@Z 1001fb20 f i libucrtd:onexit.obj
 0001:0001ec20       ??0?$__crt_unique_heap_ptr@P6AXXZU__crt_internal_free_policy@@@@QAE@QAP6AXXZ@Z 1001fc20 f i libucrtd:onexit.obj
 0001:0001ec40       ??1?$__crt_unique_heap_ptr@P6AXXZU__crt_internal_free_policy@@@@QAE@XZ 1001fc40 f i libucrtd:onexit.obj
 0001:0001ec60       ??1scoped_global_state_reset@__crt_state_management@@QAE@XZ 1001fc60 f i libucrtd:onexit.obj
 0001:0001f0d0       ?detach@?$__crt_unique_heap_ptr@P6AXXZU__crt_internal_free_policy@@@@QAEPAP6AXXZXZ 100200d0 f i libucrtd:onexit.obj
 0001:0001f100       ?release@?$__crt_unique_heap_ptr@P6AXXZU__crt_internal_free_policy@@@@QAEXXZ 10020100 f i libucrtd:onexit.obj
 0001:0001f130       __crt_at_quick_exit        10020130 f   libucrtd:onexit.obj
 0001:0001f150       __crt_atexit               10020150 f   libucrtd:onexit.obj
 0001:0001f170       __execute_onexit_table     10020170 f   libucrtd:onexit.obj
 0001:0001f1a0       __initialize_onexit_table  100201a0 f   libucrtd:onexit.obj
 0001:0001f200       __register_onexit_function 10020200 f   libucrtd:onexit.obj
 0001:0001f440       ??$?BX@__crt_fast_encoded_nullptr_t@@QBEPAXXZ 10020440 f i libucrtd:initialization.obj
 0001:0001f460       ??$__crt_fast_encode_pointer@PAX@@YAPAXQAX@Z 10020460 f i libucrtd:initialization.obj
 0001:0001f520       ?initialize@?$dual_state_global@PAU__crt_locale_data@@@__crt_state_management@@QAEXQAU__crt_locale_data@@@Z 10020520 f i libucrtd:initialization.obj
 0001:0001f560       ___acrt_initialize         10020560 f   libucrtd:initialization.obj
 0001:0001f580       ___acrt_thread_attach      10020580 f   libucrtd:initialization.obj
 0001:0001f5a0       ___acrt_thread_detach      100205a0 f   libucrtd:initialization.obj
 0001:0001f5b0       ___acrt_uninitialize       100205b0 f   libucrtd:initialization.obj
 0001:0001f5d0       ___acrt_uninitialize_critical 100205d0 f   libucrtd:initialization.obj
 0001:0001f5f0       __initterm                 100205f0 f   libucrtd:initterm.obj
 0001:0001f640       __initterm_e               10020640 f   libucrtd:initterm.obj
 0001:0001f6a0       ??0_LocaleUpdate@@QAE@QAU__crt_locale_pointers@@@Z 100206a0 f i libucrtd:debug_heap.obj
 0001:0001f770       ??1_LocaleUpdate@@QAE@XZ   10020770 f i libucrtd:debug_heap.obj
 0001:0001f7a0       ?GetLocaleT@_LocaleUpdate@@QAEPAU__crt_locale_pointers@@XZ 100207a0 f i libucrtd:debug_heap.obj
 0001:00021010       __CrtCheckMemory           10022010 f   libucrtd:debug_heap.obj
 0001:000211a0       __CrtDoForAllClientObjects 100221a0 f   libucrtd:debug_heap.obj
 0001:000212f0       __CrtDumpMemoryLeaks       100222f0 f   libucrtd:debug_heap.obj
 0001:00021390       __CrtGetAllocHook          10022390 f   libucrtd:debug_heap.obj
 0001:000213a0       __CrtGetDumpClient         100223a0 f   libucrtd:debug_heap.obj
 0001:000213b0       __CrtIsMemoryBlock         100223b0 f   libucrtd:debug_heap.obj
 0001:00021500       __CrtIsValidHeapPointer    10022500 f   libucrtd:debug_heap.obj
 0001:00021530       __CrtIsValidPointer        10022530 f   libucrtd:debug_heap.obj
 0001:00021560       __CrtMemCheckpoint         10022560 f   libucrtd:debug_heap.obj
 0001:00021790       __CrtMemDifference         10022790 f   libucrtd:debug_heap.obj
 0001:00021a00       __CrtMemDumpAllObjectsSince 10022a00 f   libucrtd:debug_heap.obj
 0001:00021aa0       __CrtMemDumpStatistics     10022aa0 f   libucrtd:debug_heap.obj
 0001:00021bd0       __CrtReportBlockType       10022bd0 f   libucrtd:debug_heap.obj
 0001:00021c00       __CrtSetAllocHook          10022c00 f   libucrtd:debug_heap.obj
 0001:00021c20       __CrtSetBreakAlloc         10022c20 f   libucrtd:debug_heap.obj
 0001:00021c40       __CrtSetDbgBlockType       10022c40 f   libucrtd:debug_heap.obj
 0001:00021d20       __CrtSetDbgFlag            10022d20 f   libucrtd:debug_heap.obj
 0001:00021e90       __CrtSetDumpClient         10022e90 f   libucrtd:debug_heap.obj
 0001:00021eb0       ___acrt_disable_global_locale_sync 10022eb0 f i libucrtd:debug_heap.obj
 0001:00021ed0       ___acrt_enable_global_locale_sync 10022ed0 f i libucrtd:debug_heap.obj
 0001:00021ef0       ___acrt_get_locale_data_prefix 10022ef0 f i libucrtd:debug_heap.obj
 0001:00021f10       ___acrt_locale_changed     10022f10 f i libucrtd:debug_heap.obj
 0001:00021f40       ___p__crtBreakAlloc        10022f40 f   libucrtd:debug_heap.obj
 0001:00021f50       ___p__crtDbgFlag           10022f50 f   libucrtd:debug_heap.obj
 0001:00021f60       __aligned_free_dbg         10022f60 f   libucrtd:debug_heap.obj
 0001:00022010       __aligned_malloc_dbg       10023010 f   libucrtd:debug_heap.obj
 0001:00022040       __aligned_msize_dbg        10023040 f   libucrtd:debug_heap.obj
 0001:00022170       __aligned_offset_malloc_dbg 10023170 f   libucrtd:debug_heap.obj
 0001:00022350       __aligned_offset_realloc_dbg 10023350 f   libucrtd:debug_heap.obj
 0001:00022660       __aligned_offset_recalloc_dbg 10023660 f   libucrtd:debug_heap.obj
 0001:00022720       __aligned_realloc_dbg      10023720 f   libucrtd:debug_heap.obj
 0001:00022750       __aligned_recalloc_dbg     10023750 f   libucrtd:debug_heap.obj
 0001:00022780       __calloc_dbg               10023780 f   libucrtd:debug_heap.obj
 0001:000227f0       __chvalidchk_l             100237f0 f i libucrtd:debug_heap.obj
 0001:00022810       __expand_dbg               10023810 f   libucrtd:debug_heap.obj
 0001:00022940       __free_dbg                 10023940 f   libucrtd:debug_heap.obj
 0001:000229f0       __ischartype_l             100239f0 f i libucrtd:debug_heap.obj
 0001:00022a70       __malloc_dbg               10023a70 f   libucrtd:debug_heap.obj
 0001:00022a90       __msize_dbg                10023a90 f   libucrtd:debug_heap.obj
 0001:00022c20       __realloc_dbg              10023c20 f   libucrtd:debug_heap.obj
 0001:00022cc0       __recalloc_dbg             10023cc0 f   libucrtd:debug_heap.obj
 0001:00022da0       __get_terminate            10023da0 f   libucrtd:terminate.obj
 0001:00022dc0       _set_terminate             10023dc0 f   libucrtd:terminate.obj
 0001:00022df0       _terminate                 10023df0 f   libucrtd:terminate.obj
 0001:00022e80       _free                      10023e80 f   libucrtd:free.obj
 0001:000231d0       _strcpy_s                  100241d0 f   libucrtd:strcpy_s.obj
 0001:000231f0       __set_abort_behavior       100241f0 f   libucrtd:abort.obj
 0001:00023220       _abort                     10024220 f   libucrtd:abort.obj
 0001:00023290       _strcmp                    10024290 f   libucrtd:strcmp.obj
 0001:00023320       ??$?0ABV?$stream_output_adapter@D@__crt_stdio_output@@AB_KABQBDABQAU__crt_locale_pointers@@ABQAD@?$format_validation_base@DV?$stream_output_adapter@D@__crt_stdio_output@@@__crt_stdio_output@@IAE@ABV?$stream_output_adapter@D@1@AB_KABQBDABQAU__crt_locale_pointers@@ABQAD@Z 10024320 f i libucrtd:output.obj
 0001:00023350       ??$?0ABV?$stream_output_adapter@D@__crt_stdio_output@@AB_KABQBDABQAU__crt_locale_pointers@@ABQAD@?$positional_parameter_base@DV?$stream_output_adapter@D@__crt_stdio_output@@@__crt_stdio_output@@IAE@ABV?$stream_output_adapter@D@1@AB_KABQBDABQAU__crt_locale_pointers@@ABQAD@Z 10024350 f i libucrtd:output.obj
 0001:000233d0       ??$?0ABV?$stream_output_adapter@D@__crt_stdio_output@@AB_KABQBDABQAU__crt_locale_pointers@@ABQAD@?$standard_base@DV?$stream_output_adapter@D@__crt_stdio_output@@@__crt_stdio_output@@IAE@ABV?$stream_output_adapter@D@1@AB_KABQBDABQAU__crt_locale_pointers@@ABQAD@Z 100243d0 f i libucrtd:output.obj
 0001:00023420       ??$?0ABV?$stream_output_adapter@_W@__crt_stdio_output@@AB_KABQB_WABQAU__crt_locale_pointers@@ABQAD@?$format_validation_base@_WV?$stream_output_adapter@_W@__crt_stdio_output@@@__crt_stdio_output@@IAE@ABV?$stream_output_adapter@_W@1@AB_KABQB_WABQAU__crt_locale_pointers@@ABQAD@Z 10024420 f i libucrtd:output.obj
 0001:00023450       ??$?0ABV?$stream_output_adapter@_W@__crt_stdio_output@@AB_KABQB_WABQAU__crt_locale_pointers@@ABQAD@?$positional_parameter_base@_WV?$stream_output_adapter@_W@__crt_stdio_output@@@__crt_stdio_output@@IAE@ABV?$stream_output_adapter@_W@1@AB_KABQB_WABQAU__crt_locale_pointers@@ABQAD@Z 10024450 f i libucrtd:output.obj
 0001:000234d0       ??$?0ABV?$stream_output_adapter@_W@__crt_stdio_output@@AB_KABQB_WABQAU__crt_locale_pointers@@ABQAD@?$standard_base@_WV?$stream_output_adapter@_W@__crt_stdio_output@@@__crt_stdio_output@@IAE@ABV?$stream_output_adapter@_W@1@AB_KABQB_WABQAU__crt_locale_pointers@@ABQAD@Z 100244d0 f i libucrtd:output.obj
 0001:00023520       ??$?0ABV?$string_output_adapter@D@__crt_stdio_output@@AB_KABQBDABQAU__crt_locale_pointers@@ABQAD@?$format_validation_base@DV?$string_output_adapter@D@__crt_stdio_output@@@__crt_stdio_output@@IAE@ABV?$string_output_adapter@D@1@AB_KABQBDABQAU__crt_locale_pointers@@ABQAD@Z 10024520 f i libucrtd:output.obj
 0001:00023550       ??$?0ABV?$string_output_adapter@D@__crt_stdio_output@@AB_KABQBDABQAU__crt_locale_pointers@@ABQAD@?$positional_parameter_base@DV?$string_output_adapter@D@__crt_stdio_output@@@__crt_stdio_output@@IAE@ABV?$string_output_adapter@D@1@AB_KABQBDABQAU__crt_locale_pointers@@ABQAD@Z 10024550 f i libucrtd:output.obj
 0001:000235d0       ??$?0ABV?$string_output_adapter@D@__crt_stdio_output@@AB_KABQBDABQAU__crt_locale_pointers@@ABQAD@?$standard_base@DV?$string_output_adapter@D@__crt_stdio_output@@@__crt_stdio_output@@IAE@ABV?$string_output_adapter@D@1@AB_KABQBDABQAU__crt_locale_pointers@@ABQAD@Z 100245d0 f i libucrtd:output.obj
 0001:00023620       ??$?0ABV?$string_output_adapter@_W@__crt_stdio_output@@AB_KABQB_WABQAU__crt_locale_pointers@@ABQAD@?$format_validation_base@_WV?$string_output_adapter@_W@__crt_stdio_output@@@__crt_stdio_output@@IAE@ABV?$string_output_adapter@_W@1@AB_KABQB_WABQAU__crt_locale_pointers@@ABQAD@Z 10024620 f i libucrtd:output.obj
 0001:00023650       ??$?0ABV?$string_output_adapter@_W@__crt_stdio_output@@AB_KABQB_WABQAU__crt_locale_pointers@@ABQAD@?$positional_parameter_base@_WV?$string_output_adapter@_W@__crt_stdio_output@@@__crt_stdio_output@@IAE@ABV?$string_output_adapter@_W@1@AB_KABQB_WABQAU__crt_locale_pointers@@ABQAD@Z 10024650 f i libucrtd:output.obj
 0001:000236d0       ??$?0ABV?$string_output_adapter@_W@__crt_stdio_output@@AB_KABQB_WABQAU__crt_locale_pointers@@ABQAD@?$standard_base@_WV?$string_output_adapter@_W@__crt_stdio_output@@@__crt_stdio_output@@IAE@ABV?$string_output_adapter@_W@1@AB_KABQB_WABQAU__crt_locale_pointers@@ABQAD@Z 100246d0 f i libucrtd:output.obj
 0001:000269b0       ??$count@D@formatting_buffer@__crt_stdio_output@@QBEIXZ 100279b0 f i libucrtd:output.obj
 0001:000269f0       ??$count@_W@formatting_buffer@__crt_stdio_output@@QBEIXZ 100279f0 f i libucrtd:output.obj
 0001:00026a30       ??$data@D@formatting_buffer@__crt_stdio_output@@QAEPADXZ 10027a30 f i libucrtd:output.obj
 0001:00026a70       ??$data@_W@formatting_buffer@__crt_stdio_output@@QAEPA_WXZ 10027a70 f i libucrtd:output.obj
 0001:00026ab0       ??$ensure_buffer_is_big_enough@D@formatting_buffer@__crt_stdio_output@@QAE_NI@Z 10027ab0 f i libucrtd:output.obj
 0001:00026b90       ??$ensure_buffer_is_big_enough@_W@formatting_buffer@__crt_stdio_output@@QAE_NI@Z 10027b90 f i libucrtd:output.obj
 0001:00026c80       ??$extract_argument_from_va_list@C_J@?$positional_parameter_base@DV?$stream_output_adapter@D@__crt_stdio_output@@@__crt_stdio_output@@IAE_NAA_J@Z 10027c80 f i libucrtd:output.obj
 0001:00026dc0       ??$extract_argument_from_va_list@C_J@?$positional_parameter_base@DV?$string_output_adapter@D@__crt_stdio_output@@@__crt_stdio_output@@IAE_NAA_J@Z 10027dc0 f i libucrtd:output.obj
 0001:00026f00       ??$extract_argument_from_va_list@C_J@?$positional_parameter_base@_WV?$stream_output_adapter@_W@__crt_stdio_output@@@__crt_stdio_output@@IAE_NAA_J@Z 10027f00 f i libucrtd:output.obj
 0001:00027040       ??$extract_argument_from_va_list@C_J@?$positional_parameter_base@_WV?$string_output_adapter@_W@__crt_stdio_output@@@__crt_stdio_output@@IAE_NAA_J@Z 10028040 f i libucrtd:output.obj
 0001:00027180       ??$extract_argument_from_va_list@C_J@?$standard_base@DV?$stream_output_adapter@D@__crt_stdio_output@@@__crt_stdio_output@@IAE_NAA_J@Z 10028180 f i libucrtd:output.obj
 0001:000271b0       ??$extract_argument_from_va_list@C_J@?$standard_base@DV?$string_output_adapter@D@__crt_stdio_output@@@__crt_stdio_output@@IAE_NAA_J@Z 100281b0 f i libucrtd:output.obj
 0001:000271e0       ??$extract_argument_from_va_list@C_J@?$standard_base@_WV?$stream_output_adapter@_W@__crt_stdio_output@@@__crt_stdio_output@@IAE_NAA_J@Z 100281e0 f i libucrtd:output.obj
 0001:00027210       ??$extract_argument_from_va_list@C_J@?$standard_base@_WV?$string_output_adapter@_W@__crt_stdio_output@@@__crt_stdio_output@@IAE_NAA_J@Z 10028210 f i libucrtd:output.obj
 0001:00027240       ??$extract_argument_from_va_list@E_J@?$positional_parameter_base@DV?$stream_output_adapter@D@__crt_stdio_output@@@__crt_stdio_output@@IAE_NAA_J@Z 10028240 f i libucrtd:output.obj
 0001:00027380       ??$extract_argument_from_va_list@E_J@?$positional_parameter_base@DV?$string_output_adapter@D@__crt_stdio_output@@@__crt_stdio_output@@IAE_NAA_J@Z 10028380 f i libucrtd:output.obj
 0001:000274c0       ??$extract_argument_from_va_list@E_J@?$positional_parameter_base@_WV?$stream_output_adapter@_W@__crt_stdio_output@@@__crt_stdio_output@@IAE_NAA_J@Z 100284c0 f i libucrtd:output.obj
 0001:00027600       ??$extract_argument_from_va_list@E_J@?$positional_parameter_base@_WV?$string_output_adapter@_W@__crt_stdio_output@@@__crt_stdio_output@@IAE_NAA_J@Z 10028600 f i libucrtd:output.obj
 0001:00027740       ??$extract_argument_from_va_list@E_J@?$standard_base@DV?$stream_output_adapter@D@__crt_stdio_output@@@__crt_stdio_output@@IAE_NAA_J@Z 10028740 f i libucrtd:output.obj
 0001:00027770       ??$extract_argument_from_va_list@E_J@?$standard_base@DV?$string_output_adapter@D@__crt_stdio_output@@@__crt_stdio_output@@IAE_NAA_J@Z 10028770 f i libucrtd:output.obj
 0001:000277a0       ??$extract_argument_from_va_list@E_J@?$standard_base@_WV?$stream_output_adapter@_W@__crt_stdio_output@@@__crt_stdio_output@@IAE_NAA_J@Z 100287a0 f i libucrtd:output.obj
 0001:000277d0       ??$extract_argument_from_va_list@E_J@?$standard_base@_WV?$string_output_adapter@_W@__crt_stdio_output@@@__crt_stdio_output@@IAE_NAA_J@Z 100287d0 f i libucrtd:output.obj
 0001:00027800       ??$extract_argument_from_va_list@F_J@?$positional_parameter_base@DV?$stream_output_adapter@D@__crt_stdio_output@@@__crt_stdio_output@@IAE_NAA_J@Z 10028800 f i libucrtd:output.obj
 0001:00027930       ??$extract_argument_from_va_list@F_J@?$positional_parameter_base@DV?$string_output_adapter@D@__crt_stdio_output@@@__crt_stdio_output@@IAE_NAA_J@Z 10028930 f i libucrtd:output.obj
 0001:00027a60       ??$extract_argument_from_va_list@F_J@?$positional_parameter_base@_WV?$stream_output_adapter@_W@__crt_stdio_output@@@__crt_stdio_output@@IAE_NAA_J@Z 10028a60 f i libucrtd:output.obj
 0001:00027b90       ??$extract_argument_from_va_list@F_J@?$positional_parameter_base@_WV?$string_output_adapter@_W@__crt_stdio_output@@@__crt_stdio_output@@IAE_NAA_J@Z 10028b90 f i libucrtd:output.obj
 0001:00027cc0       ??$extract_argument_from_va_list@F_J@?$standard_base@DV?$stream_output_adapter@D@__crt_stdio_output@@@__crt_stdio_output@@IAE_NAA_J@Z 10028cc0 f i libucrtd:output.obj
 0001:00027cf0       ??$extract_argument_from_va_list@F_J@?$standard_base@DV?$string_output_adapter@D@__crt_stdio_output@@@__crt_stdio_output@@IAE_NAA_J@Z 10028cf0 f i libucrtd:output.obj
 0001:00027d20       ??$extract_argument_from_va_list@F_J@?$standard_base@_WV?$stream_output_adapter@_W@__crt_stdio_output@@@__crt_stdio_output@@IAE_NAA_J@Z 10028d20 f i libucrtd:output.obj
 0001:00027d50       ??$extract_argument_from_va_list@F_J@?$standard_base@_WV?$string_output_adapter@_W@__crt_stdio_output@@@__crt_stdio_output@@IAE_NAA_J@Z 10028d50 f i libucrtd:output.obj
 0001:00027d80       ??$extract_argument_from_va_list@GD@?$positional_parameter_base@DV?$stream_output_adapter@D@__crt_stdio_output@@@__crt_stdio_output@@IAE_NAAD@Z 10028d80 f i libucrtd:output.obj
 0001:00027eb0       ??$extract_argument_from_va_list@GD@?$positional_parameter_base@DV?$string_output_adapter@D@__crt_stdio_output@@@__crt_stdio_output@@IAE_NAAD@Z 10028eb0 f i libucrtd:output.obj
 0001:00027fe0       ??$extract_argument_from_va_list@GD@?$standard_base@DV?$stream_output_adapter@D@__crt_stdio_output@@@__crt_stdio_output@@IAE_NAAD@Z 10028fe0 f i libucrtd:output.obj
 0001:00028010       ??$extract_argument_from_va_list@GD@?$standard_base@DV?$string_output_adapter@D@__crt_stdio_output@@@__crt_stdio_output@@IAE_NAAD@Z 10029010 f i libucrtd:output.obj
 0001:00028040       ??$extract_argument_from_va_list@G_J@?$positional_parameter_base@DV?$stream_output_adapter@D@__crt_stdio_output@@@__crt_stdio_output@@IAE_NAA_J@Z 10029040 f i libucrtd:output.obj
 0001:00028180       ??$extract_argument_from_va_list@G_J@?$positional_parameter_base@DV?$string_output_adapter@D@__crt_stdio_output@@@__crt_stdio_output@@IAE_NAA_J@Z 10029180 f i libucrtd:output.obj
 0001:000282c0       ??$extract_argument_from_va_list@G_J@?$positional_parameter_base@_WV?$stream_output_adapter@_W@__crt_stdio_output@@@__crt_stdio_output@@IAE_NAA_J@Z 100292c0 f i libucrtd:output.obj
 0001:00028400       ??$extract_argument_from_va_list@G_J@?$positional_parameter_base@_WV?$string_output_adapter@_W@__crt_stdio_output@@@__crt_stdio_output@@IAE_NAA_J@Z 10029400 f i libucrtd:output.obj
 0001:00028540       ??$extract_argument_from_va_list@G_J@?$standard_base@DV?$stream_output_adapter@D@__crt_stdio_output@@@__crt_stdio_output@@IAE_NAA_J@Z 10029540 f i libucrtd:output.obj
 0001:00028570       ??$extract_argument_from_va_list@G_J@?$standard_base@DV?$string_output_adapter@D@__crt_stdio_output@@@__crt_stdio_output@@IAE_NAA_J@Z 10029570 f i libucrtd:output.obj
 0001:000285a0       ??$extract_argument_from_va_list@G_J@?$standard_base@_WV?$stream_output_adapter@_W@__crt_stdio_output@@@__crt_stdio_output@@IAE_NAA_J@Z 100295a0 f i libucrtd:output.obj
 0001:000285d0       ??$extract_argument_from_va_list@G_J@?$standard_base@_WV?$string_output_adapter@_W@__crt_stdio_output@@@__crt_stdio_output@@IAE_NAA_J@Z 100295d0 f i libucrtd:output.obj
 0001:00028600       ??$extract_argument_from_va_list@H_J@?$positional_parameter_base@DV?$stream_output_adapter@D@__crt_stdio_output@@@__crt_stdio_output@@IAE_NAA_J@Z 10029600 f i libucrtd:output.obj
 0001:00028730       ??$extract_argument_from_va_list@H_J@?$positional_parameter_base@DV?$string_output_adapter@D@__crt_stdio_output@@@__crt_stdio_output@@IAE_NAA_J@Z 10029730 f i libucrtd:output.obj
 0001:00028860       ??$extract_argument_from_va_list@H_J@?$positional_parameter_base@_WV?$stream_output_adapter@_W@__crt_stdio_output@@@__crt_stdio_output@@IAE_NAA_J@Z 10029860 f i libucrtd:output.obj
 0001:00028990       ??$extract_argument_from_va_list@H_J@?$positional_parameter_base@_WV?$string_output_adapter@_W@__crt_stdio_output@@@__crt_stdio_output@@IAE_NAA_J@Z 10029990 f i libucrtd:output.obj
 0001:00028ac0       ??$extract_argument_from_va_list@H_J@?$standard_base@DV?$stream_output_adapter@D@__crt_stdio_output@@@__crt_stdio_output@@IAE_NAA_J@Z 10029ac0 f i libucrtd:output.obj
 0001:00028af0       ??$extract_argument_from_va_list@H_J@?$standard_base@DV?$string_output_adapter@D@__crt_stdio_output@@@__crt_stdio_output@@IAE_NAA_J@Z 10029af0 f i libucrtd:output.obj
 0001:00028b20       ??$extract_argument_from_va_list@H_J@?$standard_base@_WV?$stream_output_adapter@_W@__crt_stdio_output@@@__crt_stdio_output@@IAE_NAA_J@Z 10029b20 f i libucrtd:output.obj
 0001:00028b50       ??$extract_argument_from_va_list@H_J@?$standard_base@_WV?$string_output_adapter@_W@__crt_stdio_output@@@__crt_stdio_output@@IAE_NAA_J@Z 10029b50 f i libucrtd:output.obj
 0001:00028b80       ??$extract_argument_from_va_list@I_J@?$positional_parameter_base@DV?$stream_output_adapter@D@__crt_stdio_output@@@__crt_stdio_output@@IAE_NAA_J@Z 10029b80 f i libucrtd:output.obj
 0001:00028cb0       ??$extract_argument_from_va_list@I_J@?$positional_parameter_base@DV?$string_output_adapter@D@__crt_stdio_output@@@__crt_stdio_output@@IAE_NAA_J@Z 10029cb0 f i libucrtd:output.obj
 0001:00028de0       ??$extract_argument_from_va_list@I_J@?$positional_parameter_base@_WV?$stream_output_adapter@_W@__crt_stdio_output@@@__crt_stdio_output@@IAE_NAA_J@Z 10029de0 f i libucrtd:output.obj
 0001:00028f10       ??$extract_argument_from_va_list@I_J@?$positional_parameter_base@_WV?$string_output_adapter@_W@__crt_stdio_output@@@__crt_stdio_output@@IAE_NAA_J@Z 10029f10 f i libucrtd:output.obj
 0001:00029040       ??$extract_argument_from_va_list@I_J@?$standard_base@DV?$stream_output_adapter@D@__crt_stdio_output@@@__crt_stdio_output@@IAE_NAA_J@Z 1002a040 f i libucrtd:output.obj
 0001:00029070       ??$extract_argument_from_va_list@I_J@?$standard_base@DV?$string_output_adapter@D@__crt_stdio_output@@@__crt_stdio_output@@IAE_NAA_J@Z 1002a070 f i libucrtd:output.obj
 0001:000290a0       ??$extract_argument_from_va_list@I_J@?$standard_base@_WV?$stream_output_adapter@_W@__crt_stdio_output@@@__crt_stdio_output@@IAE_NAA_J@Z 1002a0a0 f i libucrtd:output.obj
 0001:000290d0       ??$extract_argument_from_va_list@I_J@?$standard_base@_WV?$string_output_adapter@_W@__crt_stdio_output@@@__crt_stdio_output@@IAE_NAA_J@Z 1002a0d0 f i libucrtd:output.obj
 0001:00029100       ??$extract_argument_from_va_list@PADPAD@?$positional_parameter_base@DV?$stream_output_adapter@D@__crt_stdio_output@@@__crt_stdio_output@@IAE_NAAPAD@Z 1002a100 f i libucrtd:output.obj
 0001:00029230       ??$extract_argument_from_va_list@PADPAD@?$positional_parameter_base@DV?$string_output_adapter@D@__crt_stdio_output@@@__crt_stdio_output@@IAE_NAAPAD@Z 1002a230 f i libucrtd:output.obj
 0001:00029360       ??$extract_argument_from_va_list@PADPAD@?$positional_parameter_base@_WV?$stream_output_adapter@_W@__crt_stdio_output@@@__crt_stdio_output@@IAE_NAAPAD@Z 1002a360 f i libucrtd:output.obj
 0001:00029490       ??$extract_argument_from_va_list@PADPAD@?$positional_parameter_base@_WV?$string_output_adapter@_W@__crt_stdio_output@@@__crt_stdio_output@@IAE_NAAPAD@Z 1002a490 f i libucrtd:output.obj
 0001:000295c0       ??$extract_argument_from_va_list@PADPAD@?$standard_base@DV?$stream_output_adapter@D@__crt_stdio_output@@@__crt_stdio_output@@IAE_NAAPAD@Z 1002a5c0 f i libucrtd:output.obj
 0001:000295f0       ??$extract_argument_from_va_list@PADPAD@?$standard_base@DV?$string_output_adapter@D@__crt_stdio_output@@@__crt_stdio_output@@IAE_NAAPAD@Z 1002a5f0 f i libucrtd:output.obj
 0001:00029620       ??$extract_argument_from_va_list@PADPAD@?$standard_base@_WV?$stream_output_adapter@_W@__crt_stdio_output@@@__crt_stdio_output@@IAE_NAAPAD@Z 1002a620 f i libucrtd:output.obj
 0001:00029650       ??$extract_argument_from_va_list@PADPAD@?$standard_base@_WV?$string_output_adapter@_W@__crt_stdio_output@@@__crt_stdio_output@@IAE_NAAPAD@Z 1002a650 f i libucrtd:output.obj
 0001:00029680       ??$extract_argument_from_va_list@PAUansi_string@?1??type_case_Z@?$output_processor@DV?$stream_output_adapter@D@__crt_stdio_output@@V?$format_validation_base@DV?$stream_output_adapter@D@__crt_stdio_output@@@2@@__crt_stdio_output@@AAE_NXZ@PAU1?1??234@AAE_NXZ@@?$standard_base@DV?$stream_output_adapter@D@__crt_stdio_output@@@__crt_stdio_output@@IAE_NAAPAUansi_string@?1??type_case_Z@?$output_processor@DV?$stream_output_adapter@D@__crt_stdio_output@@V?$format_validation_base@DV?$stream_output_adapter@D@__crt_stdio_output@@@2@@1@AAE_NXZ@@Z 1002a680 f i libucrtd:output.obj
 0001:000296b0       ??$extract_argument_from_va_list@PAUansi_string@?1??type_case_Z@?$output_processor@DV?$stream_output_adapter@D@__crt_stdio_output@@V?$positional_parameter_base@DV?$stream_output_adapter@D@__crt_stdio_output@@@2@@__crt_stdio_output@@AAE_NXZ@PAU1?1??234@AAE_NXZ@@?$positional_parameter_base@DV?$stream_output_adapter@D@__crt_stdio_output@@@__crt_stdio_output@@IAE_NAAPAUansi_string@?1??type_case_Z@?$output_processor@DV?$stream_output_adapter@D@__crt_stdio_output@@V?$positional_parameter_base@DV?$stream_output_adapter@D@__crt_stdio_output@@@2@@1@AAE_NXZ@@Z 1002a6b0 f i libucrtd:output.obj
 0001:000297e0       ??$extract_argument_from_va_list@PAUansi_string@?1??type_case_Z@?$output_processor@DV?$stream_output_adapter@D@__crt_stdio_output@@V?$positional_parameter_base@DV?$stream_output_adapter@D@__crt_stdio_output@@@2@@__crt_stdio_output@@AAE_NXZ@PAU1?1??234@AAE_NXZ@@?$standard_base@DV?$stream_output_adapter@D@__crt_stdio_output@@@__crt_stdio_output@@IAE_NAAPAUansi_string@?1??type_case_Z@?$output_processor@DV?$stream_output_adapter@D@__crt_stdio_output@@V?$positional_parameter_base@DV?$stream_output_adapter@D@__crt_stdio_output@@@2@@1@AAE_NXZ@@Z 1002a7e0 f i libucrtd:output.obj
 0001:00029810       ??$extract_argument_from_va_list@PAUansi_string@?1??type_case_Z@?$output_processor@DV?$stream_output_adapter@D@__crt_stdio_output@@V?$standard_base@DV?$stream_output_adapter@D@__crt_stdio_output@@@2@@__crt_stdio_output@@AAE_NXZ@PAU1?1??234@AAE_NXZ@@?$standard_base@DV?$stream_output_adapter@D@__crt_stdio_output@@@__crt_stdio_output@@IAE_NAAPAUansi_string@?1??type_case_Z@?$output_processor@DV?$stream_output_adapter@D@__crt_stdio_output@@V?$standard_base@DV?$stream_output_adapter@D@__crt_stdio_output@@@2@@1@AAE_NXZ@@Z 1002a810 f i libucrtd:output.obj
 0001:00029840       ??$extract_argument_from_va_list@PAUansi_string@?1??type_case_Z@?$output_processor@DV?$string_output_adapter@D@__crt_stdio_output@@V?$format_validation_base@DV?$string_output_adapter@D@__crt_stdio_output@@@2@@__crt_stdio_output@@AAE_NXZ@PAU1?1??234@AAE_NXZ@@?$standard_base@DV?$string_output_adapter@D@__crt_stdio_output@@@__crt_stdio_output@@IAE_NAAPAUansi_string@?1??type_case_Z@?$output_processor@DV?$string_output_adapter@D@__crt_stdio_output@@V?$format_validation_base@DV?$string_output_adapter@D@__crt_stdio_output@@@2@@1@AAE_NXZ@@Z 1002a840 f i libucrtd:output.obj
 0001:00029870       ??$extract_argument_from_va_list@PAUansi_string@?1??type_case_Z@?$output_processor@DV?$string_output_adapter@D@__crt_stdio_output@@V?$positional_parameter_base@DV?$string_output_adapter@D@__crt_stdio_output@@@2@@__crt_stdio_output@@AAE_NXZ@PAU1?1??234@AAE_NXZ@@?$positional_parameter_base@DV?$string_output_adapter@D@__crt_stdio_output@@@__crt_stdio_output@@IAE_NAAPAUansi_string@?1??type_case_Z@?$output_processor@DV?$string_output_adapter@D@__crt_stdio_output@@V?$positional_parameter_base@DV?$string_output_adapter@D@__crt_stdio_output@@@2@@1@AAE_NXZ@@Z 1002a870 f i libucrtd:output.obj
 0001:000299a0       ??$extract_argument_from_va_list@PAUansi_string@?1??type_case_Z@?$output_processor@DV?$string_output_adapter@D@__crt_stdio_output@@V?$positional_parameter_base@DV?$string_output_adapter@D@__crt_stdio_output@@@2@@__crt_stdio_output@@AAE_NXZ@PAU1?1??234@AAE_NXZ@@?$standard_base@DV?$string_output_adapter@D@__crt_stdio_output@@@__crt_stdio_output@@IAE_NAAPAUansi_string@?1??type_case_Z@?$output_processor@DV?$string_output_adapter@D@__crt_stdio_output@@V?$positional_parameter_base@DV?$string_output_adapter@D@__crt_stdio_output@@@2@@1@AAE_NXZ@@Z 1002a9a0 f i libucrtd:output.obj
 0001:000299d0       ??$extract_argument_from_va_list@PAUansi_string@?1??type_case_Z@?$output_processor@DV?$string_output_adapter@D@__crt_stdio_output@@V?$standard_base@DV?$string_output_adapter@D@__crt_stdio_output@@@2@@__crt_stdio_output@@AAE_NXZ@PAU1?1??234@AAE_NXZ@@?$standard_base@DV?$string_output_adapter@D@__crt_stdio_output@@@__crt_stdio_output@@IAE_NAAPAUansi_string@?1??type_case_Z@?$output_processor@DV?$string_output_adapter@D@__crt_stdio_output@@V?$standard_base@DV?$string_output_adapter@D@__crt_stdio_output@@@2@@1@AAE_NXZ@@Z 1002a9d0 f i libucrtd:output.obj
 0001:00029a00       ??$extract_argument_from_va_list@PAUansi_string@?1??type_case_Z@?$output_processor@_WV?$stream_output_adapter@_W@__crt_stdio_output@@V?$format_validation_base@_WV?$stream_output_adapter@_W@__crt_stdio_output@@@2@@__crt_stdio_output@@AAE_NXZ@PAU1?1??234@AAE_NXZ@@?$standard_base@_WV?$stream_output_adapter@_W@__crt_stdio_output@@@__crt_stdio_output@@IAE_NAAPAUansi_string@?1??type_case_Z@?$output_processor@_WV?$stream_output_adapter@_W@__crt_stdio_output@@V?$format_validation_base@_WV?$stream_output_adapter@_W@__crt_stdio_output@@@2@@1@AAE_NXZ@@Z 1002aa00 f i libucrtd:output.obj
 0001:00029a30       ??$extract_argument_from_va_list@PAUansi_string@?1??type_case_Z@?$output_processor@_WV?$stream_output_adapter@_W@__crt_stdio_output@@V?$positional_parameter_base@_WV?$stream_output_adapter@_W@__crt_stdio_output@@@2@@__crt_stdio_output@@AAE_NXZ@PAU1?1??234@AAE_NXZ@@?$positional_parameter_base@_WV?$stream_output_adapter@_W@__crt_stdio_output@@@__crt_stdio_output@@IAE_NAAPAUansi_string@?1??type_case_Z@?$output_processor@_WV?$stream_output_adapter@_W@__crt_stdio_output@@V?$positional_parameter_base@_WV?$stream_output_adapter@_W@__crt_stdio_output@@@2@@1@AAE_NXZ@@Z 1002aa30 f i libucrtd:output.obj
 0001:00029b60       ??$extract_argument_from_va_list@PAUansi_string@?1??type_case_Z@?$output_processor@_WV?$stream_output_adapter@_W@__crt_stdio_output@@V?$positional_parameter_base@_WV?$stream_output_adapter@_W@__crt_stdio_output@@@2@@__crt_stdio_output@@AAE_NXZ@PAU1?1??234@AAE_NXZ@@?$standard_base@_WV?$stream_output_adapter@_W@__crt_stdio_output@@@__crt_stdio_output@@IAE_NAAPAUansi_string@?1??type_case_Z@?$output_processor@_WV?$stream_output_adapter@_W@__crt_stdio_output@@V?$positional_parameter_base@_WV?$stream_output_adapter@_W@__crt_stdio_output@@@2@@1@AAE_NXZ@@Z 1002ab60 f i libucrtd:output.obj
 0001:00029b90       ??$extract_argument_from_va_list@PAUansi_string@?1??type_case_Z@?$output_processor@_WV?$stream_output_adapter@_W@__crt_stdio_output@@V?$standard_base@_WV?$stream_output_adapter@_W@__crt_stdio_output@@@2@@__crt_stdio_output@@AAE_NXZ@PAU1?1??234@AAE_NXZ@@?$standard_base@_WV?$stream_output_adapter@_W@__crt_stdio_output@@@__crt_stdio_output@@IAE_NAAPAUansi_string@?1??type_case_Z@?$output_processor@_WV?$stream_output_adapter@_W@__crt_stdio_output@@V?$standard_base@_WV?$stream_output_adapter@_W@__crt_stdio_output@@@2@@1@AAE_NXZ@@Z 1002ab90 f i libucrtd:output.obj
 0001:00029bc0       ??$extract_argument_from_va_list@PAUansi_string@?1??type_case_Z@?$output_processor@_WV?$string_output_adapter@_W@__crt_stdio_output@@V?$format_validation_base@_WV?$string_output_adapter@_W@__crt_stdio_output@@@2@@__crt_stdio_output@@AAE_NXZ@PAU1?1??234@AAE_NXZ@@?$standard_base@_WV?$string_output_adapter@_W@__crt_stdio_output@@@__crt_stdio_output@@IAE_NAAPAUansi_string@?1??type_case_Z@?$output_processor@_WV?$string_output_adapter@_W@__crt_stdio_output@@V?$format_validation_base@_WV?$string_output_adapter@_W@__crt_stdio_output@@@2@@1@AAE_NXZ@@Z 1002abc0 f i libucrtd:output.obj
 0001:00029bf0       ??$extract_argument_from_va_list@PAUansi_string@?1??type_case_Z@?$output_processor@_WV?$string_output_adapter@_W@__crt_stdio_output@@V?$positional_parameter_base@_WV?$string_output_adapter@_W@__crt_stdio_output@@@2@@__crt_stdio_output@@AAE_NXZ@PAU1?1??234@AAE_NXZ@@?$positional_parameter_base@_WV?$string_output_adapter@_W@__crt_stdio_output@@@__crt_stdio_output@@IAE_NAAPAUansi_string@?1??type_case_Z@?$output_processor@_WV?$string_output_adapter@_W@__crt_stdio_output@@V?$positional_parameter_base@_WV?$string_output_adapter@_W@__crt_stdio_output@@@2@@1@AAE_NXZ@@Z 1002abf0 f i libucrtd:output.obj
 0001:00029d20       ??$extract_argument_from_va_list@PAUansi_string@?1??type_case_Z@?$output_processor@_WV?$string_output_adapter@_W@__crt_stdio_output@@V?$positional_parameter_base@_WV?$string_output_adapter@_W@__crt_stdio_output@@@2@@__crt_stdio_output@@AAE_NXZ@PAU1?1??234@AAE_NXZ@@?$standard_base@_WV?$string_output_adapter@_W@__crt_stdio_output@@@__crt_stdio_output@@IAE_NAAPAUansi_string@?1??type_case_Z@?$output_processor@_WV?$string_output_adapter@_W@__crt_stdio_output@@V?$positional_parameter_base@_WV?$string_output_adapter@_W@__crt_stdio_output@@@2@@1@AAE_NXZ@@Z 1002ad20 f i libucrtd:output.obj
 0001:00029d50       ??$extract_argument_from_va_list@PAUansi_string@?1??type_case_Z@?$output_processor@_WV?$string_output_adapter@_W@__crt_stdio_output@@V?$standard_base@_WV?$string_output_adapter@_W@__crt_stdio_output@@@2@@__crt_stdio_output@@AAE_NXZ@PAU1?1??234@AAE_NXZ@@?$standard_base@_WV?$string_output_adapter@_W@__crt_stdio_output@@@__crt_stdio_output@@IAE_NAAPAUansi_string@?1??type_case_Z@?$output_processor@_WV?$string_output_adapter@_W@__crt_stdio_output@@V?$standard_base@_WV?$string_output_adapter@_W@__crt_stdio_output@@@2@@1@AAE_NXZ@@Z 1002ad50 f i libucrtd:output.obj
 0001:00029d80       ??$extract_argument_from_va_list@PAXPAX@?$positional_parameter_base@DV?$stream_output_adapter@D@__crt_stdio_output@@@__crt_stdio_output@@IAE_NAAPAX@Z 1002ad80 f i libucrtd:output.obj
 0001:00029eb0       ??$extract_argument_from_va_list@PAXPAX@?$positional_parameter_base@DV?$string_output_adapter@D@__crt_stdio_output@@@__crt_stdio_output@@IAE_NAAPAX@Z 1002aeb0 f i libucrtd:output.obj
 0001:00029fe0       ??$extract_argument_from_va_list@PAXPAX@?$positional_parameter_base@_WV?$stream_output_adapter@_W@__crt_stdio_output@@@__crt_stdio_output@@IAE_NAAPAX@Z 1002afe0 f i libucrtd:output.obj
 0001:0002a110       ??$extract_argument_from_va_list@PAXPAX@?$positional_parameter_base@_WV?$string_output_adapter@_W@__crt_stdio_output@@@__crt_stdio_output@@IAE_NAAPAX@Z 1002b110 f i libucrtd:output.obj
 0001:0002a240       ??$extract_argument_from_va_list@PAXPAX@?$standard_base@DV?$stream_output_adapter@D@__crt_stdio_output@@@__crt_stdio_output@@IAE_NAAPAX@Z 1002b240 f i libucrtd:output.obj
 0001:0002a270       ??$extract_argument_from_va_list@PAXPAX@?$standard_base@DV?$string_output_adapter@D@__crt_stdio_output@@@__crt_stdio_output@@IAE_NAAPAX@Z 1002b270 f i libucrtd:output.obj
 0001:0002a2a0       ??$extract_argument_from_va_list@PAXPAX@?$standard_base@_WV?$stream_output_adapter@_W@__crt_stdio_output@@@__crt_stdio_output@@IAE_NAAPAX@Z 1002b2a0 f i libucrtd:output.obj
 0001:0002a2d0       ??$extract_argument_from_va_list@PAXPAX@?$standard_base@_WV?$string_output_adapter@_W@__crt_stdio_output@@@__crt_stdio_output@@IAE_NAAPAX@Z 1002b2d0 f i libucrtd:output.obj
 0001:0002a300       ??$extract_argument_from_va_list@U_CRT_DOUBLE@@U1@@?$positional_parameter_base@DV?$stream_output_adapter@D@__crt_stdio_output@@@__crt_stdio_output@@IAE_NAAU_CRT_DOUBLE@@@Z 1002b300 f i libucrtd:output.obj
 0001:0002a460       ??$extract_argument_from_va_list@U_CRT_DOUBLE@@U1@@?$positional_parameter_base@DV?$string_output_adapter@D@__crt_stdio_output@@@__crt_stdio_output@@IAE_NAAU_CRT_DOUBLE@@@Z 1002b460 f i libucrtd:output.obj
 0001:0002a5c0       ??$extract_argument_from_va_list@U_CRT_DOUBLE@@U1@@?$positional_parameter_base@_WV?$stream_output_adapter@_W@__crt_stdio_output@@@__crt_stdio_output@@IAE_NAAU_CRT_DOUBLE@@@Z 1002b5c0 f i libucrtd:output.obj
 0001:0002a720       ??$extract_argument_from_va_list@U_CRT_DOUBLE@@U1@@?$positional_parameter_base@_WV?$string_output_adapter@_W@__crt_stdio_output@@@__crt_stdio_output@@IAE_NAAU_CRT_DOUBLE@@@Z 1002b720 f i libucrtd:output.obj
 0001:0002a880       ??$extract_argument_from_va_list@U_CRT_DOUBLE@@U1@@?$standard_base@DV?$stream_output_adapter@D@__crt_stdio_output@@@__crt_stdio_output@@IAE_NAAU_CRT_DOUBLE@@@Z 1002b880 f i libucrtd:output.obj
 0001:0002a8d0       ??$extract_argument_from_va_list@U_CRT_DOUBLE@@U1@@?$standard_base@DV?$string_output_adapter@D@__crt_stdio_output@@@__crt_stdio_output@@IAE_NAAU_CRT_DOUBLE@@@Z 1002b8d0 f i libucrtd:output.obj
 0001:0002a920       ??$extract_argument_from_va_list@U_CRT_DOUBLE@@U1@@?$standard_base@_WV?$stream_output_adapter@_W@__crt_stdio_output@@@__crt_stdio_output@@IAE_NAAU_CRT_DOUBLE@@@Z 1002b920 f i libucrtd:output.obj
 0001:0002a970       ??$extract_argument_from_va_list@U_CRT_DOUBLE@@U1@@?$standard_base@_WV?$string_output_adapter@_W@__crt_stdio_output@@@__crt_stdio_output@@IAE_NAAU_CRT_DOUBLE@@@Z 1002b970 f i libucrtd:output.obj
 0001:0002a9c0       ??$extract_argument_from_va_list@_J_J@?$positional_parameter_base@DV?$stream_output_adapter@D@__crt_stdio_output@@@__crt_stdio_output@@IAE_NAA_J@Z 1002b9c0 f i libucrtd:output.obj
 0001:0002aaf0       ??$extract_argument_from_va_list@_J_J@?$positional_parameter_base@DV?$string_output_adapter@D@__crt_stdio_output@@@__crt_stdio_output@@IAE_NAA_J@Z 1002baf0 f i libucrtd:output.obj
 0001:0002ac20       ??$extract_argument_from_va_list@_J_J@?$positional_parameter_base@_WV?$stream_output_adapter@_W@__crt_stdio_output@@@__crt_stdio_output@@IAE_NAA_J@Z 1002bc20 f i libucrtd:output.obj
 0001:0002ad50       ??$extract_argument_from_va_list@_J_J@?$positional_parameter_base@_WV?$string_output_adapter@_W@__crt_stdio_output@@@__crt_stdio_output@@IAE_NAA_J@Z 1002bd50 f i libucrtd:output.obj
 0001:0002ae80       ??$extract_argument_from_va_list@_J_J@?$standard_base@DV?$stream_output_adapter@D@__crt_stdio_output@@@__crt_stdio_output@@IAE_NAA_J@Z 1002be80 f i libucrtd:output.obj
 0001:0002aeb0       ??$extract_argument_from_va_list@_J_J@?$standard_base@DV?$string_output_adapter@D@__crt_stdio_output@@@__crt_stdio_output@@IAE_NAA_J@Z 1002beb0 f i libucrtd:output.obj
 0001:0002aee0       ??$extract_argument_from_va_list@_J_J@?$standard_base@_WV?$stream_output_adapter@_W@__crt_stdio_output@@@__crt_stdio_output@@IAE_NAA_J@Z 1002bee0 f i libucrtd:output.obj
 0001:0002af10       ??$extract_argument_from_va_list@_J_J@?$standard_base@_WV?$string_output_adapter@_W@__crt_stdio_output@@@__crt_stdio_output@@IAE_NAA_J@Z 1002bf10 f i libucrtd:output.obj
 0001:0002af40       ??$extract_argument_from_va_list@_K_J@?$positional_parameter_base@DV?$stream_output_adapter@D@__crt_stdio_output@@@__crt_stdio_output@@IAE_NAA_J@Z 1002bf40 f i libucrtd:output.obj
 0001:0002b070       ??$extract_argument_from_va_list@_K_J@?$positional_parameter_base@DV?$string_output_adapter@D@__crt_stdio_output@@@__crt_stdio_output@@IAE_NAA_J@Z 1002c070 f i libucrtd:output.obj
 0001:0002b1a0       ??$extract_argument_from_va_list@_K_J@?$positional_parameter_base@_WV?$stream_output_adapter@_W@__crt_stdio_output@@@__crt_stdio_output@@IAE_NAA_J@Z 1002c1a0 f i libucrtd:output.obj
 0001:0002b2d0       ??$extract_argument_from_va_list@_K_J@?$positional_parameter_base@_WV?$string_output_adapter@_W@__crt_stdio_output@@@__crt_stdio_output@@IAE_NAA_J@Z 1002c2d0 f i libucrtd:output.obj
 0001:0002b400       ??$extract_argument_from_va_list@_K_J@?$standard_base@DV?$stream_output_adapter@D@__crt_stdio_output@@@__crt_stdio_output@@IAE_NAA_J@Z 1002c400 f i libucrtd:output.obj
 0001:0002b430       ??$extract_argument_from_va_list@_K_J@?$standard_base@DV?$string_output_adapter@D@__crt_stdio_output@@@__crt_stdio_output@@IAE_NAA_J@Z 1002c430 f i libucrtd:output.obj
 0001:0002b460       ??$extract_argument_from_va_list@_K_J@?$standard_base@_WV?$stream_output_adapter@_W@__crt_stdio_output@@@__crt_stdio_output@@IAE_NAA_J@Z 1002c460 f i libucrtd:output.obj
 0001:0002b490       ??$extract_argument_from_va_list@_K_J@?$standard_base@_WV?$string_output_adapter@_W@__crt_stdio_output@@@__crt_stdio_output@@IAE_NAA_J@Z 1002c490 f i libucrtd:output.obj
 0001:0002b4c0       ??$extract_argument_from_va_list@_W_W@?$positional_parameter_base@DV?$stream_output_adapter@D@__crt_stdio_output@@@__crt_stdio_output@@IAE_NAA_W@Z 1002c4c0 f i libucrtd:output.obj
 0001:0002b5f0       ??$extract_argument_from_va_list@_W_W@?$positional_parameter_base@DV?$string_output_adapter@D@__crt_stdio_output@@@__crt_stdio_output@@IAE_NAA_W@Z 1002c5f0 f i libucrtd:output.obj
 0001:0002b720       ??$extract_argument_from_va_list@_W_W@?$positional_parameter_base@_WV?$stream_output_adapter@_W@__crt_stdio_output@@@__crt_stdio_output@@IAE_NAA_W@Z 1002c720 f i libucrtd:output.obj
 0001:0002b850       ??$extract_argument_from_va_list@_W_W@?$positional_parameter_base@_WV?$string_output_adapter@_W@__crt_stdio_output@@@__crt_stdio_output@@IAE_NAA_W@Z 1002c850 f i libucrtd:output.obj
 0001:0002b980       ??$extract_argument_from_va_list@_W_W@?$standard_base@DV?$stream_output_adapter@D@__crt_stdio_output@@@__crt_stdio_output@@IAE_NAA_W@Z 1002c980 f i libucrtd:output.obj
 0001:0002b9b0       ??$extract_argument_from_va_list@_W_W@?$standard_base@DV?$string_output_adapter@D@__crt_stdio_output@@@__crt_stdio_output@@IAE_NAA_W@Z 1002c9b0 f i libucrtd:output.obj
 0001:0002b9e0       ??$extract_argument_from_va_list@_W_W@?$standard_base@_WV?$stream_output_adapter@_W@__crt_stdio_output@@@__crt_stdio_output@@IAE_NAA_W@Z 1002c9e0 f i libucrtd:output.obj
 0001:0002ba10       ??$extract_argument_from_va_list@_W_W@?$standard_base@_WV?$string_output_adapter@_W@__crt_stdio_output@@@__crt_stdio_output@@IAE_NAA_W@Z 1002ca10 f i libucrtd:output.obj
 0001:0002ba40       ??$get_parameter_type@D@?$positional_parameter_base@DV?$stream_output_adapter@D@__crt_stdio_output@@@__crt_stdio_output@@CA?AW4parameter_type@01@PAD@Z 1002ca40 f i libucrtd:output.obj
 0001:0002ba50       ??$get_parameter_type@D@?$positional_parameter_base@DV?$string_output_adapter@D@__crt_stdio_output@@@__crt_stdio_output@@CA?AW4parameter_type@01@PAD@Z 1002ca50 f i libucrtd:output.obj
 0001:0002ba60       ??$get_parameter_type@D@?$positional_parameter_base@_WV?$stream_output_adapter@_W@__crt_stdio_output@@@__crt_stdio_output@@CA?AW4parameter_type@01@PAD@Z 1002ca60 f i libucrtd:output.obj
 0001:0002ba70       ??$get_parameter_type@D@?$positional_parameter_base@_WV?$string_output_adapter@_W@__crt_stdio_output@@@__crt_stdio_output@@CA?AW4parameter_type@01@PAD@Z 1002ca70 f i libucrtd:output.obj
 0001:0002ba80       ??$get_parameter_type@Uansi_string@?1??type_case_Z@?$output_processor@DV?$stream_output_adapter@D@__crt_stdio_output@@V?$positional_parameter_base@DV?$stream_output_adapter@D@__crt_stdio_output@@@2@@__crt_stdio_output@@AAE_NXZ@@?$positional_parameter_base@DV?$stream_output_adapter@D@__crt_stdio_output@@@__crt_stdio_output@@CA?AW4parameter_type@01@PAUansi_string@?1??type_case_Z@?$output_processor@DV?$stream_output_adapter@D@__crt_stdio_output@@V?$positional_parameter_base@DV?$stream_output_adapter@D@__crt_stdio_output@@@2@@1@AAE_NXZ@@Z 1002ca80 f i libucrtd:output.obj
 0001:0002ba90       ??$get_parameter_type@Uansi_string@?1??type_case_Z@?$output_processor@DV?$string_output_adapter@D@__crt_stdio_output@@V?$positional_parameter_base@DV?$string_output_adapter@D@__crt_stdio_output@@@2@@__crt_stdio_output@@AAE_NXZ@@?$positional_parameter_base@DV?$string_output_adapter@D@__crt_stdio_output@@@__crt_stdio_output@@CA?AW4parameter_type@01@PAUansi_string@?1??type_case_Z@?$output_processor@DV?$string_output_adapter@D@__crt_stdio_output@@V?$positional_parameter_base@DV?$string_output_adapter@D@__crt_stdio_output@@@2@@1@AAE_NXZ@@Z 1002ca90 f i libucrtd:output.obj
 0001:0002baa0       ??$get_parameter_type@Uansi_string@?1??type_case_Z@?$output_processor@_WV?$stream_output_adapter@_W@__crt_stdio_output@@V?$positional_parameter_base@_WV?$stream_output_adapter@_W@__crt_stdio_output@@@2@@__crt_stdio_output@@AAE_NXZ@@?$positional_parameter_base@_WV?$stream_output_adapter@_W@__crt_stdio_output@@@__crt_stdio_output@@CA?AW4parameter_type@01@PAUansi_string@?1??type_case_Z@?$output_processor@_WV?$stream_output_adapter@_W@__crt_stdio_output@@V?$positional_parameter_base@_WV?$stream_output_adapter@_W@__crt_stdio_output@@@2@@1@AAE_NXZ@@Z 1002caa0 f i libucrtd:output.obj
 0001:0002bab0       ??$get_parameter_type@Uansi_string@?1??type_case_Z@?$output_processor@_WV?$string_output_adapter@_W@__crt_stdio_output@@V?$positional_parameter_base@_WV?$string_output_adapter@_W@__crt_stdio_output@@@2@@__crt_stdio_output@@AAE_NXZ@@?$positional_parameter_base@_WV?$string_output_adapter@_W@__crt_stdio_output@@@__crt_stdio_output@@CA?AW4parameter_type@01@PAUansi_string@?1??type_case_Z@?$output_processor@_WV?$string_output_adapter@_W@__crt_stdio_output@@V?$positional_parameter_base@_WV?$string_output_adapter@_W@__crt_stdio_output@@@2@@1@AAE_NXZ@@Z 1002cab0 f i libucrtd:output.obj
 0001:0002bac0       ??$get_parameter_type@X@?$positional_parameter_base@DV?$stream_output_adapter@D@__crt_stdio_output@@@__crt_stdio_output@@CA?AW4parameter_type@01@PAX@Z 1002cac0 f i libucrtd:output.obj
 0001:0002bad0       ??$get_parameter_type@X@?$positional_parameter_base@DV?$string_output_adapter@D@__crt_stdio_output@@@__crt_stdio_output@@CA?AW4parameter_type@01@PAX@Z 1002cad0 f i libucrtd:output.obj
 0001:0002bae0       ??$get_parameter_type@X@?$positional_parameter_base@_WV?$stream_output_adapter@_W@__crt_stdio_output@@@__crt_stdio_output@@CA?AW4parameter_type@01@PAX@Z 1002cae0 f i libucrtd:output.obj
 0001:0002baf0       ??$get_parameter_type@X@?$positional_parameter_base@_WV?$string_output_adapter@_W@__crt_stdio_output@@@__crt_stdio_output@@CA?AW4parameter_type@01@PAX@Z 1002caf0 f i libucrtd:output.obj
 0001:0002bb00       ??$is_character_specifier@D@?$positional_parameter_base@DV?$stream_output_adapter@D@__crt_stdio_output@@@__crt_stdio_output@@CA_ND@Z 1002cb00 f i libucrtd:output.obj
 0001:0002bb30       ??$is_character_specifier@D@?$positional_parameter_base@DV?$string_output_adapter@D@__crt_stdio_output@@@__crt_stdio_output@@CA_ND@Z 1002cb30 f i libucrtd:output.obj
 0001:0002bb60       ??$is_character_specifier@_W@?$positional_parameter_base@_WV?$stream_output_adapter@_W@__crt_stdio_output@@@__crt_stdio_output@@CA_N_W@Z 1002cb60 f i libucrtd:output.obj
 0001:0002bb90       ??$is_character_specifier@_W@?$positional_parameter_base@_WV?$string_output_adapter@_W@__crt_stdio_output@@@__crt_stdio_output@@CA_N_W@Z 1002cb90 f i libucrtd:output.obj
 0001:0002bbc0       ??$is_integral_specifier@D@?$positional_parameter_base@DV?$stream_output_adapter@D@__crt_stdio_output@@@__crt_stdio_output@@CA_ND@Z 1002cbc0 f i libucrtd:output.obj
 0001:0002bc20       ??$is_integral_specifier@D@?$positional_parameter_base@DV?$string_output_adapter@D@__crt_stdio_output@@@__crt_stdio_output@@CA_ND@Z 1002cc20 f i libucrtd:output.obj
 0001:0002bc80       ??$is_integral_specifier@_W@?$positional_parameter_base@_WV?$stream_output_adapter@_W@__crt_stdio_output@@@__crt_stdio_output@@CA_N_W@Z 1002cc80 f i libucrtd:output.obj
 0001:0002bce0       ??$is_integral_specifier@_W@?$positional_parameter_base@_WV?$string_output_adapter@_W@__crt_stdio_output@@@__crt_stdio_output@@CA_N_W@Z 1002cce0 f i libucrtd:output.obj
 0001:0002bd40       ??$is_pointer_specifier@D@?$positional_parameter_base@DV?$stream_output_adapter@D@__crt_stdio_output@@@__crt_stdio_output@@CA_ND@Z 1002cd40 f i libucrtd:output.obj
 0001:0002bd70       ??$is_pointer_specifier@D@?$positional_parameter_base@DV?$string_output_adapter@D@__crt_stdio_output@@@__crt_stdio_output@@CA_ND@Z 1002cd70 f i libucrtd:output.obj
 0001:0002bda0       ??$is_pointer_specifier@_W@?$positional_parameter_base@_WV?$stream_output_adapter@_W@__crt_stdio_output@@@__crt_stdio_output@@CA_N_W@Z 1002cda0 f i libucrtd:output.obj
 0001:0002bdd0       ??$is_pointer_specifier@_W@?$positional_parameter_base@_WV?$string_output_adapter@_W@__crt_stdio_output@@@__crt_stdio_output@@CA_N_W@Z 1002cdd0 f i libucrtd:output.obj
 0001:0002be00       ??$is_string_specifier@D@?$positional_parameter_base@DV?$stream_output_adapter@D@__crt_stdio_output@@@__crt_stdio_output@@CA_ND@Z 1002ce00 f i libucrtd:output.obj
 0001:0002be30       ??$is_string_specifier@D@?$positional_parameter_base@DV?$string_output_adapter@D@__crt_stdio_output@@@__crt_stdio_output@@CA_ND@Z 1002ce30 f i libucrtd:output.obj
 0001:0002be60       ??$is_string_specifier@_W@?$positional_parameter_base@_WV?$stream_output_adapter@_W@__crt_stdio_output@@@__crt_stdio_output@@CA_N_W@Z 1002ce60 f i libucrtd:output.obj
 0001:0002be90       ??$is_string_specifier@_W@?$positional_parameter_base@_WV?$string_output_adapter@_W@__crt_stdio_output@@@__crt_stdio_output@@CA_N_W@Z 1002ce90 f i libucrtd:output.obj
 0001:0002bec0       ??$is_wide_character_specifier@D@__crt_stdio_output@@YA_N_KDW4length_modifier@0@@Z 1002cec0 f i libucrtd:output.obj
 0001:0002bf40       ??$is_wide_character_specifier@_W@__crt_stdio_output@@YA_N_K_WW4length_modifier@0@@Z 1002cf40 f i libucrtd:output.obj
 0001:0002c000       ??$peek_va_arg@C@__crt_stdio_output@@YACPAD@Z 1002d000 f i libucrtd:output.obj
 0001:0002c020       ??$peek_va_arg@E@__crt_stdio_output@@YAEPAD@Z 1002d020 f i libucrtd:output.obj
 0001:0002c040       ??$peek_va_arg@F@__crt_stdio_output@@YAFPAD@Z 1002d040 f i libucrtd:output.obj
 0001:0002c060       ??$peek_va_arg@G@__crt_stdio_output@@YAGPAD@Z 1002d060 f i libucrtd:output.obj
 0001:0002c080       ??$peek_va_arg@H@__crt_stdio_output@@YAHPAD@Z 1002d080 f i libucrtd:output.obj
 0001:0002c0a0       ??$peek_va_arg@I@__crt_stdio_output@@YAIPAD@Z 1002d0a0 f i libucrtd:output.obj
 0001:0002c0c0       ??$peek_va_arg@PAD@__crt_stdio_output@@YAPADPAD@Z 1002d0c0 f i libucrtd:output.obj
 0001:0002c0e0       ??$peek_va_arg@PAUansi_string@?1??type_case_Z@?$output_processor@DV?$stream_output_adapter@D@__crt_stdio_output@@V?$positional_parameter_base@DV?$stream_output_adapter@D@__crt_stdio_output@@@2@@__crt_stdio_output@@AAE_NXZ@@__crt_stdio_output@@YAPAUansi_string@?1??type_case_Z@?$output_processor@DV?$stream_output_adapter@D@__crt_stdio_output@@V?$positional_parameter_base@DV?$stream_output_adapter@D@__crt_stdio_output@@@2@@0@AAE_NXZ@PAD@Z 1002d0e0 f i libucrtd:output.obj
 0001:0002c100       ??$peek_va_arg@PAUansi_string@?1??type_case_Z@?$output_processor@DV?$string_output_adapter@D@__crt_stdio_output@@V?$positional_parameter_base@DV?$string_output_adapter@D@__crt_stdio_output@@@2@@__crt_stdio_output@@AAE_NXZ@@__crt_stdio_output@@YAPAUansi_string@?1??type_case_Z@?$output_processor@DV?$string_output_adapter@D@__crt_stdio_output@@V?$positional_parameter_base@DV?$string_output_adapter@D@__crt_stdio_output@@@2@@0@AAE_NXZ@PAD@Z 1002d100 f i libucrtd:output.obj
 0001:0002c120       ??$peek_va_arg@PAUansi_string@?1??type_case_Z@?$output_processor@_WV?$stream_output_adapter@_W@__crt_stdio_output@@V?$positional_parameter_base@_WV?$stream_output_adapter@_W@__crt_stdio_output@@@2@@__crt_stdio_output@@AAE_NXZ@@__crt_stdio_output@@YAPAUansi_string@?1??type_case_Z@?$output_processor@_WV?$stream_output_adapter@_W@__crt_stdio_output@@V?$positional_parameter_base@_WV?$stream_output_adapter@_W@__crt_stdio_output@@@2@@0@AAE_NXZ@PAD@Z 1002d120 f i libucrtd:output.obj
 0001:0002c140       ??$peek_va_arg@PAUansi_string@?1??type_case_Z@?$output_processor@_WV?$string_output_adapter@_W@__crt_stdio_output@@V?$positional_parameter_base@_WV?$string_output_adapter@_W@__crt_stdio_output@@@2@@__crt_stdio_output@@AAE_NXZ@@__crt_stdio_output@@YAPAUansi_string@?1??type_case_Z@?$output_processor@_WV?$string_output_adapter@_W@__crt_stdio_output@@V?$positional_parameter_base@_WV?$string_output_adapter@_W@__crt_stdio_output@@@2@@0@AAE_NXZ@PAD@Z 1002d140 f i libucrtd:output.obj
 0001:0002c160       ??$peek_va_arg@PAX@__crt_stdio_output@@YAPAXPAD@Z 1002d160 f i libucrtd:output.obj
 0001:0002c180       ??$peek_va_arg@U_CRT_DOUBLE@@@__crt_stdio_output@@YA?AU_CRT_DOUBLE@@PAD@Z 1002d180 f i libucrtd:output.obj
 0001:0002c1a0       ??$peek_va_arg@_J@__crt_stdio_output@@YA_JPAD@Z 1002d1a0 f i libucrtd:output.obj
 0001:0002c1c0       ??$peek_va_arg@_K@__crt_stdio_output@@YA_KPAD@Z 1002d1c0 f i libucrtd:output.obj
 0001:0002c1e0       ??$peek_va_arg@_W@__crt_stdio_output@@YA_WPAD@Z 1002d1e0 f i libucrtd:output.obj
 0001:0002c200       ??$puttc_nolock@ABDPAU_iobuf@@@?$__crt_char_traits@D@@SAHABD$$QAPAU_iobuf@@@Z 1002d200 f i libucrtd:output.obj
 0001:0002c220       ??$puttc_nolock@AB_WPAU_iobuf@@@?$__crt_char_traits@_W@@SAGAB_W$$QAPAU_iobuf@@@Z 1002d220 f i libucrtd:output.obj
 0001:0002c240       ??$read_va_arg@C@__crt_stdio_output@@YACAAPAD@Z 1002d240 f i libucrtd:output.obj
 0001:0002c260       ??$read_va_arg@E@__crt_stdio_output@@YAEAAPAD@Z 1002d260 f i libucrtd:output.obj
 0001:0002c280       ??$read_va_arg@F@__crt_stdio_output@@YAFAAPAD@Z 1002d280 f i libucrtd:output.obj
 0001:0002c2a0       ??$read_va_arg@G@__crt_stdio_output@@YAGAAPAD@Z 1002d2a0 f i libucrtd:output.obj
 0001:0002c2c0       ??$read_va_arg@H@__crt_stdio_output@@YAHAAPAD@Z 1002d2c0 f i libucrtd:output.obj
 0001:0002c2e0       ??$read_va_arg@I@__crt_stdio_output@@YAIAAPAD@Z 1002d2e0 f i libucrtd:output.obj
 0001:0002c300       ??$read_va_arg@PAD@__crt_stdio_output@@YAPADAAPAD@Z 1002d300 f i libucrtd:output.obj
 0001:0002c320       ??$read_va_arg@PAUansi_string@?1??type_case_Z@?$output_processor@DV?$stream_output_adapter@D@__crt_stdio_output@@V?$format_validation_base@DV?$stream_output_adapter@D@__crt_stdio_output@@@2@@__crt_stdio_output@@AAE_NXZ@@__crt_stdio_output@@YAPAUansi_string@?1??type_case_Z@?$output_processor@DV?$stream_output_adapter@D@__crt_stdio_output@@V?$format_validation_base@DV?$stream_output_adapter@D@__crt_stdio_output@@@2@@0@AAE_NXZ@AAPAD@Z 1002d320 f i libucrtd:output.obj
 0001:0002c340       ??$read_va_arg@PAUansi_string@?1??type_case_Z@?$output_processor@DV?$stream_output_adapter@D@__crt_stdio_output@@V?$positional_parameter_base@DV?$stream_output_adapter@D@__crt_stdio_output@@@2@@__crt_stdio_output@@AAE_NXZ@@__crt_stdio_output@@YAPAUansi_string@?1??type_case_Z@?$output_processor@DV?$stream_output_adapter@D@__crt_stdio_output@@V?$positional_parameter_base@DV?$stream_output_adapter@D@__crt_stdio_output@@@2@@0@AAE_NXZ@AAPAD@Z 1002d340 f i libucrtd:output.obj
 0001:0002c360       ??$read_va_arg@PAUansi_string@?1??type_case_Z@?$output_processor@DV?$stream_output_adapter@D@__crt_stdio_output@@V?$standard_base@DV?$stream_output_adapter@D@__crt_stdio_output@@@2@@__crt_stdio_output@@AAE_NXZ@@__crt_stdio_output@@YAPAUansi_string@?1??type_case_Z@?$output_processor@DV?$stream_output_adapter@D@__crt_stdio_output@@V?$standard_base@DV?$stream_output_adapter@D@__crt_stdio_output@@@2@@0@AAE_NXZ@AAPAD@Z 1002d360 f i libucrtd:output.obj
 0001:0002c380       ??$read_va_arg@PAUansi_string@?1??type_case_Z@?$output_processor@DV?$string_output_adapter@D@__crt_stdio_output@@V?$format_validation_base@DV?$string_output_adapter@D@__crt_stdio_output@@@2@@__crt_stdio_output@@AAE_NXZ@@__crt_stdio_output@@YAPAUansi_string@?1??type_case_Z@?$output_processor@DV?$string_output_adapter@D@__crt_stdio_output@@V?$format_validation_base@DV?$string_output_adapter@D@__crt_stdio_output@@@2@@0@AAE_NXZ@AAPAD@Z 1002d380 f i libucrtd:output.obj
 0001:0002c3a0       ??$read_va_arg@PAUansi_string@?1??type_case_Z@?$output_processor@DV?$string_output_adapter@D@__crt_stdio_output@@V?$positional_parameter_base@DV?$string_output_adapter@D@__crt_stdio_output@@@2@@__crt_stdio_output@@AAE_NXZ@@__crt_stdio_output@@YAPAUansi_string@?1??type_case_Z@?$output_processor@DV?$string_output_adapter@D@__crt_stdio_output@@V?$positional_parameter_base@DV?$string_output_adapter@D@__crt_stdio_output@@@2@@0@AAE_NXZ@AAPAD@Z 1002d3a0 f i libucrtd:output.obj
 0001:0002c3c0       ??$read_va_arg@PAUansi_string@?1??type_case_Z@?$output_processor@DV?$string_output_adapter@D@__crt_stdio_output@@V?$standard_base@DV?$string_output_adapter@D@__crt_stdio_output@@@2@@__crt_stdio_output@@AAE_NXZ@@__crt_stdio_output@@YAPAUansi_string@?1??type_case_Z@?$output_processor@DV?$string_output_adapter@D@__crt_stdio_output@@V?$standard_base@DV?$string_output_adapter@D@__crt_stdio_output@@@2@@0@AAE_NXZ@AAPAD@Z 1002d3c0 f i libucrtd:output.obj
 0001:0002c3e0       ??$read_va_arg@PAUansi_string@?1??type_case_Z@?$output_processor@_WV?$stream_output_adapter@_W@__crt_stdio_output@@V?$format_validation_base@_WV?$stream_output_adapter@_W@__crt_stdio_output@@@2@@__crt_stdio_output@@AAE_NXZ@@__crt_stdio_output@@YAPAUansi_string@?1??type_case_Z@?$output_processor@_WV?$stream_output_adapter@_W@__crt_stdio_output@@V?$format_validation_base@_WV?$stream_output_adapter@_W@__crt_stdio_output@@@2@@0@AAE_NXZ@AAPAD@Z 1002d3e0 f i libucrtd:output.obj
 0001:0002c400       ??$read_va_arg@PAUansi_string@?1??type_case_Z@?$output_processor@_WV?$stream_output_adapter@_W@__crt_stdio_output@@V?$positional_parameter_base@_WV?$stream_output_adapter@_W@__crt_stdio_output@@@2@@__crt_stdio_output@@AAE_NXZ@@__crt_stdio_output@@YAPAUansi_string@?1??type_case_Z@?$output_processor@_WV?$stream_output_adapter@_W@__crt_stdio_output@@V?$positional_parameter_base@_WV?$stream_output_adapter@_W@__crt_stdio_output@@@2@@0@AAE_NXZ@AAPAD@Z 1002d400 f i libucrtd:output.obj
 0001:0002c420       ??$read_va_arg@PAUansi_string@?1??type_case_Z@?$output_processor@_WV?$stream_output_adapter@_W@__crt_stdio_output@@V?$standard_base@_WV?$stream_output_adapter@_W@__crt_stdio_output@@@2@@__crt_stdio_output@@AAE_NXZ@@__crt_stdio_output@@YAPAUansi_string@?1??type_case_Z@?$output_processor@_WV?$stream_output_adapter@_W@__crt_stdio_output@@V?$standard_base@_WV?$stream_output_adapter@_W@__crt_stdio_output@@@2@@0@AAE_NXZ@AAPAD@Z 1002d420 f i libucrtd:output.obj
 0001:0002c440       ??$read_va_arg@PAUansi_string@?1??type_case_Z@?$output_processor@_WV?$string_output_adapter@_W@__crt_stdio_output@@V?$format_validation_base@_WV?$string_output_adapter@_W@__crt_stdio_output@@@2@@__crt_stdio_output@@AAE_NXZ@@__crt_stdio_output@@YAPAUansi_string@?1??type_case_Z@?$output_processor@_WV?$string_output_adapter@_W@__crt_stdio_output@@V?$format_validation_base@_WV?$string_output_adapter@_W@__crt_stdio_output@@@2@@0@AAE_NXZ@AAPAD@Z 1002d440 f i libucrtd:output.obj
 0001:0002c460       ??$read_va_arg@PAUansi_string@?1??type_case_Z@?$output_processor@_WV?$string_output_adapter@_W@__crt_stdio_output@@V?$positional_parameter_base@_WV?$string_output_adapter@_W@__crt_stdio_output@@@2@@__crt_stdio_output@@AAE_NXZ@@__crt_stdio_output@@YAPAUansi_string@?1??type_case_Z@?$output_processor@_WV?$string_output_adapter@_W@__crt_stdio_output@@V?$positional_parameter_base@_WV?$string_output_adapter@_W@__crt_stdio_output@@@2@@0@AAE_NXZ@AAPAD@Z 1002d460 f i libucrtd:output.obj
 0001:0002c480       ??$read_va_arg@PAUansi_string@?1??type_case_Z@?$output_processor@_WV?$string_output_adapter@_W@__crt_stdio_output@@V?$standard_base@_WV?$string_output_adapter@_W@__crt_stdio_output@@@2@@__crt_stdio_output@@AAE_NXZ@@__crt_stdio_output@@YAPAUansi_string@?1??type_case_Z@?$output_processor@_WV?$string_output_adapter@_W@__crt_stdio_output@@V?$standard_base@_WV?$string_output_adapter@_W@__crt_stdio_output@@@2@@0@AAE_NXZ@AAPAD@Z 1002d480 f i libucrtd:output.obj
 0001:0002c4a0       ??$read_va_arg@PAX@__crt_stdio_output@@YAPAXAAPAD@Z 1002d4a0 f i libucrtd:output.obj
 0001:0002c4c0       ??$read_va_arg@U_CRT_DOUBLE@@@__crt_stdio_output@@YA?AU_CRT_DOUBLE@@AAPAD@Z 1002d4c0 f i libucrtd:output.obj
 0001:0002c4e0       ??$read_va_arg@_J@__crt_stdio_output@@YA_JAAPAD@Z 1002d4e0 f i libucrtd:output.obj
 0001:0002c500       ??$read_va_arg@_K@__crt_stdio_output@@YA_KAAPAD@Z 1002d500 f i libucrtd:output.obj
 0001:0002c520       ??$read_va_arg@_W@__crt_stdio_output@@YA_WAAPAD@Z 1002d520 f i libucrtd:output.obj
 0001:0002c540       ??$scratch_count@D@formatting_buffer@__crt_stdio_output@@QBEIXZ 1002d540 f i libucrtd:output.obj
 0001:0002c560       ??$scratch_data@D@formatting_buffer@__crt_stdio_output@@QAEPADXZ 1002d560 f i libucrtd:output.obj
 0001:0002c5b0       ??$tcstol@AAPBDPAPADH@?$__crt_char_traits@D@@SAJAAPBD$$QAPAPAD$$QAH@Z 1002d5b0 f i libucrtd:output.obj
 0001:0002c5e0       ??$tcstol@AAPB_WPAPA_WH@?$__crt_char_traits@_W@@SAJAAPB_W$$QAPAPA_W$$QAH@Z 1002d5e0 f i libucrtd:output.obj
 0001:0002c610       ??$tcstol@PBDPAPADH@?$__crt_char_traits@D@@SAJ$$QAPBD$$QAPAPAD$$QAH@Z 1002d610 f i libucrtd:output.obj
 0001:0002c640       ??$tcstol@PB_WPAPA_WH@?$__crt_char_traits@_W@@SAJ$$QAPB_W$$QAPAPA_W$$QAH@Z 1002d640 f i libucrtd:output.obj
 0001:0002c670       ??$type_case_integer_parse_into_buffer@I@?$output_processor@DV?$stream_output_adapter@D@__crt_stdio_output@@V?$format_validation_base@DV?$stream_output_adapter@D@__crt_stdio_output@@@2@@__crt_stdio_output@@AAEXII_N@Z 1002d670 f i libucrtd:output.obj
 0001:0002c740       ??$type_case_integer_parse_into_buffer@I@?$output_processor@DV?$stream_output_adapter@D@__crt_stdio_output@@V?$positional_parameter_base@DV?$stream_output_adapter@D@__crt_stdio_output@@@2@@__crt_stdio_output@@AAEXII_N@Z 1002d740 f i libucrtd:output.obj
 0001:0002c810       ??$type_case_integer_parse_into_buffer@I@?$output_processor@DV?$stream_output_adapter@D@__crt_stdio_output@@V?$standard_base@DV?$stream_output_adapter@D@__crt_stdio_output@@@2@@__crt_stdio_output@@AAEXII_N@Z 1002d810 f i libucrtd:output.obj
 0001:0002c8e0       ??$type_case_integer_parse_into_buffer@I@?$output_processor@DV?$string_output_adapter@D@__crt_stdio_output@@V?$format_validation_base@DV?$string_output_adapter@D@__crt_stdio_output@@@2@@__crt_stdio_output@@AAEXII_N@Z 1002d8e0 f i libucrtd:output.obj
 0001:0002c9b0       ??$type_case_integer_parse_into_buffer@I@?$output_processor@DV?$string_output_adapter@D@__crt_stdio_output@@V?$positional_parameter_base@DV?$string_output_adapter@D@__crt_stdio_output@@@2@@__crt_stdio_output@@AAEXII_N@Z 1002d9b0 f i libucrtd:output.obj
 0001:0002ca80       ??$type_case_integer_parse_into_buffer@I@?$output_processor@DV?$string_output_adapter@D@__crt_stdio_output@@V?$standard_base@DV?$string_output_adapter@D@__crt_stdio_output@@@2@@__crt_stdio_output@@AAEXII_N@Z 1002da80 f i libucrtd:output.obj
 0001:0002cb50       ??$type_case_integer_parse_into_buffer@I@?$output_processor@_WV?$stream_output_adapter@_W@__crt_stdio_output@@V?$format_validation_base@_WV?$stream_output_adapter@_W@__crt_stdio_output@@@2@@__crt_stdio_output@@AAEXII_N@Z 1002db50 f i libucrtd:output.obj
 0001:0002cc30       ??$type_case_integer_parse_into_buffer@I@?$output_processor@_WV?$stream_output_adapter@_W@__crt_stdio_output@@V?$positional_parameter_base@_WV?$stream_output_adapter@_W@__crt_stdio_output@@@2@@__crt_stdio_output@@AAEXII_N@Z 1002dc30 f i libucrtd:output.obj
 0001:0002cd10       ??$type_case_integer_parse_into_buffer@I@?$output_processor@_WV?$stream_output_adapter@_W@__crt_stdio_output@@V?$standard_base@_WV?$stream_output_adapter@_W@__crt_stdio_output@@@2@@__crt_stdio_output@@AAEXII_N@Z 1002dd10 f i libucrtd:output.obj
 0001:0002cdf0       ??$type_case_integer_parse_into_buffer@I@?$output_processor@_WV?$string_output_adapter@_W@__crt_stdio_output@@V?$format_validation_base@_WV?$string_output_adapter@_W@__crt_stdio_output@@@2@@__crt_stdio_output@@AAEXII_N@Z 1002ddf0 f i libucrtd:output.obj
 0001:0002ced0       ??$type_case_integer_parse_into_buffer@I@?$output_processor@_WV?$string_output_adapter@_W@__crt_stdio_output@@V?$positional_parameter_base@_WV?$string_output_adapter@_W@__crt_stdio_output@@@2@@__crt_stdio_output@@AAEXII_N@Z 1002ded0 f i libucrtd:output.obj
 0001:0002cfb0       ??$type_case_integer_parse_into_buffer@I@?$output_processor@_WV?$string_output_adapter@_W@__crt_stdio_output@@V?$standard_base@_WV?$string_output_adapter@_W@__crt_stdio_output@@@2@@__crt_stdio_output@@AAEXII_N@Z 1002dfb0 f i libucrtd:output.obj
 0001:0002d090       ??$type_case_integer_parse_into_buffer@_K@?$output_processor@DV?$stream_output_adapter@D@__crt_stdio_output@@V?$format_validation_base@DV?$stream_output_adapter@D@__crt_stdio_output@@@2@@__crt_stdio_output@@AAEX_KI_N@Z 1002e090 f i libucrtd:output.obj
 0001:0002d180       ??$type_case_integer_parse_into_buffer@_K@?$output_processor@DV?$stream_output_adapter@D@__crt_stdio_output@@V?$positional_parameter_base@DV?$stream_output_adapter@D@__crt_stdio_output@@@2@@__crt_stdio_output@@AAEX_KI_N@Z 1002e180 f i libucrtd:output.obj
 0001:0002d270       ??$type_case_integer_parse_into_buffer@_K@?$output_processor@DV?$stream_output_adapter@D@__crt_stdio_output@@V?$standard_base@DV?$stream_output_adapter@D@__crt_stdio_output@@@2@@__crt_stdio_output@@AAEX_KI_N@Z 1002e270 f i libucrtd:output.obj
 0001:0002d360       ??$type_case_integer_parse_into_buffer@_K@?$output_processor@DV?$string_output_adapter@D@__crt_stdio_output@@V?$format_validation_base@DV?$string_output_adapter@D@__crt_stdio_output@@@2@@__crt_stdio_output@@AAEX_KI_N@Z 1002e360 f i libucrtd:output.obj
 0001:0002d450       ??$type_case_integer_parse_into_buffer@_K@?$output_processor@DV?$string_output_adapter@D@__crt_stdio_output@@V?$positional_parameter_base@DV?$string_output_adapter@D@__crt_stdio_output@@@2@@__crt_stdio_output@@AAEX_KI_N@Z 1002e450 f i libucrtd:output.obj
 0001:0002d540       ??$type_case_integer_parse_into_buffer@_K@?$output_processor@DV?$string_output_adapter@D@__crt_stdio_output@@V?$standard_base@DV?$string_output_adapter@D@__crt_stdio_output@@@2@@__crt_stdio_output@@AAEX_KI_N@Z 1002e540 f i libucrtd:output.obj
 0001:0002d630       ??$type_case_integer_parse_into_buffer@_K@?$output_processor@_WV?$stream_output_adapter@_W@__crt_stdio_output@@V?$format_validation_base@_WV?$stream_output_adapter@_W@__crt_stdio_output@@@2@@__crt_stdio_output@@AAEX_KI_N@Z 1002e630 f i libucrtd:output.obj
 0001:0002d730       ??$type_case_integer_parse_into_buffer@_K@?$output_processor@_WV?$stream_output_adapter@_W@__crt_stdio_output@@V?$positional_parameter_base@_WV?$stream_output_adapter@_W@__crt_stdio_output@@@2@@__crt_stdio_output@@AAEX_KI_N@Z 1002e730 f i libucrtd:output.obj
 0001:0002d830       ??$type_case_integer_parse_into_buffer@_K@?$output_processor@_WV?$stream_output_adapter@_W@__crt_stdio_output@@V?$standard_base@_WV?$stream_output_adapter@_W@__crt_stdio_output@@@2@@__crt_stdio_output@@AAEX_KI_N@Z 1002e830 f i libucrtd:output.obj
 0001:0002d930       ??$type_case_integer_parse_into_buffer@_K@?$output_processor@_WV?$string_output_adapter@_W@__crt_stdio_output@@V?$format_validation_base@_WV?$string_output_adapter@_W@__crt_stdio_output@@@2@@__crt_stdio_output@@AAEX_KI_N@Z 1002e930 f i libucrtd:output.obj
 0001:0002da30       ??$type_case_integer_parse_into_buffer@_K@?$output_processor@_WV?$string_output_adapter@_W@__crt_stdio_output@@V?$positional_parameter_base@_WV?$string_output_adapter@_W@__crt_stdio_output@@@2@@__crt_stdio_output@@AAEX_KI_N@Z 1002ea30 f i libucrtd:output.obj
 0001:0002db30       ??$type_case_integer_parse_into_buffer@_K@?$output_processor@_WV?$string_output_adapter@_W@__crt_stdio_output@@V?$standard_base@_WV?$string_output_adapter@_W@__crt_stdio_output@@@2@@__crt_stdio_output@@AAEX_KI_N@Z 1002eb30 f i libucrtd:output.obj
 0001:0002dc30       ??$write_multiple_characters@V?$stream_output_adapter@D@__crt_stdio_output@@D@__crt_stdio_output@@YAXABV?$stream_output_adapter@D@0@DHQAH@Z 1002ec30 f i libucrtd:output.obj
 0001:0002dc80       ??$write_multiple_characters@V?$stream_output_adapter@_W@__crt_stdio_output@@D@__crt_stdio_output@@YAXABV?$stream_output_adapter@_W@0@DHQAH@Z 1002ec80 f i libucrtd:output.obj
 0001:0002dcd0       ??$write_multiple_characters@V?$string_output_adapter@D@__crt_stdio_output@@D@__crt_stdio_output@@YAXABV?$string_output_adapter@D@0@DHQAH@Z 1002ecd0 f i libucrtd:output.obj
 0001:0002dd20       ??$write_multiple_characters@V?$string_output_adapter@_W@__crt_stdio_output@@D@__crt_stdio_output@@YAXABV?$string_output_adapter@_W@0@DHQAH@Z 1002ed20 f i libucrtd:output.obj
 0001:0002e070       ??0?$common_data@D@__crt_stdio_output@@IAE@XZ 1002f070 f i libucrtd:output.obj
 0001:0002e120       ??0?$common_data@_W@__crt_stdio_output@@IAE@XZ 1002f120 f i libucrtd:output.obj
 0001:0002e1d0       ??0?$output_adapter_data@DV?$stream_output_adapter@D@__crt_stdio_output@@@__crt_stdio_output@@IAE@ABV?$stream_output_adapter@D@1@_KQBDQAU__crt_locale_pointers@@QAD@Z 1002f1d0 f i libucrtd:output.obj
 0001:0002e230       ??0?$output_adapter_data@DV?$string_output_adapter@D@__crt_stdio_output@@@__crt_stdio_output@@IAE@ABV?$string_output_adapter@D@1@_KQBDQAU__crt_locale_pointers@@QAD@Z 1002f230 f i libucrtd:output.obj
 0001:0002e290       ??0?$output_adapter_data@_WV?$stream_output_adapter@_W@__crt_stdio_output@@@__crt_stdio_output@@IAE@ABV?$stream_output_adapter@_W@1@_KQB_WQAU__crt_locale_pointers@@QAD@Z 1002f290 f i libucrtd:output.obj
 0001:0002e2f0       ??0?$output_adapter_data@_WV?$string_output_adapter@_W@__crt_stdio_output@@@__crt_stdio_output@@IAE@ABV?$string_output_adapter@_W@1@_KQB_WQAU__crt_locale_pointers@@QAD@Z 1002f2f0 f i libucrtd:output.obj
 0001:0002e350       ??0?$output_processor@DV?$stream_output_adapter@D@__crt_stdio_output@@V?$format_validation_base@DV?$stream_output_adapter@D@__crt_stdio_output@@@2@@__crt_stdio_output@@QAE@ABV?$stream_output_adapter@D@1@_KQBDQAU__crt_locale_pointers@@QAD@Z 1002f350 f i libucrtd:output.obj
 0001:0002e380       ??0?$output_processor@DV?$stream_output_adapter@D@__crt_stdio_output@@V?$positional_parameter_base@DV?$stream_output_adapter@D@__crt_stdio_output@@@2@@__crt_stdio_output@@QAE@ABV?$stream_output_adapter@D@1@_KQBDQAU__crt_locale_pointers@@QAD@Z 1002f380 f i libucrtd:output.obj
 0001:0002e3b0       ??0?$output_processor@DV?$stream_output_adapter@D@__crt_stdio_output@@V?$standard_base@DV?$stream_output_adapter@D@__crt_stdio_output@@@2@@__crt_stdio_output@@QAE@ABV?$stream_output_adapter@D@1@_KQBDQAU__crt_locale_pointers@@QAD@Z 1002f3b0 f i libucrtd:output.obj
 0001:0002e3e0       ??0?$output_processor@DV?$string_output_adapter@D@__crt_stdio_output@@V?$format_validation_base@DV?$string_output_adapter@D@__crt_stdio_output@@@2@@__crt_stdio_output@@QAE@ABV?$string_output_adapter@D@1@_KQBDQAU__crt_locale_pointers@@QAD@Z 1002f3e0 f i libucrtd:output.obj
 0001:0002e410       ??0?$output_processor@DV?$string_output_adapter@D@__crt_stdio_output@@V?$positional_parameter_base@DV?$string_output_adapter@D@__crt_stdio_output@@@2@@__crt_stdio_output@@QAE@ABV?$string_output_adapter@D@1@_KQBDQAU__crt_locale_pointers@@QAD@Z 1002f410 f i libucrtd:output.obj
 0001:0002e440       ??0?$output_processor@DV?$string_output_adapter@D@__crt_stdio_output@@V?$standard_base@DV?$string_output_adapter@D@__crt_stdio_output@@@2@@__crt_stdio_output@@QAE@ABV?$string_output_adapter@D@1@_KQBDQAU__crt_locale_pointers@@QAD@Z 1002f440 f i libucrtd:output.obj
 0001:0002e470       ??0?$output_processor@_WV?$stream_output_adapter@_W@__crt_stdio_output@@V?$format_validation_base@_WV?$stream_output_adapter@_W@__crt_stdio_output@@@2@@__crt_stdio_output@@QAE@ABV?$stream_output_adapter@_W@1@_KQB_WQAU__crt_locale_pointers@@QAD@Z 1002f470 f i libucrtd:output.obj
 0001:0002e4a0       ??0?$output_processor@_WV?$stream_output_adapter@_W@__crt_stdio_output@@V?$positional_parameter_base@_WV?$stream_output_adapter@_W@__crt_stdio_output@@@2@@__crt_stdio_output@@QAE@ABV?$stream_output_adapter@_W@1@_KQB_WQAU__crt_locale_pointers@@QAD@Z 1002f4a0 f i libucrtd:output.obj
 0001:0002e4d0       ??0?$output_processor@_WV?$stream_output_adapter@_W@__crt_stdio_output@@V?$standard_base@_WV?$stream_output_adapter@_W@__crt_stdio_output@@@2@@__crt_stdio_output@@QAE@ABV?$stream_output_adapter@_W@1@_KQB_WQAU__crt_locale_pointers@@QAD@Z 1002f4d0 f i libucrtd:output.obj
 0001:0002e500       ??0?$output_processor@_WV?$string_output_adapter@_W@__crt_stdio_output@@V?$format_validation_base@_WV?$string_output_adapter@_W@__crt_stdio_output@@@2@@__crt_stdio_output@@QAE@ABV?$string_output_adapter@_W@1@_KQB_WQAU__crt_locale_pointers@@QAD@Z 1002f500 f i libucrtd:output.obj
 0001:0002e530       ??0?$output_processor@_WV?$string_output_adapter@_W@__crt_stdio_output@@V?$positional_parameter_base@_WV?$string_output_adapter@_W@__crt_stdio_output@@@2@@__crt_stdio_output@@QAE@ABV?$string_output_adapter@_W@1@_KQB_WQAU__crt_locale_pointers@@QAD@Z 1002f530 f i libucrtd:output.obj
 0001:0002e560       ??0?$output_processor@_WV?$string_output_adapter@_W@__crt_stdio_output@@V?$standard_base@_WV?$string_output_adapter@_W@__crt_stdio_output@@@2@@__crt_stdio_output@@QAE@ABV?$string_output_adapter@_W@1@_KQB_WQAU__crt_locale_pointers@@QAD@Z 1002f560 f i libucrtd:output.obj
 0001:0002e590       ??0?$stream_output_adapter@D@__crt_stdio_output@@QAE@QAU_iobuf@@@Z 1002f590 f i libucrtd:output.obj
 0001:0002e5b0       ??0?$stream_output_adapter@_W@__crt_stdio_output@@QAE@QAU_iobuf@@@Z 1002f5b0 f i libucrtd:output.obj
 0001:0002e5d0       ??0?$string_output_adapter@D@__crt_stdio_output@@QAE@QAU?$string_output_adapter_context@D@1@@Z 1002f5d0 f i libucrtd:output.obj
 0001:0002e5f0       ??0?$string_output_adapter@_W@__crt_stdio_output@@QAE@QAU?$string_output_adapter_context@_W@1@@Z 1002f5f0 f i libucrtd:output.obj
 0001:0002e610       ??0__acrt_stdio_temporary_buffering_guard@@QAE@QAU_iobuf@@@Z 1002f610 f i libucrtd:output.obj
 0001:0002e640       ??0__crt_deferred_errno_cache@@QAE@XZ 1002f640 f i libucrtd:output.obj
 0001:0002e660       ??0__crt_errno_guard@@QAE@QAH@Z 1002f660 f i libucrtd:output.obj
 0001:0002e690       ??0__crt_stdio_stream@@QAE@QAU_iobuf@@@Z 1002f690 f i libucrtd:output.obj
 0001:0002e6b0       ??0formatting_buffer@__crt_stdio_output@@QAE@XZ 1002f6b0 f i libucrtd:output.obj
 0001:0002e6e0       ??1?$common_data@D@__crt_stdio_output@@QAE@XZ 1002f6e0 f i libucrtd:output.obj
 0001:0002e700       ??1?$common_data@_W@__crt_stdio_output@@QAE@XZ 1002f700 f i libucrtd:output.obj
 0001:0002e720       ??1?$format_validation_base@DV?$stream_output_adapter@D@__crt_stdio_output@@@__crt_stdio_output@@QAE@XZ 1002f720 f i libucrtd:output.obj
 0001:0002e740       ??1?$format_validation_base@DV?$string_output_adapter@D@__crt_stdio_output@@@__crt_stdio_output@@QAE@XZ 1002f740 f i libucrtd:output.obj
 0001:0002e760       ??1?$format_validation_base@_WV?$stream_output_adapter@_W@__crt_stdio_output@@@__crt_stdio_output@@QAE@XZ 1002f760 f i libucrtd:output.obj
 0001:0002e780       ??1?$format_validation_base@_WV?$string_output_adapter@_W@__crt_stdio_output@@@__crt_stdio_output@@QAE@XZ 1002f780 f i libucrtd:output.obj
 0001:0002e7a0       ??1?$output_adapter_data@DV?$stream_output_adapter@D@__crt_stdio_output@@@__crt_stdio_output@@QAE@XZ 1002f7a0 f i libucrtd:output.obj
 0001:0002e7c0       ??1?$output_adapter_data@DV?$string_output_adapter@D@__crt_stdio_output@@@__crt_stdio_output@@QAE@XZ 1002f7c0 f i libucrtd:output.obj
 0001:0002e7e0       ??1?$output_adapter_data@_WV?$stream_output_adapter@_W@__crt_stdio_output@@@__crt_stdio_output@@QAE@XZ 1002f7e0 f i libucrtd:output.obj
 0001:0002e800       ??1?$output_adapter_data@_WV?$string_output_adapter@_W@__crt_stdio_output@@@__crt_stdio_output@@QAE@XZ 1002f800 f i libucrtd:output.obj
 0001:0002e820       ??1?$output_processor@DV?$stream_output_adapter@D@__crt_stdio_output@@V?$format_validation_base@DV?$stream_output_adapter@D@__crt_stdio_output@@@2@@__crt_stdio_output@@QAE@XZ 1002f820 f i libucrtd:output.obj
 0001:0002e840       ??1?$output_processor@DV?$stream_output_adapter@D@__crt_stdio_output@@V?$positional_parameter_base@DV?$stream_output_adapter@D@__crt_stdio_output@@@2@@__crt_stdio_output@@QAE@XZ 1002f840 f i libucrtd:output.obj
 0001:0002e860       ??1?$output_processor@DV?$stream_output_adapter@D@__crt_stdio_output@@V?$standard_base@DV?$stream_output_adapter@D@__crt_stdio_output@@@2@@__crt_stdio_output@@QAE@XZ 1002f860 f i libucrtd:output.obj
 0001:0002e880       ??1?$output_processor@DV?$string_output_adapter@D@__crt_stdio_output@@V?$format_validation_base@DV?$string_output_adapter@D@__crt_stdio_output@@@2@@__crt_stdio_output@@QAE@XZ 1002f880 f i libucrtd:output.obj
 0001:0002e8a0       ??1?$output_processor@DV?$string_output_adapter@D@__crt_stdio_output@@V?$positional_parameter_base@DV?$string_output_adapter@D@__crt_stdio_output@@@2@@__crt_stdio_output@@QAE@XZ 1002f8a0 f i libucrtd:output.obj
 0001:0002e8c0       ??1?$output_processor@DV?$string_output_adapter@D@__crt_stdio_output@@V?$standard_base@DV?$string_output_adapter@D@__crt_stdio_output@@@2@@__crt_stdio_output@@QAE@XZ 1002f8c0 f i libucrtd:output.obj
 0001:0002e8e0       ??1?$output_processor@_WV?$stream_output_adapter@_W@__crt_stdio_output@@V?$format_validation_base@_WV?$stream_output_adapter@_W@__crt_stdio_output@@@2@@__crt_stdio_output@@QAE@XZ 1002f8e0 f i libucrtd:output.obj
 0001:0002e900       ??1?$output_processor@_WV?$stream_output_adapter@_W@__crt_stdio_output@@V?$positional_parameter_base@_WV?$stream_output_adapter@_W@__crt_stdio_output@@@2@@__crt_stdio_output@@QAE@XZ 1002f900 f i libucrtd:output.obj
 0001:0002e920       ??1?$output_processor@_WV?$stream_output_adapter@_W@__crt_stdio_output@@V?$standard_base@_WV?$stream_output_adapter@_W@__crt_stdio_output@@@2@@__crt_stdio_output@@QAE@XZ 1002f920 f i libucrtd:output.obj
 0001:0002e940       ??1?$output_processor@_WV?$string_output_adapter@_W@__crt_stdio_output@@V?$format_validation_base@_WV?$string_output_adapter@_W@__crt_stdio_output@@@2@@__crt_stdio_output@@QAE@XZ 1002f940 f i libucrtd:output.obj
 0001:0002e960       ??1?$output_processor@_WV?$string_output_adapter@_W@__crt_stdio_output@@V?$positional_parameter_base@_WV?$string_output_adapter@_W@__crt_stdio_output@@@2@@__crt_stdio_output@@QAE@XZ 1002f960 f i libucrtd:output.obj
 0001:0002e980       ??1?$output_processor@_WV?$string_output_adapter@_W@__crt_stdio_output@@V?$standard_base@_WV?$string_output_adapter@_W@__crt_stdio_output@@@2@@__crt_stdio_output@@QAE@XZ 1002f980 f i libucrtd:output.obj
 0001:0002e9a0       ??1?$positional_parameter_base@DV?$stream_output_adapter@D@__crt_stdio_output@@@__crt_stdio_output@@QAE@XZ 1002f9a0 f i libucrtd:output.obj
 0001:0002e9c0       ??1?$positional_parameter_base@DV?$string_output_adapter@D@__crt_stdio_output@@@__crt_stdio_output@@QAE@XZ 1002f9c0 f i libucrtd:output.obj
 0001:0002e9e0       ??1?$positional_parameter_base@_WV?$stream_output_adapter@_W@__crt_stdio_output@@@__crt_stdio_output@@QAE@XZ 1002f9e0 f i libucrtd:output.obj
 0001:0002ea00       ??1?$positional_parameter_base@_WV?$string_output_adapter@_W@__crt_stdio_output@@@__crt_stdio_output@@QAE@XZ 1002fa00 f i libucrtd:output.obj
 0001:0002ea20       ??1?$standard_base@DV?$stream_output_adapter@D@__crt_stdio_output@@@__crt_stdio_output@@QAE@XZ 1002fa20 f i libucrtd:output.obj
 0001:0002ea40       ??1?$standard_base@DV?$string_output_adapter@D@__crt_stdio_output@@@__crt_stdio_output@@QAE@XZ 1002fa40 f i libucrtd:output.obj
 0001:0002ea60       ??1?$standard_base@_WV?$stream_output_adapter@_W@__crt_stdio_output@@@__crt_stdio_output@@QAE@XZ 1002fa60 f i libucrtd:output.obj
 0001:0002ea80       ??1?$standard_base@_WV?$string_output_adapter@_W@__crt_stdio_output@@@__crt_stdio_output@@QAE@XZ 1002fa80 f i libucrtd:output.obj
 0001:0002eaa0       ??1__acrt_stdio_temporary_buffering_guard@@QAE@XZ 1002faa0 f i libucrtd:output.obj
 0001:0002ead0       ??1__crt_errno_guard@@QAE@XZ 1002fad0 f i libucrtd:output.obj
 0001:0002eb00       ??1formatting_buffer@__crt_stdio_output@@QAE@XZ 1002fb00 f i libucrtd:output.obj
 0001:0002eb20       ??4?$__crt_unique_heap_ptr@DU__crt_internal_free_policy@@@@QAEAAV0@$$QAV0@@Z 1002fb20 f i libucrtd:output.obj
 0001:0002eb50       ??A?$spectre_mitigated_lookup_table@Ustate_transition_pair@__crt_stdio_output@@$0IA@@__crt_stdio_output@@QBEABUstate_transition_pair@1@I@Z 1002fb50 f i libucrtd:output.obj
 0001:0002eb70       ??C__crt_stdio_stream@@QBEPAU__crt_stdio_stream_data@@XZ 1002fb70 f i libucrtd:output.obj
 0001:0002f2b0       ?adjust_hexit@?$output_processor@DV?$stream_output_adapter@D@__crt_stdio_output@@V?$format_validation_base@DV?$stream_output_adapter@D@__crt_stdio_output@@@2@@__crt_stdio_output@@CADH_N@Z 100302b0 f i libucrtd:output.obj
 0001:0002f2f0       ?adjust_hexit@?$output_processor@DV?$stream_output_adapter@D@__crt_stdio_output@@V?$positional_parameter_base@DV?$stream_output_adapter@D@__crt_stdio_output@@@2@@__crt_stdio_output@@CADH_N@Z 100302f0 f i libucrtd:output.obj
 0001:0002f330       ?adjust_hexit@?$output_processor@DV?$stream_output_adapter@D@__crt_stdio_output@@V?$standard_base@DV?$stream_output_adapter@D@__crt_stdio_output@@@2@@__crt_stdio_output@@CADH_N@Z 10030330 f i libucrtd:output.obj
 0001:0002f370       ?adjust_hexit@?$output_processor@DV?$string_output_adapter@D@__crt_stdio_output@@V?$format_validation_base@DV?$string_output_adapter@D@__crt_stdio_output@@@2@@__crt_stdio_output@@CADH_N@Z 10030370 f i libucrtd:output.obj
 0001:0002f3b0       ?adjust_hexit@?$output_processor@DV?$string_output_adapter@D@__crt_stdio_output@@V?$positional_parameter_base@DV?$string_output_adapter@D@__crt_stdio_output@@@2@@__crt_stdio_output@@CADH_N@Z 100303b0 f i libucrtd:output.obj
 0001:0002f3f0       ?adjust_hexit@?$output_processor@DV?$string_output_adapter@D@__crt_stdio_output@@V?$standard_base@DV?$string_output_adapter@D@__crt_stdio_output@@@2@@__crt_stdio_output@@CADH_N@Z 100303f0 f i libucrtd:output.obj
 0001:0002f430       ?adjust_hexit@?$output_processor@_WV?$stream_output_adapter@_W@__crt_stdio_output@@V?$format_validation_base@_WV?$stream_output_adapter@_W@__crt_stdio_output@@@2@@__crt_stdio_output@@CADH_N@Z 10030430 f i libucrtd:output.obj
 0001:0002f470       ?adjust_hexit@?$output_processor@_WV?$stream_output_adapter@_W@__crt_stdio_output@@V?$positional_parameter_base@_WV?$stream_output_adapter@_W@__crt_stdio_output@@@2@@__crt_stdio_output@@CADH_N@Z 10030470 f i libucrtd:output.obj
 0001:0002f4b0       ?adjust_hexit@?$output_processor@_WV?$stream_output_adapter@_W@__crt_stdio_output@@V?$standard_base@_WV?$stream_output_adapter@_W@__crt_stdio_output@@@2@@__crt_stdio_output@@CADH_N@Z 100304b0 f i libucrtd:output.obj
 0001:0002f4f0       ?adjust_hexit@?$output_processor@_WV?$string_output_adapter@_W@__crt_stdio_output@@V?$format_validation_base@_WV?$string_output_adapter@_W@__crt_stdio_output@@@2@@__crt_stdio_output@@CADH_N@Z 100304f0 f i libucrtd:output.obj
 0001:0002f530       ?adjust_hexit@?$output_processor@_WV?$string_output_adapter@_W@__crt_stdio_output@@V?$positional_parameter_base@_WV?$string_output_adapter@_W@__crt_stdio_output@@@2@@__crt_stdio_output@@CADH_N@Z 10030530 f i libucrtd:output.obj
 0001:0002f570       ?adjust_hexit@?$output_processor@_WV?$string_output_adapter@_W@__crt_stdio_output@@V?$standard_base@_WV?$string_output_adapter@_W@__crt_stdio_output@@@2@@__crt_stdio_output@@CADH_N@Z 10030570 f i libucrtd:output.obj
 0001:0002f5b0       ?advance_to_next_pass@?$positional_parameter_base@DV?$stream_output_adapter@D@__crt_stdio_output@@@__crt_stdio_output@@IAE_NXZ 100305b0 f i libucrtd:output.obj
 0001:0002f650       ?advance_to_next_pass@?$positional_parameter_base@DV?$string_output_adapter@D@__crt_stdio_output@@@__crt_stdio_output@@IAE_NXZ 10030650 f i libucrtd:output.obj
 0001:0002f6f0       ?advance_to_next_pass@?$positional_parameter_base@_WV?$stream_output_adapter@_W@__crt_stdio_output@@@__crt_stdio_output@@IAE_NXZ 100306f0 f i libucrtd:output.obj
 0001:0002f790       ?advance_to_next_pass@?$positional_parameter_base@_WV?$string_output_adapter@_W@__crt_stdio_output@@@__crt_stdio_output@@IAE_NXZ 10030790 f i libucrtd:output.obj
 0001:0002f830       ?advance_to_next_pass@?$standard_base@DV?$stream_output_adapter@D@__crt_stdio_output@@@__crt_stdio_output@@IAE_NXZ 10030830 f i libucrtd:output.obj
 0001:0002f880       ?advance_to_next_pass@?$standard_base@DV?$string_output_adapter@D@__crt_stdio_output@@@__crt_stdio_output@@IAE_NXZ 10030880 f i libucrtd:output.obj
 0001:0002f8d0       ?advance_to_next_pass@?$standard_base@_WV?$stream_output_adapter@_W@__crt_stdio_output@@@__crt_stdio_output@@IAE_NXZ 100308d0 f i libucrtd:output.obj
 0001:0002f920       ?advance_to_next_pass@?$standard_base@_WV?$string_output_adapter@_W@__crt_stdio_output@@@__crt_stdio_output@@IAE_NXZ 10030920 f i libucrtd:output.obj
 0001:0002f970       ?crop_zeroes@__crt_stdio_output@@YAXPADQAU__crt_locale_pointers@@@Z 10030970 f i libucrtd:output.obj
 0001:0002fa70       ?find_next_state@?$output_processor@DV?$stream_output_adapter@D@__crt_stdio_output@@V?$format_validation_base@DV?$stream_output_adapter@D@__crt_stdio_output@@@2@@__crt_stdio_output@@ABE?AW4state@2@DW432@@Z 10030a70 f i libucrtd:output.obj
 0001:0002fae0       ?find_next_state@?$output_processor@DV?$stream_output_adapter@D@__crt_stdio_output@@V?$positional_parameter_base@DV?$stream_output_adapter@D@__crt_stdio_output@@@2@@__crt_stdio_output@@ABE?AW4state@2@DW432@@Z 10030ae0 f i libucrtd:output.obj
 0001:0002fb50       ?find_next_state@?$output_processor@DV?$stream_output_adapter@D@__crt_stdio_output@@V?$standard_base@DV?$stream_output_adapter@D@__crt_stdio_output@@@2@@__crt_stdio_output@@ABE?AW4state@2@DW432@@Z 10030b50 f i libucrtd:output.obj
 0001:0002fbc0       ?find_next_state@?$output_processor@DV?$string_output_adapter@D@__crt_stdio_output@@V?$format_validation_base@DV?$string_output_adapter@D@__crt_stdio_output@@@2@@__crt_stdio_output@@ABE?AW4state@2@DW432@@Z 10030bc0 f i libucrtd:output.obj
 0001:0002fc30       ?find_next_state@?$output_processor@DV?$string_output_adapter@D@__crt_stdio_output@@V?$positional_parameter_base@DV?$string_output_adapter@D@__crt_stdio_output@@@2@@__crt_stdio_output@@ABE?AW4state@2@DW432@@Z 10030c30 f i libucrtd:output.obj
 0001:0002fca0       ?find_next_state@?$output_processor@DV?$string_output_adapter@D@__crt_stdio_output@@V?$standard_base@DV?$string_output_adapter@D@__crt_stdio_output@@@2@@__crt_stdio_output@@ABE?AW4state@2@DW432@@Z 10030ca0 f i libucrtd:output.obj
 0001:0002fd10       ?find_next_state@?$output_processor@_WV?$stream_output_adapter@_W@__crt_stdio_output@@V?$format_validation_base@_WV?$stream_output_adapter@_W@__crt_stdio_output@@@2@@__crt_stdio_output@@ABE?AW4state@2@_WW432@@Z 10030d10 f i libucrtd:output.obj
 0001:0002fd80       ?find_next_state@?$output_processor@_WV?$stream_output_adapter@_W@__crt_stdio_output@@V?$positional_parameter_base@_WV?$stream_output_adapter@_W@__crt_stdio_output@@@2@@__crt_stdio_output@@ABE?AW4state@2@_WW432@@Z 10030d80 f i libucrtd:output.obj
 0001:0002fdf0       ?find_next_state@?$output_processor@_WV?$stream_output_adapter@_W@__crt_stdio_output@@V?$standard_base@_WV?$stream_output_adapter@_W@__crt_stdio_output@@@2@@__crt_stdio_output@@ABE?AW4state@2@_WW432@@Z 10030df0 f i libucrtd:output.obj
 0001:0002fe60       ?find_next_state@?$output_processor@_WV?$string_output_adapter@_W@__crt_stdio_output@@V?$format_validation_base@_WV?$string_output_adapter@_W@__crt_stdio_output@@@2@@__crt_stdio_output@@ABE?AW4state@2@_WW432@@Z 10030e60 f i libucrtd:output.obj
 0001:0002fed0       ?find_next_state@?$output_processor@_WV?$string_output_adapter@_W@__crt_stdio_output@@V?$positional_parameter_base@_WV?$string_output_adapter@_W@__crt_stdio_output@@@2@@__crt_stdio_output@@ABE?AW4state@2@_WW432@@Z 10030ed0 f i libucrtd:output.obj
 0001:0002ff40       ?find_next_state@?$output_processor@_WV?$string_output_adapter@_W@__crt_stdio_output@@V?$standard_base@_WV?$string_output_adapter@_W@__crt_stdio_output@@@2@@__crt_stdio_output@@ABE?AW4state@2@_WW432@@Z 10030f40 f i libucrtd:output.obj
 0001:0002ffb0       ?force_decimal_point@__crt_stdio_output@@YAXPADQAU__crt_locale_pointers@@@Z 10030fb0 f i libucrtd:output.obj
 0001:00030080       ?get@__crt_deferred_errno_cache@@QAEAAHXZ 10031080 f i libucrtd:output.obj
 0001:000300b0       ?get_flags@__crt_stdio_stream@@QBEJXZ 100310b0 f i libucrtd:output.obj
 0001:000300d0       ?get_parameter_type@?$positional_parameter_base@DV?$stream_output_adapter@D@__crt_stdio_output@@@__crt_stdio_output@@CA?AW4parameter_type@12@F@Z 100310d0 f i libucrtd:output.obj
 0001:000300e0       ?get_parameter_type@?$positional_parameter_base@DV?$stream_output_adapter@D@__crt_stdio_output@@@__crt_stdio_output@@CA?AW4parameter_type@12@G@Z 100310e0 f i libucrtd:output.obj
 0001:000300f0       ?get_parameter_type@?$positional_parameter_base@DV?$stream_output_adapter@D@__crt_stdio_output@@@__crt_stdio_output@@CA?AW4parameter_type@12@H@Z 100310f0 f i libucrtd:output.obj
 0001:00030100       ?get_parameter_type@?$positional_parameter_base@DV?$stream_output_adapter@D@__crt_stdio_output@@@__crt_stdio_output@@CA?AW4parameter_type@12@I@Z 10031100 f i libucrtd:output.obj
 0001:00030110       ?get_parameter_type@?$positional_parameter_base@DV?$stream_output_adapter@D@__crt_stdio_output@@@__crt_stdio_output@@CA?AW4parameter_type@12@U_CRT_DOUBLE@@@Z 10031110 f i libucrtd:output.obj
 0001:00030120       ?get_parameter_type@?$positional_parameter_base@DV?$stream_output_adapter@D@__crt_stdio_output@@@__crt_stdio_output@@CA?AW4parameter_type@12@_J@Z 10031120 f i libucrtd:output.obj
 0001:00030130       ?get_parameter_type@?$positional_parameter_base@DV?$stream_output_adapter@D@__crt_stdio_output@@@__crt_stdio_output@@CA?AW4parameter_type@12@_K@Z 10031130 f i libucrtd:output.obj
 0001:00030140       ?get_parameter_type@?$positional_parameter_base@DV?$stream_output_adapter@D@__crt_stdio_output@@@__crt_stdio_output@@CA?AW4parameter_type@12@_W@Z 10031140 f i libucrtd:output.obj
 0001:00030150       ?get_parameter_type@?$positional_parameter_base@DV?$string_output_adapter@D@__crt_stdio_output@@@__crt_stdio_output@@CA?AW4parameter_type@12@F@Z 10031150 f i libucrtd:output.obj
 0001:00030160       ?get_parameter_type@?$positional_parameter_base@DV?$string_output_adapter@D@__crt_stdio_output@@@__crt_stdio_output@@CA?AW4parameter_type@12@G@Z 10031160 f i libucrtd:output.obj
 0001:00030170       ?get_parameter_type@?$positional_parameter_base@DV?$string_output_adapter@D@__crt_stdio_output@@@__crt_stdio_output@@CA?AW4parameter_type@12@H@Z 10031170 f i libucrtd:output.obj
 0001:00030180       ?get_parameter_type@?$positional_parameter_base@DV?$string_output_adapter@D@__crt_stdio_output@@@__crt_stdio_output@@CA?AW4parameter_type@12@I@Z 10031180 f i libucrtd:output.obj
 0001:00030190       ?get_parameter_type@?$positional_parameter_base@DV?$string_output_adapter@D@__crt_stdio_output@@@__crt_stdio_output@@CA?AW4parameter_type@12@U_CRT_DOUBLE@@@Z 10031190 f i libucrtd:output.obj
 0001:000301a0       ?get_parameter_type@?$positional_parameter_base@DV?$string_output_adapter@D@__crt_stdio_output@@@__crt_stdio_output@@CA?AW4parameter_type@12@_J@Z 100311a0 f i libucrtd:output.obj
 0001:000301b0       ?get_parameter_type@?$positional_parameter_base@DV?$string_output_adapter@D@__crt_stdio_output@@@__crt_stdio_output@@CA?AW4parameter_type@12@_K@Z 100311b0 f i libucrtd:output.obj
 0001:000301c0       ?get_parameter_type@?$positional_parameter_base@DV?$string_output_adapter@D@__crt_stdio_output@@@__crt_stdio_output@@CA?AW4parameter_type@12@_W@Z 100311c0 f i libucrtd:output.obj
 0001:000301d0       ?get_parameter_type@?$positional_parameter_base@_WV?$stream_output_adapter@_W@__crt_stdio_output@@@__crt_stdio_output@@CA?AW4parameter_type@12@F@Z 100311d0 f i libucrtd:output.obj
 0001:000301e0       ?get_parameter_type@?$positional_parameter_base@_WV?$stream_output_adapter@_W@__crt_stdio_output@@@__crt_stdio_output@@CA?AW4parameter_type@12@G@Z 100311e0 f i libucrtd:output.obj
 0001:000301f0       ?get_parameter_type@?$positional_parameter_base@_WV?$stream_output_adapter@_W@__crt_stdio_output@@@__crt_stdio_output@@CA?AW4parameter_type@12@H@Z 100311f0 f i libucrtd:output.obj
 0001:00030200       ?get_parameter_type@?$positional_parameter_base@_WV?$stream_output_adapter@_W@__crt_stdio_output@@@__crt_stdio_output@@CA?AW4parameter_type@12@I@Z 10031200 f i libucrtd:output.obj
 0001:00030210       ?get_parameter_type@?$positional_parameter_base@_WV?$stream_output_adapter@_W@__crt_stdio_output@@@__crt_stdio_output@@CA?AW4parameter_type@12@U_CRT_DOUBLE@@@Z 10031210 f i libucrtd:output.obj
 0001:00030220       ?get_parameter_type@?$positional_parameter_base@_WV?$stream_output_adapter@_W@__crt_stdio_output@@@__crt_stdio_output@@CA?AW4parameter_type@12@_J@Z 10031220 f i libucrtd:output.obj
 0001:00030230       ?get_parameter_type@?$positional_parameter_base@_WV?$stream_output_adapter@_W@__crt_stdio_output@@@__crt_stdio_output@@CA?AW4parameter_type@12@_K@Z 10031230 f i libucrtd:output.obj
 0001:00030240       ?get_parameter_type@?$positional_parameter_base@_WV?$stream_output_adapter@_W@__crt_stdio_output@@@__crt_stdio_output@@CA?AW4parameter_type@12@_W@Z 10031240 f i libucrtd:output.obj
 0001:00030250       ?get_parameter_type@?$positional_parameter_base@_WV?$string_output_adapter@_W@__crt_stdio_output@@@__crt_stdio_output@@CA?AW4parameter_type@12@F@Z 10031250 f i libucrtd:output.obj
 0001:00030260       ?get_parameter_type@?$positional_parameter_base@_WV?$string_output_adapter@_W@__crt_stdio_output@@@__crt_stdio_output@@CA?AW4parameter_type@12@G@Z 10031260 f i libucrtd:output.obj
 0001:00030270       ?get_parameter_type@?$positional_parameter_base@_WV?$string_output_adapter@_W@__crt_stdio_output@@@__crt_stdio_output@@CA?AW4parameter_type@12@H@Z 10031270 f i libucrtd:output.obj
 0001:00030280       ?get_parameter_type@?$positional_parameter_base@_WV?$string_output_adapter@_W@__crt_stdio_output@@@__crt_stdio_output@@CA?AW4parameter_type@12@I@Z 10031280 f i libucrtd:output.obj
 0001:00030290       ?get_parameter_type@?$positional_parameter_base@_WV?$string_output_adapter@_W@__crt_stdio_output@@@__crt_stdio_output@@CA?AW4parameter_type@12@U_CRT_DOUBLE@@@Z 10031290 f i libucrtd:output.obj
 0001:000302a0       ?get_parameter_type@?$positional_parameter_base@_WV?$string_output_adapter@_W@__crt_stdio_output@@@__crt_stdio_output@@CA?AW4parameter_type@12@_J@Z 100312a0 f i libucrtd:output.obj
 0001:000302b0       ?get_parameter_type@?$positional_parameter_base@_WV?$string_output_adapter@_W@__crt_stdio_output@@@__crt_stdio_output@@CA?AW4parameter_type@12@_K@Z 100312b0 f i libucrtd:output.obj
 0001:000302c0       ?get_parameter_type@?$positional_parameter_base@_WV?$string_output_adapter@_W@__crt_stdio_output@@@__crt_stdio_output@@CA?AW4parameter_type@12@_W@Z 100312c0 f i libucrtd:output.obj
 0001:000302d0       ?has_flag@?$output_processor@DV?$stream_output_adapter@D@__crt_stdio_output@@V?$format_validation_base@DV?$stream_output_adapter@D@__crt_stdio_output@@@2@@__crt_stdio_output@@ABE_NI@Z 100312d0 f i libucrtd:output.obj
 0001:00030300       ?has_flag@?$output_processor@DV?$stream_output_adapter@D@__crt_stdio_output@@V?$positional_parameter_base@DV?$stream_output_adapter@D@__crt_stdio_output@@@2@@__crt_stdio_output@@ABE_NI@Z 10031300 f i libucrtd:output.obj
 0001:00030330       ?has_flag@?$output_processor@DV?$stream_output_adapter@D@__crt_stdio_output@@V?$standard_base@DV?$stream_output_adapter@D@__crt_stdio_output@@@2@@__crt_stdio_output@@ABE_NI@Z 10031330 f i libucrtd:output.obj
 0001:00030360       ?has_flag@?$output_processor@DV?$string_output_adapter@D@__crt_stdio_output@@V?$format_validation_base@DV?$string_output_adapter@D@__crt_stdio_output@@@2@@__crt_stdio_output@@ABE_NI@Z 10031360 f i libucrtd:output.obj
 0001:00030390       ?has_flag@?$output_processor@DV?$string_output_adapter@D@__crt_stdio_output@@V?$positional_parameter_base@DV?$string_output_adapter@D@__crt_stdio_output@@@2@@__crt_stdio_output@@ABE_NI@Z 10031390 f i libucrtd:output.obj
 0001:000303c0       ?has_flag@?$output_processor@DV?$string_output_adapter@D@__crt_stdio_output@@V?$standard_base@DV?$string_output_adapter@D@__crt_stdio_output@@@2@@__crt_stdio_output@@ABE_NI@Z 100313c0 f i libucrtd:output.obj
 0001:000303f0       ?has_flag@?$output_processor@_WV?$stream_output_adapter@_W@__crt_stdio_output@@V?$format_validation_base@_WV?$stream_output_adapter@_W@__crt_stdio_output@@@2@@__crt_stdio_output@@ABE_NI@Z 100313f0 f i libucrtd:output.obj
 0001:00030420       ?has_flag@?$output_processor@_WV?$stream_output_adapter@_W@__crt_stdio_output@@V?$positional_parameter_base@_WV?$stream_output_adapter@_W@__crt_stdio_output@@@2@@__crt_stdio_output@@ABE_NI@Z 10031420 f i libucrtd:output.obj
 0001:00030450       ?has_flag@?$output_processor@_WV?$stream_output_adapter@_W@__crt_stdio_output@@V?$standard_base@_WV?$stream_output_adapter@_W@__crt_stdio_output@@@2@@__crt_stdio_output@@ABE_NI@Z 10031450 f i libucrtd:output.obj
 0001:00030480       ?has_flag@?$output_processor@_WV?$string_output_adapter@_W@__crt_stdio_output@@V?$format_validation_base@_WV?$string_output_adapter@_W@__crt_stdio_output@@@2@@__crt_stdio_output@@ABE_NI@Z 10031480 f i libucrtd:output.obj
 0001:000304b0       ?has_flag@?$output_processor@_WV?$string_output_adapter@_W@__crt_stdio_output@@V?$positional_parameter_base@_WV?$string_output_adapter@_W@__crt_stdio_output@@@2@@__crt_stdio_output@@ABE_NI@Z 100314b0 f i libucrtd:output.obj
 0001:000304e0       ?has_flag@?$output_processor@_WV?$string_output_adapter@_W@__crt_stdio_output@@V?$standard_base@_WV?$string_output_adapter@_W@__crt_stdio_output@@@2@@__crt_stdio_output@@ABE_NI@Z 100314e0 f i libucrtd:output.obj
 0001:00030510       ?is_positional_parameter_reappearance_consistent@?$positional_parameter_base@DV?$stream_output_adapter@D@__crt_stdio_output@@@__crt_stdio_output@@AAE_NABUparameter_data@12@W4parameter_type@12@DW4length_modifier@2@@Z 10031510 f i libucrtd:output.obj
 0001:00030740       ?is_positional_parameter_reappearance_consistent@?$positional_parameter_base@DV?$string_output_adapter@D@__crt_stdio_output@@@__crt_stdio_output@@AAE_NABUparameter_data@12@W4parameter_type@12@DW4length_modifier@2@@Z 10031740 f i libucrtd:output.obj
 0001:00030970       ?is_positional_parameter_reappearance_consistent@?$positional_parameter_base@_WV?$stream_output_adapter@_W@__crt_stdio_output@@@__crt_stdio_output@@AAE_NABUparameter_data@12@W4parameter_type@12@_WW4length_modifier@2@@Z 10031970 f i libucrtd:output.obj
 0001:00030ba0       ?is_positional_parameter_reappearance_consistent@?$positional_parameter_base@_WV?$string_output_adapter@_W@__crt_stdio_output@@@__crt_stdio_output@@AAE_NABUparameter_data@12@W4parameter_type@12@_WW4length_modifier@2@@Z 10031ba0 f i libucrtd:output.obj
 0001:00030dd0       ?is_string_backed@__crt_stdio_stream@@QBE_NXZ 10031dd0 f i libucrtd:output.obj
 0001:00030e10       ?narrow_null_string@?$output_processor@DV?$stream_output_adapter@D@__crt_stdio_output@@V?$format_validation_base@DV?$stream_output_adapter@D@__crt_stdio_output@@@2@@__crt_stdio_output@@CAPADXZ 10031e10 f i libucrtd:output.obj
 0001:00030e20       ?narrow_null_string@?$output_processor@DV?$stream_output_adapter@D@__crt_stdio_output@@V?$positional_parameter_base@DV?$stream_output_adapter@D@__crt_stdio_output@@@2@@__crt_stdio_output@@CAPADXZ 10031e20 f i libucrtd:output.obj
 0001:00030e30       ?narrow_null_string@?$output_processor@DV?$stream_output_adapter@D@__crt_stdio_output@@V?$standard_base@DV?$stream_output_adapter@D@__crt_stdio_output@@@2@@__crt_stdio_output@@CAPADXZ 10031e30 f i libucrtd:output.obj
 0001:00030e40       ?narrow_null_string@?$output_processor@DV?$string_output_adapter@D@__crt_stdio_output@@V?$format_validation_base@DV?$string_output_adapter@D@__crt_stdio_output@@@2@@__crt_stdio_output@@CAPADXZ 10031e40 f i libucrtd:output.obj
 0001:00030e50       ?narrow_null_string@?$output_processor@DV?$string_output_adapter@D@__crt_stdio_output@@V?$positional_parameter_base@DV?$string_output_adapter@D@__crt_stdio_output@@@2@@__crt_stdio_output@@CAPADXZ 10031e50 f i libucrtd:output.obj
 0001:00030e60       ?narrow_null_string@?$output_processor@DV?$string_output_adapter@D@__crt_stdio_output@@V?$standard_base@DV?$string_output_adapter@D@__crt_stdio_output@@@2@@__crt_stdio_output@@CAPADXZ 10031e60 f i libucrtd:output.obj
 0001:00030e70       ?narrow_null_string@?$output_processor@_WV?$stream_output_adapter@_W@__crt_stdio_output@@V?$format_validation_base@_WV?$stream_output_adapter@_W@__crt_stdio_output@@@2@@__crt_stdio_output@@CAPADXZ 10031e70 f i libucrtd:output.obj
 0001:00030e80       ?narrow_null_string@?$output_processor@_WV?$stream_output_adapter@_W@__crt_stdio_output@@V?$positional_parameter_base@_WV?$stream_output_adapter@_W@__crt_stdio_output@@@2@@__crt_stdio_output@@CAPADXZ 10031e80 f i libucrtd:output.obj
 0001:00030e90       ?narrow_null_string@?$output_processor@_WV?$stream_output_adapter@_W@__crt_stdio_output@@V?$standard_base@_WV?$stream_output_adapter@_W@__crt_stdio_output@@@2@@__crt_stdio_output@@CAPADXZ 10031e90 f i libucrtd:output.obj
 0001:00030ea0       ?narrow_null_string@?$output_processor@_WV?$string_output_adapter@_W@__crt_stdio_output@@V?$format_validation_base@_WV?$string_output_adapter@_W@__crt_stdio_output@@@2@@__crt_stdio_output@@CAPADXZ 10031ea0 f i libucrtd:output.obj
 0001:00030eb0       ?narrow_null_string@?$output_processor@_WV?$string_output_adapter@_W@__crt_stdio_output@@V?$positional_parameter_base@_WV?$string_output_adapter@_W@__crt_stdio_output@@@2@@__crt_stdio_output@@CAPADXZ 10031eb0 f i libucrtd:output.obj
 0001:00030ec0       ?narrow_null_string@?$output_processor@_WV?$string_output_adapter@_W@__crt_stdio_output@@V?$standard_base@_WV?$string_output_adapter@_W@__crt_stdio_output@@@2@@__crt_stdio_output@@CAPADXZ 10031ec0 f i libucrtd:output.obj
 0001:00030ed0       ?parse_int_from_format_string@?$output_processor@DV?$stream_output_adapter@D@__crt_stdio_output@@V?$format_validation_base@DV?$stream_output_adapter@D@__crt_stdio_output@@@2@@__crt_stdio_output@@AAE_NQAH@Z 10031ed0 f i libucrtd:output.obj
 0001:00030f90       ?parse_int_from_format_string@?$output_processor@DV?$stream_output_adapter@D@__crt_stdio_output@@V?$positional_parameter_base@DV?$stream_output_adapter@D@__crt_stdio_output@@@2@@__crt_stdio_output@@AAE_NQAH@Z 10031f90 f i libucrtd:output.obj
 0001:00031050       ?parse_int_from_format_string@?$output_processor@DV?$stream_output_adapter@D@__crt_stdio_output@@V?$standard_base@DV?$stream_output_adapter@D@__crt_stdio_output@@@2@@__crt_stdio_output@@AAE_NQAH@Z 10032050 f i libucrtd:output.obj
 0001:00031110       ?parse_int_from_format_string@?$output_processor@DV?$string_output_adapter@D@__crt_stdio_output@@V?$format_validation_base@DV?$string_output_adapter@D@__crt_stdio_output@@@2@@__crt_stdio_output@@AAE_NQAH@Z 10032110 f i libucrtd:output.obj
 0001:000311d0       ?parse_int_from_format_string@?$output_processor@DV?$string_output_adapter@D@__crt_stdio_output@@V?$positional_parameter_base@DV?$string_output_adapter@D@__crt_stdio_output@@@2@@__crt_stdio_output@@AAE_NQAH@Z 100321d0 f i libucrtd:output.obj
 0001:00031290       ?parse_int_from_format_string@?$output_processor@DV?$string_output_adapter@D@__crt_stdio_output@@V?$standard_base@DV?$string_output_adapter@D@__crt_stdio_output@@@2@@__crt_stdio_output@@AAE_NQAH@Z 10032290 f i libucrtd:output.obj
 0001:00031350       ?parse_int_from_format_string@?$output_processor@_WV?$stream_output_adapter@_W@__crt_stdio_output@@V?$format_validation_base@_WV?$stream_output_adapter@_W@__crt_stdio_output@@@2@@__crt_stdio_output@@AAE_NQAH@Z 10032350 f i libucrtd:output.obj
 0001:00031410       ?parse_int_from_format_string@?$output_processor@_WV?$stream_output_adapter@_W@__crt_stdio_output@@V?$positional_parameter_base@_WV?$stream_output_adapter@_W@__crt_stdio_output@@@2@@__crt_stdio_output@@AAE_NQAH@Z 10032410 f i libucrtd:output.obj
 0001:000314d0       ?parse_int_from_format_string@?$output_processor@_WV?$stream_output_adapter@_W@__crt_stdio_output@@V?$standard_base@_WV?$stream_output_adapter@_W@__crt_stdio_output@@@2@@__crt_stdio_output@@AAE_NQAH@Z 100324d0 f i libucrtd:output.obj
 0001:00031590       ?parse_int_from_format_string@?$output_processor@_WV?$string_output_adapter@_W@__crt_stdio_output@@V?$format_validation_base@_WV?$string_output_adapter@_W@__crt_stdio_output@@@2@@__crt_stdio_output@@AAE_NQAH@Z 10032590 f i libucrtd:output.obj
 0001:00031650       ?parse_int_from_format_string@?$output_processor@_WV?$string_output_adapter@_W@__crt_stdio_output@@V?$positional_parameter_base@_WV?$string_output_adapter@_W@__crt_stdio_output@@@2@@__crt_stdio_output@@AAE_NQAH@Z 10032650 f i libucrtd:output.obj
 0001:00031710       ?parse_int_from_format_string@?$output_processor@_WV?$string_output_adapter@_W@__crt_stdio_output@@V?$standard_base@_WV?$string_output_adapter@_W@__crt_stdio_output@@@2@@__crt_stdio_output@@AAE_NQAH@Z 10032710 f i libucrtd:output.obj
 0001:000317d0       ?process@?$output_processor@DV?$stream_output_adapter@D@__crt_stdio_output@@V?$format_validation_base@DV?$stream_output_adapter@D@__crt_stdio_output@@@2@@__crt_stdio_output@@QAEHXZ 100327d0 f i libucrtd:output.obj
 0001:00031a80       ?process@?$output_processor@DV?$stream_output_adapter@D@__crt_stdio_output@@V?$positional_parameter_base@DV?$stream_output_adapter@D@__crt_stdio_output@@@2@@__crt_stdio_output@@QAEHXZ 10032a80 f i libucrtd:output.obj
 0001:00031d30       ?process@?$output_processor@DV?$stream_output_adapter@D@__crt_stdio_output@@V?$standard_base@DV?$stream_output_adapter@D@__crt_stdio_output@@@2@@__crt_stdio_output@@QAEHXZ 10032d30 f i libucrtd:output.obj
 0001:00031fe0       ?process@?$output_processor@DV?$string_output_adapter@D@__crt_stdio_output@@V?$format_validation_base@DV?$string_output_adapter@D@__crt_stdio_output@@@2@@__crt_stdio_output@@QAEHXZ 10032fe0 f i libucrtd:output.obj
 0001:00032290       ?process@?$output_processor@DV?$string_output_adapter@D@__crt_stdio_output@@V?$positional_parameter_base@DV?$string_output_adapter@D@__crt_stdio_output@@@2@@__crt_stdio_output@@QAEHXZ 10033290 f i libucrtd:output.obj
 0001:00032540       ?process@?$output_processor@DV?$string_output_adapter@D@__crt_stdio_output@@V?$standard_base@DV?$string_output_adapter@D@__crt_stdio_output@@@2@@__crt_stdio_output@@QAEHXZ 10033540 f i libucrtd:output.obj
 0001:000327f0       ?process@?$output_processor@_WV?$stream_output_adapter@_W@__crt_stdio_output@@V?$format_validation_base@_WV?$stream_output_adapter@_W@__crt_stdio_output@@@2@@__crt_stdio_output@@QAEHXZ 100337f0 f i libucrtd:output.obj
 0001:00032aa0       ?process@?$output_processor@_WV?$stream_output_adapter@_W@__crt_stdio_output@@V?$positional_parameter_base@_WV?$stream_output_adapter@_W@__crt_stdio_output@@@2@@__crt_stdio_output@@QAEHXZ 10033aa0 f i libucrtd:output.obj
 0001:00032d50       ?process@?$output_processor@_WV?$stream_output_adapter@_W@__crt_stdio_output@@V?$standard_base@_WV?$stream_output_adapter@_W@__crt_stdio_output@@@2@@__crt_stdio_output@@QAEHXZ 10033d50 f i libucrtd:output.obj
 0001:00033000       ?process@?$output_processor@_WV?$string_output_adapter@_W@__crt_stdio_output@@V?$format_validation_base@_WV?$string_output_adapter@_W@__crt_stdio_output@@@2@@__crt_stdio_output@@QAEHXZ 10034000 f i libucrtd:output.obj
 0001:000332b0       ?process@?$output_processor@_WV?$string_output_adapter@_W@__crt_stdio_output@@V?$positional_parameter_base@_WV?$string_output_adapter@_W@__crt_stdio_output@@@2@@__crt_stdio_output@@QAEHXZ 100342b0 f i libucrtd:output.obj
 0001:00033560       ?process@?$output_processor@_WV?$string_output_adapter@_W@__crt_stdio_output@@V?$standard_base@_WV?$string_output_adapter@_W@__crt_stdio_output@@@2@@__crt_stdio_output@@QAEHXZ 10034560 f i libucrtd:output.obj
 0001:00033810       ?public_stream@__crt_stdio_stream@@QBEPAU_iobuf@@XZ 10034810 f i libucrtd:output.obj
 0001:00033830       ?set_flag@?$output_processor@DV?$stream_output_adapter@D@__crt_stdio_output@@V?$format_validation_base@DV?$stream_output_adapter@D@__crt_stdio_output@@@2@@__crt_stdio_output@@AAEXI@Z 10034830 f i libucrtd:output.obj
 0001:00033850       ?set_flag@?$output_processor@DV?$stream_output_adapter@D@__crt_stdio_output@@V?$positional_parameter_base@DV?$stream_output_adapter@D@__crt_stdio_output@@@2@@__crt_stdio_output@@AAEXI@Z 10034850 f i libucrtd:output.obj
 0001:00033870       ?set_flag@?$output_processor@DV?$stream_output_adapter@D@__crt_stdio_output@@V?$standard_base@DV?$stream_output_adapter@D@__crt_stdio_output@@@2@@__crt_stdio_output@@AAEXI@Z 10034870 f i libucrtd:output.obj
 0001:00033890       ?set_flag@?$output_processor@DV?$string_output_adapter@D@__crt_stdio_output@@V?$format_validation_base@DV?$string_output_adapter@D@__crt_stdio_output@@@2@@__crt_stdio_output@@AAEXI@Z 10034890 f i libucrtd:output.obj
 0001:000338b0       ?set_flag@?$output_processor@DV?$string_output_adapter@D@__crt_stdio_output@@V?$positional_parameter_base@DV?$string_output_adapter@D@__crt_stdio_output@@@2@@__crt_stdio_output@@AAEXI@Z 100348b0 f i libucrtd:output.obj
 0001:000338d0       ?set_flag@?$output_processor@DV?$string_output_adapter@D@__crt_stdio_output@@V?$standard_base@DV?$string_output_adapter@D@__crt_stdio_output@@@2@@__crt_stdio_output@@AAEXI@Z 100348d0 f i libucrtd:output.obj
 0001:000338f0       ?set_flag@?$output_processor@_WV?$stream_output_adapter@_W@__crt_stdio_output@@V?$format_validation_base@_WV?$stream_output_adapter@_W@__crt_stdio_output@@@2@@__crt_stdio_output@@AAEXI@Z 100348f0 f i libucrtd:output.obj
 0001:00033910       ?set_flag@?$output_processor@_WV?$stream_output_adapter@_W@__crt_stdio_output@@V?$positional_parameter_base@_WV?$stream_output_adapter@_W@__crt_stdio_output@@@2@@__crt_stdio_output@@AAEXI@Z 10034910 f i libucrtd:output.obj
 0001:00033930       ?set_flag@?$output_processor@_WV?$stream_output_adapter@_W@__crt_stdio_output@@V?$standard_base@_WV?$stream_output_adapter@_W@__crt_stdio_output@@@2@@__crt_stdio_output@@AAEXI@Z 10034930 f i libucrtd:output.obj
 0001:00033950       ?set_flag@?$output_processor@_WV?$string_output_adapter@_W@__crt_stdio_output@@V?$format_validation_base@_WV?$string_output_adapter@_W@__crt_stdio_output@@@2@@__crt_stdio_output@@AAEXI@Z 10034950 f i libucrtd:output.obj
 0001:00033970       ?set_flag@?$output_processor@_WV?$string_output_adapter@_W@__crt_stdio_output@@V?$positional_parameter_base@_WV?$string_output_adapter@_W@__crt_stdio_output@@@2@@__crt_stdio_output@@AAEXI@Z 10034970 f i libucrtd:output.obj
 0001:00033990       ?set_flag@?$output_processor@_WV?$string_output_adapter@_W@__crt_stdio_output@@V?$standard_base@_WV?$string_output_adapter@_W@__crt_stdio_output@@@2@@__crt_stdio_output@@AAEXI@Z 10034990 f i libucrtd:output.obj
 0001:000339b0       ?should_format@?$positional_parameter_base@DV?$stream_output_adapter@D@__crt_stdio_output@@@__crt_stdio_output@@IAE_NXZ 100349b0 f i libucrtd:output.obj
 0001:000339f0       ?should_format@?$positional_parameter_base@DV?$string_output_adapter@D@__crt_stdio_output@@@__crt_stdio_output@@IAE_NXZ 100349f0 f i libucrtd:output.obj
 0001:00033a30       ?should_format@?$positional_parameter_base@_WV?$stream_output_adapter@_W@__crt_stdio_output@@@__crt_stdio_output@@IAE_NXZ 10034a30 f i libucrtd:output.obj
 0001:00033a70       ?should_format@?$positional_parameter_base@_WV?$string_output_adapter@_W@__crt_stdio_output@@@__crt_stdio_output@@IAE_NXZ 10034a70 f i libucrtd:output.obj
 0001:00033ab0       ?should_format@?$standard_base@DV?$stream_output_adapter@D@__crt_stdio_output@@@__crt_stdio_output@@IAE_NXZ 10034ab0 f i libucrtd:output.obj
 0001:00033ac0       ?should_format@?$standard_base@DV?$string_output_adapter@D@__crt_stdio_output@@@__crt_stdio_output@@IAE_NXZ 10034ac0 f i libucrtd:output.obj
 0001:00033ad0       ?should_format@?$standard_base@_WV?$stream_output_adapter@_W@__crt_stdio_output@@@__crt_stdio_output@@IAE_NXZ 10034ad0 f i libucrtd:output.obj
 0001:00033ae0       ?should_format@?$standard_base@_WV?$string_output_adapter@_W@__crt_stdio_output@@@__crt_stdio_output@@IAE_NXZ 10034ae0 f i libucrtd:output.obj
 0001:00033af0       ?should_skip_normal_state_processing@?$positional_parameter_base@DV?$stream_output_adapter@D@__crt_stdio_output@@@__crt_stdio_output@@IAE_NXZ 10034af0 f i libucrtd:output.obj
 0001:00033b40       ?should_skip_normal_state_processing@?$positional_parameter_base@DV?$string_output_adapter@D@__crt_stdio_output@@@__crt_stdio_output@@IAE_NXZ 10034b40 f i libucrtd:output.obj
 0001:00033b90       ?should_skip_normal_state_processing@?$positional_parameter_base@_WV?$stream_output_adapter@_W@__crt_stdio_output@@@__crt_stdio_output@@IAE_NXZ 10034b90 f i libucrtd:output.obj
 0001:00033be0       ?should_skip_normal_state_processing@?$positional_parameter_base@_WV?$string_output_adapter@_W@__crt_stdio_output@@@__crt_stdio_output@@IAE_NXZ 10034be0 f i libucrtd:output.obj
 0001:00033c30       ?should_skip_normal_state_processing@?$standard_base@DV?$stream_output_adapter@D@__crt_stdio_output@@@__crt_stdio_output@@IAE_NXZ 10034c30 f i libucrtd:output.obj
 0001:00033c40       ?should_skip_normal_state_processing@?$standard_base@DV?$string_output_adapter@D@__crt_stdio_output@@@__crt_stdio_output@@IAE_NXZ 10034c40 f i libucrtd:output.obj
 0001:00033c50       ?should_skip_normal_state_processing@?$standard_base@_WV?$stream_output_adapter@_W@__crt_stdio_output@@@__crt_stdio_output@@IAE_NXZ 10034c50 f i libucrtd:output.obj
 0001:00033c60       ?should_skip_normal_state_processing@?$standard_base@_WV?$string_output_adapter@_W@__crt_stdio_output@@@__crt_stdio_output@@IAE_NXZ 10034c60 f i libucrtd:output.obj
 0001:00033c70       ?should_skip_type_state_output@?$positional_parameter_base@DV?$stream_output_adapter@D@__crt_stdio_output@@@__crt_stdio_output@@IBE_NXZ 10034c70 f i libucrtd:output.obj
 0001:00033cb0       ?should_skip_type_state_output@?$positional_parameter_base@DV?$string_output_adapter@D@__crt_stdio_output@@@__crt_stdio_output@@IBE_NXZ 10034cb0 f i libucrtd:output.obj
 0001:00033cf0       ?should_skip_type_state_output@?$positional_parameter_base@_WV?$stream_output_adapter@_W@__crt_stdio_output@@@__crt_stdio_output@@IBE_NXZ 10034cf0 f i libucrtd:output.obj
 0001:00033d30       ?should_skip_type_state_output@?$positional_parameter_base@_WV?$string_output_adapter@_W@__crt_stdio_output@@@__crt_stdio_output@@IBE_NXZ 10034d30 f i libucrtd:output.obj
 0001:00033d70       ?should_skip_type_state_output@?$standard_base@DV?$stream_output_adapter@D@__crt_stdio_output@@@__crt_stdio_output@@IBE_NXZ 10034d70 f i libucrtd:output.obj
 0001:00033d80       ?should_skip_type_state_output@?$standard_base@DV?$string_output_adapter@D@__crt_stdio_output@@@__crt_stdio_output@@IBE_NXZ 10034d80 f i libucrtd:output.obj
 0001:00033d90       ?should_skip_type_state_output@?$standard_base@_WV?$stream_output_adapter@_W@__crt_stdio_output@@@__crt_stdio_output@@IBE_NXZ 10034d90 f i libucrtd:output.obj
 0001:00033da0       ?should_skip_type_state_output@?$standard_base@_WV?$string_output_adapter@_W@__crt_stdio_output@@@__crt_stdio_output@@IBE_NXZ 10034da0 f i libucrtd:output.obj
 0001:00033db0       ?state_case_dot@?$output_processor@DV?$stream_output_adapter@D@__crt_stdio_output@@V?$format_validation_base@DV?$stream_output_adapter@D@__crt_stdio_output@@@2@@__crt_stdio_output@@AAE_NXZ 10034db0 f i libucrtd:output.obj
 0001:00033dd0       ?state_case_dot@?$output_processor@DV?$stream_output_adapter@D@__crt_stdio_output@@V?$positional_parameter_base@DV?$stream_output_adapter@D@__crt_stdio_output@@@2@@__crt_stdio_output@@AAE_NXZ 10034dd0 f i libucrtd:output.obj
 0001:00033df0       ?state_case_dot@?$output_processor@DV?$stream_output_adapter@D@__crt_stdio_output@@V?$standard_base@DV?$stream_output_adapter@D@__crt_stdio_output@@@2@@__crt_stdio_output@@AAE_NXZ 10034df0 f i libucrtd:output.obj
 0001:00033e10       ?state_case_dot@?$output_processor@DV?$string_output_adapter@D@__crt_stdio_output@@V?$format_validation_base@DV?$string_output_adapter@D@__crt_stdio_output@@@2@@__crt_stdio_output@@AAE_NXZ 10034e10 f i libucrtd:output.obj
 0001:00033e30       ?state_case_dot@?$output_processor@DV?$string_output_adapter@D@__crt_stdio_output@@V?$positional_parameter_base@DV?$string_output_adapter@D@__crt_stdio_output@@@2@@__crt_stdio_output@@AAE_NXZ 10034e30 f i libucrtd:output.obj
 0001:00033e50       ?state_case_dot@?$output_processor@DV?$string_output_adapter@D@__crt_stdio_output@@V?$standard_base@DV?$string_output_adapter@D@__crt_stdio_output@@@2@@__crt_stdio_output@@AAE_NXZ 10034e50 f i libucrtd:output.obj
 0001:00033e70       ?state_case_dot@?$output_processor@_WV?$stream_output_adapter@_W@__crt_stdio_output@@V?$format_validation_base@_WV?$stream_output_adapter@_W@__crt_stdio_output@@@2@@__crt_stdio_output@@AAE_NXZ 10034e70 f i libucrtd:output.obj
 0001:00033e90       ?state_case_dot@?$output_processor@_WV?$stream_output_adapter@_W@__crt_stdio_output@@V?$positional_parameter_base@_WV?$stream_output_adapter@_W@__crt_stdio_output@@@2@@__crt_stdio_output@@AAE_NXZ 10034e90 f i libucrtd:output.obj
 0001:00033eb0       ?state_case_dot@?$output_processor@_WV?$stream_output_adapter@_W@__crt_stdio_output@@V?$standard_base@_WV?$stream_output_adapter@_W@__crt_stdio_output@@@2@@__crt_stdio_output@@AAE_NXZ 10034eb0 f i libucrtd:output.obj
 0001:00033ed0       ?state_case_dot@?$output_processor@_WV?$string_output_adapter@_W@__crt_stdio_output@@V?$format_validation_base@_WV?$string_output_adapter@_W@__crt_stdio_output@@@2@@__crt_stdio_output@@AAE_NXZ 10034ed0 f i libucrtd:output.obj
 0001:00033ef0       ?state_case_dot@?$output_processor@_WV?$string_output_adapter@_W@__crt_stdio_output@@V?$positional_parameter_base@_WV?$string_output_adapter@_W@__crt_stdio_output@@@2@@__crt_stdio_output@@AAE_NXZ 10034ef0 f i libucrtd:output.obj
 0001:00033f10       ?state_case_dot@?$output_processor@_WV?$string_output_adapter@_W@__crt_stdio_output@@V?$standard_base@_WV?$string_output_adapter@_W@__crt_stdio_output@@@2@@__crt_stdio_output@@AAE_NXZ 10034f10 f i libucrtd:output.obj
 0001:00033f30       ?state_case_flag@?$output_processor@DV?$stream_output_adapter@D@__crt_stdio_output@@V?$format_validation_base@DV?$stream_output_adapter@D@__crt_stdio_output@@@2@@__crt_stdio_output@@AAE_NXZ 10034f30 f i libucrtd:output.obj
 0001:00033fe0       ?state_case_flag@?$output_processor@DV?$stream_output_adapter@D@__crt_stdio_output@@V?$positional_parameter_base@DV?$stream_output_adapter@D@__crt_stdio_output@@@2@@__crt_stdio_output@@AAE_NXZ 10034fe0 f i libucrtd:output.obj
 0001:00034090       ?state_case_flag@?$output_processor@DV?$stream_output_adapter@D@__crt_stdio_output@@V?$standard_base@DV?$stream_output_adapter@D@__crt_stdio_output@@@2@@__crt_stdio_output@@AAE_NXZ 10035090 f i libucrtd:output.obj
 0001:00034140       ?state_case_flag@?$output_processor@DV?$string_output_adapter@D@__crt_stdio_output@@V?$format_validation_base@DV?$string_output_adapter@D@__crt_stdio_output@@@2@@__crt_stdio_output@@AAE_NXZ 10035140 f i libucrtd:output.obj
 0001:000341f0       ?state_case_flag@?$output_processor@DV?$string_output_adapter@D@__crt_stdio_output@@V?$positional_parameter_base@DV?$string_output_adapter@D@__crt_stdio_output@@@2@@__crt_stdio_output@@AAE_NXZ 100351f0 f i libucrtd:output.obj
 0001:000342a0       ?state_case_flag@?$output_processor@DV?$string_output_adapter@D@__crt_stdio_output@@V?$standard_base@DV?$string_output_adapter@D@__crt_stdio_output@@@2@@__crt_stdio_output@@AAE_NXZ 100352a0 f i libucrtd:output.obj
 0001:00034350       ?state_case_flag@?$output_processor@_WV?$stream_output_adapter@_W@__crt_stdio_output@@V?$format_validation_base@_WV?$stream_output_adapter@_W@__crt_stdio_output@@@2@@__crt_stdio_output@@AAE_NXZ 10035350 f i libucrtd:output.obj
 0001:00034400       ?state_case_flag@?$output_processor@_WV?$stream_output_adapter@_W@__crt_stdio_output@@V?$positional_parameter_base@_WV?$stream_output_adapter@_W@__crt_stdio_output@@@2@@__crt_stdio_output@@AAE_NXZ 10035400 f i libucrtd:output.obj
 0001:000344b0       ?state_case_flag@?$output_processor@_WV?$stream_output_adapter@_W@__crt_stdio_output@@V?$standard_base@_WV?$stream_output_adapter@_W@__crt_stdio_output@@@2@@__crt_stdio_output@@AAE_NXZ 100354b0 f i libucrtd:output.obj
 0001:00034560       ?state_case_flag@?$output_processor@_WV?$string_output_adapter@_W@__crt_stdio_output@@V?$format_validation_base@_WV?$string_output_adapter@_W@__crt_stdio_output@@@2@@__crt_stdio_output@@AAE_NXZ 10035560 f i libucrtd:output.obj
 0001:00034610       ?state_case_flag@?$output_processor@_WV?$string_output_adapter@_W@__crt_stdio_output@@V?$positional_parameter_base@_WV?$string_output_adapter@_W@__crt_stdio_output@@@2@@__crt_stdio_output@@AAE_NXZ 10035610 f i libucrtd:output.obj
 0001:000346c0       ?state_case_flag@?$output_processor@_WV?$string_output_adapter@_W@__crt_stdio_output@@V?$standard_base@_WV?$string_output_adapter@_W@__crt_stdio_output@@@2@@__crt_stdio_output@@AAE_NXZ 100356c0 f i libucrtd:output.obj
 0001:00034770       ?state_case_normal@?$output_processor@DV?$stream_output_adapter@D@__crt_stdio_output@@V?$format_validation_base@DV?$stream_output_adapter@D@__crt_stdio_output@@@2@@__crt_stdio_output@@AAE_NXZ 10035770 f i libucrtd:output.obj
 0001:00034820       ?state_case_normal@?$output_processor@DV?$stream_output_adapter@D@__crt_stdio_output@@V?$positional_parameter_base@DV?$stream_output_adapter@D@__crt_stdio_output@@@2@@__crt_stdio_output@@AAE_NXZ 10035820 f i libucrtd:output.obj
 0001:000348d0       ?state_case_normal@?$output_processor@DV?$stream_output_adapter@D@__crt_stdio_output@@V?$standard_base@DV?$stream_output_adapter@D@__crt_stdio_output@@@2@@__crt_stdio_output@@AAE_NXZ 100358d0 f i libucrtd:output.obj
 0001:00034980       ?state_case_normal@?$output_processor@DV?$string_output_adapter@D@__crt_stdio_output@@V?$format_validation_base@DV?$string_output_adapter@D@__crt_stdio_output@@@2@@__crt_stdio_output@@AAE_NXZ 10035980 f i libucrtd:output.obj
 0001:00034a30       ?state_case_normal@?$output_processor@DV?$string_output_adapter@D@__crt_stdio_output@@V?$positional_parameter_base@DV?$string_output_adapter@D@__crt_stdio_output@@@2@@__crt_stdio_output@@AAE_NXZ 10035a30 f i libucrtd:output.obj
 0001:00034ae0       ?state_case_normal@?$output_processor@DV?$string_output_adapter@D@__crt_stdio_output@@V?$standard_base@DV?$string_output_adapter@D@__crt_stdio_output@@@2@@__crt_stdio_output@@AAE_NXZ 10035ae0 f i libucrtd:output.obj
 0001:00034b90       ?state_case_normal@?$output_processor@_WV?$stream_output_adapter@_W@__crt_stdio_output@@V?$format_validation_base@_WV?$stream_output_adapter@_W@__crt_stdio_output@@@2@@__crt_stdio_output@@AAE_NXZ 10035b90 f i libucrtd:output.obj
 0001:00034c40       ?state_case_normal@?$output_processor@_WV?$stream_output_adapter@_W@__crt_stdio_output@@V?$positional_parameter_base@_WV?$stream_output_adapter@_W@__crt_stdio_output@@@2@@__crt_stdio_output@@AAE_NXZ 10035c40 f i libucrtd:output.obj
 0001:00034cf0       ?state_case_normal@?$output_processor@_WV?$stream_output_adapter@_W@__crt_stdio_output@@V?$standard_base@_WV?$stream_output_adapter@_W@__crt_stdio_output@@@2@@__crt_stdio_output@@AAE_NXZ 10035cf0 f i libucrtd:output.obj
 0001:00034da0       ?state_case_normal@?$output_processor@_WV?$string_output_adapter@_W@__crt_stdio_output@@V?$format_validation_base@_WV?$string_output_adapter@_W@__crt_stdio_output@@@2@@__crt_stdio_output@@AAE_NXZ 10035da0 f i libucrtd:output.obj
 0001:00034e50       ?state_case_normal@?$output_processor@_WV?$string_output_adapter@_W@__crt_stdio_output@@V?$positional_parameter_base@_WV?$string_output_adapter@_W@__crt_stdio_output@@@2@@__crt_stdio_output@@AAE_NXZ 10035e50 f i libucrtd:output.obj
 0001:00034f00       ?state_case_normal@?$output_processor@_WV?$string_output_adapter@_W@__crt_stdio_output@@V?$standard_base@_WV?$string_output_adapter@_W@__crt_stdio_output@@@2@@__crt_stdio_output@@AAE_NXZ 10035f00 f i libucrtd:output.obj
 0001:00034fb0       ?state_case_normal_common@?$output_processor@DV?$stream_output_adapter@D@__crt_stdio_output@@V?$format_validation_base@DV?$stream_output_adapter@D@__crt_stdio_output@@@2@@__crt_stdio_output@@AAE_NXZ 10035fb0 f i libucrtd:output.obj
 0001:00035000       ?state_case_normal_common@?$output_processor@DV?$stream_output_adapter@D@__crt_stdio_output@@V?$positional_parameter_base@DV?$stream_output_adapter@D@__crt_stdio_output@@@2@@__crt_stdio_output@@AAE_NXZ 10036000 f i libucrtd:output.obj
 0001:00035050       ?state_case_normal_common@?$output_processor@DV?$stream_output_adapter@D@__crt_stdio_output@@V?$standard_base@DV?$stream_output_adapter@D@__crt_stdio_output@@@2@@__crt_stdio_output@@AAE_NXZ 10036050 f i libucrtd:output.obj
 0001:000350a0       ?state_case_normal_common@?$output_processor@DV?$string_output_adapter@D@__crt_stdio_output@@V?$format_validation_base@DV?$string_output_adapter@D@__crt_stdio_output@@@2@@__crt_stdio_output@@AAE_NXZ 100360a0 f i libucrtd:output.obj
 0001:000350f0       ?state_case_normal_common@?$output_processor@DV?$string_output_adapter@D@__crt_stdio_output@@V?$positional_parameter_base@DV?$string_output_adapter@D@__crt_stdio_output@@@2@@__crt_stdio_output@@AAE_NXZ 100360f0 f i libucrtd:output.obj
 0001:00035140       ?state_case_normal_common@?$output_processor@DV?$string_output_adapter@D@__crt_stdio_output@@V?$standard_base@DV?$string_output_adapter@D@__crt_stdio_output@@@2@@__crt_stdio_output@@AAE_NXZ 10036140 f i libucrtd:output.obj
 0001:00035190       ?state_case_normal_common@?$output_processor@_WV?$stream_output_adapter@_W@__crt_stdio_output@@V?$format_validation_base@_WV?$stream_output_adapter@_W@__crt_stdio_output@@@2@@__crt_stdio_output@@AAE_NXZ 10036190 f i libucrtd:output.obj
 0001:000351e0       ?state_case_normal_common@?$output_processor@_WV?$stream_output_adapter@_W@__crt_stdio_output@@V?$positional_parameter_base@_WV?$stream_output_adapter@_W@__crt_stdio_output@@@2@@__crt_stdio_output@@AAE_NXZ 100361e0 f i libucrtd:output.obj
 0001:00035230       ?state_case_normal_common@?$output_processor@_WV?$stream_output_adapter@_W@__crt_stdio_output@@V?$standard_base@_WV?$stream_output_adapter@_W@__crt_stdio_output@@@2@@__crt_stdio_output@@AAE_NXZ 10036230 f i libucrtd:output.obj
 0001:00035280       ?state_case_normal_common@?$output_processor@_WV?$string_output_adapter@_W@__crt_stdio_output@@V?$format_validation_base@_WV?$string_output_adapter@_W@__crt_stdio_output@@@2@@__crt_stdio_output@@AAE_NXZ 10036280 f i libucrtd:output.obj
 0001:000352d0       ?state_case_normal_common@?$output_processor@_WV?$string_output_adapter@_W@__crt_stdio_output@@V?$positional_parameter_base@_WV?$string_output_adapter@_W@__crt_stdio_output@@@2@@__crt_stdio_output@@AAE_NXZ 100362d0 f i libucrtd:output.obj
 0001:00035320       ?state_case_normal_common@?$output_processor@_WV?$string_output_adapter@_W@__crt_stdio_output@@V?$standard_base@_WV?$string_output_adapter@_W@__crt_stdio_output@@@2@@__crt_stdio_output@@AAE_NXZ 10036320 f i libucrtd:output.obj
 0001:00035370       ?state_case_normal_tchar@?$output_processor@DV?$stream_output_adapter@D@__crt_stdio_output@@V?$format_validation_base@DV?$stream_output_adapter@D@__crt_stdio_output@@@2@@__crt_stdio_output@@AAE_ND@Z 10036370 f i libucrtd:output.obj
 0001:00035470       ?state_case_normal_tchar@?$output_processor@DV?$stream_output_adapter@D@__crt_stdio_output@@V?$positional_parameter_base@DV?$stream_output_adapter@D@__crt_stdio_output@@@2@@__crt_stdio_output@@AAE_ND@Z 10036470 f i libucrtd:output.obj
 0001:00035570       ?state_case_normal_tchar@?$output_processor@DV?$stream_output_adapter@D@__crt_stdio_output@@V?$standard_base@DV?$stream_output_adapter@D@__crt_stdio_output@@@2@@__crt_stdio_output@@AAE_ND@Z 10036570 f i libucrtd:output.obj
 0001:00035670       ?state_case_normal_tchar@?$output_processor@DV?$string_output_adapter@D@__crt_stdio_output@@V?$format_validation_base@DV?$string_output_adapter@D@__crt_stdio_output@@@2@@__crt_stdio_output@@AAE_ND@Z 10036670 f i libucrtd:output.obj
 0001:00035770       ?state_case_normal_tchar@?$output_processor@DV?$string_output_adapter@D@__crt_stdio_output@@V?$positional_parameter_base@DV?$string_output_adapter@D@__crt_stdio_output@@@2@@__crt_stdio_output@@AAE_ND@Z 10036770 f i libucrtd:output.obj
 0001:00035870       ?state_case_normal_tchar@?$output_processor@DV?$string_output_adapter@D@__crt_stdio_output@@V?$standard_base@DV?$string_output_adapter@D@__crt_stdio_output@@@2@@__crt_stdio_output@@AAE_ND@Z 10036870 f i libucrtd:output.obj
 0001:00035970       ?state_case_normal_tchar@?$output_processor@_WV?$stream_output_adapter@_W@__crt_stdio_output@@V?$format_validation_base@_WV?$stream_output_adapter@_W@__crt_stdio_output@@@2@@__crt_stdio_output@@AAE_N_W@Z 10036970 f i libucrtd:output.obj
 0001:00035990       ?state_case_normal_tchar@?$output_processor@_WV?$stream_output_adapter@_W@__crt_stdio_output@@V?$positional_parameter_base@_WV?$stream_output_adapter@_W@__crt_stdio_output@@@2@@__crt_stdio_output@@AAE_N_W@Z 10036990 f i libucrtd:output.obj
 0001:000359b0       ?state_case_normal_tchar@?$output_processor@_WV?$stream_output_adapter@_W@__crt_stdio_output@@V?$standard_base@_WV?$stream_output_adapter@_W@__crt_stdio_output@@@2@@__crt_stdio_output@@AAE_N_W@Z 100369b0 f i libucrtd:output.obj
 0001:000359d0       ?state_case_normal_tchar@?$output_processor@_WV?$string_output_adapter@_W@__crt_stdio_output@@V?$format_validation_base@_WV?$string_output_adapter@_W@__crt_stdio_output@@@2@@__crt_stdio_output@@AAE_N_W@Z 100369d0 f i libucrtd:output.obj
 0001:000359f0       ?state_case_normal_tchar@?$output_processor@_WV?$string_output_adapter@_W@__crt_stdio_output@@V?$positional_parameter_base@_WV?$string_output_adapter@_W@__crt_stdio_output@@@2@@__crt_stdio_output@@AAE_N_W@Z 100369f0 f i libucrtd:output.obj
 0001:00035a10       ?state_case_normal_tchar@?$output_processor@_WV?$string_output_adapter@_W@__crt_stdio_output@@V?$standard_base@_WV?$string_output_adapter@_W@__crt_stdio_output@@@2@@__crt_stdio_output@@AAE_N_W@Z 10036a10 f i libucrtd:output.obj
 0001:00035a30       ?state_case_percent@?$output_processor@DV?$stream_output_adapter@D@__crt_stdio_output@@V?$format_validation_base@DV?$stream_output_adapter@D@__crt_stdio_output@@@2@@__crt_stdio_output@@AAE_NXZ 10036a30 f i libucrtd:output.obj
 0001:00035a80       ?state_case_percent@?$output_processor@DV?$stream_output_adapter@D@__crt_stdio_output@@V?$positional_parameter_base@DV?$stream_output_adapter@D@__crt_stdio_output@@@2@@__crt_stdio_output@@AAE_NXZ 10036a80 f i libucrtd:output.obj
 0001:00035ad0       ?state_case_percent@?$output_processor@DV?$stream_output_adapter@D@__crt_stdio_output@@V?$standard_base@DV?$stream_output_adapter@D@__crt_stdio_output@@@2@@__crt_stdio_output@@AAE_NXZ 10036ad0 f i libucrtd:output.obj
 0001:00035b20       ?state_case_percent@?$output_processor@DV?$string_output_adapter@D@__crt_stdio_output@@V?$format_validation_base@DV?$string_output_adapter@D@__crt_stdio_output@@@2@@__crt_stdio_output@@AAE_NXZ 10036b20 f i libucrtd:output.obj
 0001:00035b70       ?state_case_percent@?$output_processor@DV?$string_output_adapter@D@__crt_stdio_output@@V?$positional_parameter_base@DV?$string_output_adapter@D@__crt_stdio_output@@@2@@__crt_stdio_output@@AAE_NXZ 10036b70 f i libucrtd:output.obj
 0001:00035bc0       ?state_case_percent@?$output_processor@DV?$string_output_adapter@D@__crt_stdio_output@@V?$standard_base@DV?$string_output_adapter@D@__crt_stdio_output@@@2@@__crt_stdio_output@@AAE_NXZ 10036bc0 f i libucrtd:output.obj
 0001:00035c10       ?state_case_percent@?$output_processor@_WV?$stream_output_adapter@_W@__crt_stdio_output@@V?$format_validation_base@_WV?$stream_output_adapter@_W@__crt_stdio_output@@@2@@__crt_stdio_output@@AAE_NXZ 10036c10 f i libucrtd:output.obj
 0001:00035c60       ?state_case_percent@?$output_processor@_WV?$stream_output_adapter@_W@__crt_stdio_output@@V?$positional_parameter_base@_WV?$stream_output_adapter@_W@__crt_stdio_output@@@2@@__crt_stdio_output@@AAE_NXZ 10036c60 f i libucrtd:output.obj
 0001:00035cb0       ?state_case_percent@?$output_processor@_WV?$stream_output_adapter@_W@__crt_stdio_output@@V?$standard_base@_WV?$stream_output_adapter@_W@__crt_stdio_output@@@2@@__crt_stdio_output@@AAE_NXZ 10036cb0 f i libucrtd:output.obj
 0001:00035d00       ?state_case_percent@?$output_processor@_WV?$string_output_adapter@_W@__crt_stdio_output@@V?$format_validation_base@_WV?$string_output_adapter@_W@__crt_stdio_output@@@2@@__crt_stdio_output@@AAE_NXZ 10036d00 f i libucrtd:output.obj
 0001:00035d50       ?state_case_percent@?$output_processor@_WV?$string_output_adapter@_W@__crt_stdio_output@@V?$positional_parameter_base@_WV?$string_output_adapter@_W@__crt_stdio_output@@@2@@__crt_stdio_output@@AAE_NXZ 10036d50 f i libucrtd:output.obj
 0001:00035da0       ?state_case_percent@?$output_processor@_WV?$string_output_adapter@_W@__crt_stdio_output@@V?$standard_base@_WV?$string_output_adapter@_W@__crt_stdio_output@@@2@@__crt_stdio_output@@AAE_NXZ 10036da0 f i libucrtd:output.obj
 0001:00035df0       ?state_case_precision@?$output_processor@DV?$stream_output_adapter@D@__crt_stdio_output@@V?$format_validation_base@DV?$stream_output_adapter@D@__crt_stdio_output@@@2@@__crt_stdio_output@@AAE_NXZ 10036df0 f i libucrtd:output.obj
 0001:00035e60       ?state_case_precision@?$output_processor@DV?$stream_output_adapter@D@__crt_stdio_output@@V?$positional_parameter_base@DV?$stream_output_adapter@D@__crt_stdio_output@@@2@@__crt_stdio_output@@AAE_NXZ 10036e60 f i libucrtd:output.obj
 0001:00035ed0       ?state_case_precision@?$output_processor@DV?$stream_output_adapter@D@__crt_stdio_output@@V?$standard_base@DV?$stream_output_adapter@D@__crt_stdio_output@@@2@@__crt_stdio_output@@AAE_NXZ 10036ed0 f i libucrtd:output.obj
 0001:00035f40       ?state_case_precision@?$output_processor@DV?$string_output_adapter@D@__crt_stdio_output@@V?$format_validation_base@DV?$string_output_adapter@D@__crt_stdio_output@@@2@@__crt_stdio_output@@AAE_NXZ 10036f40 f i libucrtd:output.obj
 0001:00035fb0       ?state_case_precision@?$output_processor@DV?$string_output_adapter@D@__crt_stdio_output@@V?$positional_parameter_base@DV?$string_output_adapter@D@__crt_stdio_output@@@2@@__crt_stdio_output@@AAE_NXZ 10036fb0 f i libucrtd:output.obj
 0001:00036020       ?state_case_precision@?$output_processor@DV?$string_output_adapter@D@__crt_stdio_output@@V?$standard_base@DV?$string_output_adapter@D@__crt_stdio_output@@@2@@__crt_stdio_output@@AAE_NXZ 10037020 f i libucrtd:output.obj
 0001:00036090       ?state_case_precision@?$output_processor@_WV?$stream_output_adapter@_W@__crt_stdio_output@@V?$format_validation_base@_WV?$stream_output_adapter@_W@__crt_stdio_output@@@2@@__crt_stdio_output@@AAE_NXZ 10037090 f i libucrtd:output.obj
 0001:00036100       ?state_case_precision@?$output_processor@_WV?$stream_output_adapter@_W@__crt_stdio_output@@V?$positional_parameter_base@_WV?$stream_output_adapter@_W@__crt_stdio_output@@@2@@__crt_stdio_output@@AAE_NXZ 10037100 f i libucrtd:output.obj
 0001:00036170       ?state_case_precision@?$output_processor@_WV?$stream_output_adapter@_W@__crt_stdio_output@@V?$standard_base@_WV?$stream_output_adapter@_W@__crt_stdio_output@@@2@@__crt_stdio_output@@AAE_NXZ 10037170 f i libucrtd:output.obj
 0001:000361e0       ?state_case_precision@?$output_processor@_WV?$string_output_adapter@_W@__crt_stdio_output@@V?$format_validation_base@_WV?$string_output_adapter@_W@__crt_stdio_output@@@2@@__crt_stdio_output@@AAE_NXZ 100371e0 f i libucrtd:output.obj
 0001:00036250       ?state_case_precision@?$output_processor@_WV?$string_output_adapter@_W@__crt_stdio_output@@V?$positional_parameter_base@_WV?$string_output_adapter@_W@__crt_stdio_output@@@2@@__crt_stdio_output@@AAE_NXZ 10037250 f i libucrtd:output.obj
 0001:000362c0       ?state_case_precision@?$output_processor@_WV?$string_output_adapter@_W@__crt_stdio_output@@V?$standard_base@_WV?$string_output_adapter@_W@__crt_stdio_output@@@2@@__crt_stdio_output@@AAE_NXZ 100372c0 f i libucrtd:output.obj
 0001:00036330       ?state_case_size@?$output_processor@DV?$stream_output_adapter@D@__crt_stdio_output@@V?$format_validation_base@DV?$stream_output_adapter@D@__crt_stdio_output@@@2@@__crt_stdio_output@@AAE_NXZ 10037330 f i libucrtd:output.obj
 0001:00036700       ?state_case_size@?$output_processor@DV?$stream_output_adapter@D@__crt_stdio_output@@V?$positional_parameter_base@DV?$stream_output_adapter@D@__crt_stdio_output@@@2@@__crt_stdio_output@@AAE_NXZ 10037700 f i libucrtd:output.obj
 0001:00036ad0       ?state_case_size@?$output_processor@DV?$stream_output_adapter@D@__crt_stdio_output@@V?$standard_base@DV?$stream_output_adapter@D@__crt_stdio_output@@@2@@__crt_stdio_output@@AAE_NXZ 10037ad0 f i libucrtd:output.obj
 0001:00036ea0       ?state_case_size@?$output_processor@DV?$string_output_adapter@D@__crt_stdio_output@@V?$format_validation_base@DV?$string_output_adapter@D@__crt_stdio_output@@@2@@__crt_stdio_output@@AAE_NXZ 10037ea0 f i libucrtd:output.obj
 0001:00037270       ?state_case_size@?$output_processor@DV?$string_output_adapter@D@__crt_stdio_output@@V?$positional_parameter_base@DV?$string_output_adapter@D@__crt_stdio_output@@@2@@__crt_stdio_output@@AAE_NXZ 10038270 f i libucrtd:output.obj
 0001:00037640       ?state_case_size@?$output_processor@DV?$string_output_adapter@D@__crt_stdio_output@@V?$standard_base@DV?$string_output_adapter@D@__crt_stdio_output@@@2@@__crt_stdio_output@@AAE_NXZ 10038640 f i libucrtd:output.obj
 0001:00037a10       ?state_case_size@?$output_processor@_WV?$stream_output_adapter@_W@__crt_stdio_output@@V?$format_validation_base@_WV?$stream_output_adapter@_W@__crt_stdio_output@@@2@@__crt_stdio_output@@AAE_NXZ 10038a10 f i libucrtd:output.obj
 0001:00037de0       ?state_case_size@?$output_processor@_WV?$stream_output_adapter@_W@__crt_stdio_output@@V?$positional_parameter_base@_WV?$stream_output_adapter@_W@__crt_stdio_output@@@2@@__crt_stdio_output@@AAE_NXZ 10038de0 f i libucrtd:output.obj
 0001:000381b0       ?state_case_size@?$output_processor@_WV?$stream_output_adapter@_W@__crt_stdio_output@@V?$standard_base@_WV?$stream_output_adapter@_W@__crt_stdio_output@@@2@@__crt_stdio_output@@AAE_NXZ 100391b0 f i libucrtd:output.obj
 0001:00038580       ?state_case_size@?$output_processor@_WV?$string_output_adapter@_W@__crt_stdio_output@@V?$format_validation_base@_WV?$string_output_adapter@_W@__crt_stdio_output@@@2@@__crt_stdio_output@@AAE_NXZ 10039580 f i libucrtd:output.obj
 0001:00038950       ?state_case_size@?$output_processor@_WV?$string_output_adapter@_W@__crt_stdio_output@@V?$positional_parameter_base@_WV?$string_output_adapter@_W@__crt_stdio_output@@@2@@__crt_stdio_output@@AAE_NXZ 10039950 f i libucrtd:output.obj
 0001:00038d20       ?state_case_size@?$output_processor@_WV?$string_output_adapter@_W@__crt_stdio_output@@V?$standard_base@_WV?$string_output_adapter@_W@__crt_stdio_output@@@2@@__crt_stdio_output@@AAE_NXZ 10039d20 f i libucrtd:output.obj
 0001:000390f0       ?state_case_type@?$output_processor@DV?$stream_output_adapter@D@__crt_stdio_output@@V?$format_validation_base@DV?$stream_output_adapter@D@__crt_stdio_output@@@2@@__crt_stdio_output@@AAE_NXZ 1003a0f0 f i libucrtd:output.obj
 0001:000394a0       ?state_case_type@?$output_processor@DV?$stream_output_adapter@D@__crt_stdio_output@@V?$positional_parameter_base@DV?$stream_output_adapter@D@__crt_stdio_output@@@2@@__crt_stdio_output@@AAE_NXZ 1003a4a0 f i libucrtd:output.obj
 0001:00039850       ?state_case_type@?$output_processor@DV?$stream_output_adapter@D@__crt_stdio_output@@V?$standard_base@DV?$stream_output_adapter@D@__crt_stdio_output@@@2@@__crt_stdio_output@@AAE_NXZ 1003a850 f i libucrtd:output.obj
 0001:00039c00       ?state_case_type@?$output_processor@DV?$string_output_adapter@D@__crt_stdio_output@@V?$format_validation_base@DV?$string_output_adapter@D@__crt_stdio_output@@@2@@__crt_stdio_output@@AAE_NXZ 1003ac00 f i libucrtd:output.obj
 0001:00039fb0       ?state_case_type@?$output_processor@DV?$string_output_adapter@D@__crt_stdio_output@@V?$positional_parameter_base@DV?$string_output_adapter@D@__crt_stdio_output@@@2@@__crt_stdio_output@@AAE_NXZ 1003afb0 f i libucrtd:output.obj
 0001:0003a360       ?state_case_type@?$output_processor@DV?$string_output_adapter@D@__crt_stdio_output@@V?$standard_base@DV?$string_output_adapter@D@__crt_stdio_output@@@2@@__crt_stdio_output@@AAE_NXZ 1003b360 f i libucrtd:output.obj
 0001:0003a710       ?state_case_type@?$output_processor@_WV?$stream_output_adapter@_W@__crt_stdio_output@@V?$format_validation_base@_WV?$stream_output_adapter@_W@__crt_stdio_output@@@2@@__crt_stdio_output@@AAE_NXZ 1003b710 f i libucrtd:output.obj
 0001:0003aaf0       ?state_case_type@?$output_processor@_WV?$stream_output_adapter@_W@__crt_stdio_output@@V?$positional_parameter_base@_WV?$stream_output_adapter@_W@__crt_stdio_output@@@2@@__crt_stdio_output@@AAE_NXZ 1003baf0 f i libucrtd:output.obj
 0001:0003aed0       ?state_case_type@?$output_processor@_WV?$stream_output_adapter@_W@__crt_stdio_output@@V?$standard_base@_WV?$stream_output_adapter@_W@__crt_stdio_output@@@2@@__crt_stdio_output@@AAE_NXZ 1003bed0 f i libucrtd:output.obj
 0001:0003b2b0       ?state_case_type@?$output_processor@_WV?$string_output_adapter@_W@__crt_stdio_output@@V?$format_validation_base@_WV?$string_output_adapter@_W@__crt_stdio_output@@@2@@__crt_stdio_output@@AAE_NXZ 1003c2b0 f i libucrtd:output.obj
 0001:0003b690       ?state_case_type@?$output_processor@_WV?$string_output_adapter@_W@__crt_stdio_output@@V?$positional_parameter_base@_WV?$string_output_adapter@_W@__crt_stdio_output@@@2@@__crt_stdio_output@@AAE_NXZ 1003c690 f i libucrtd:output.obj
 0001:0003ba70       ?state_case_type@?$output_processor@_WV?$string_output_adapter@_W@__crt_stdio_output@@V?$standard_base@_WV?$string_output_adapter@_W@__crt_stdio_output@@@2@@__crt_stdio_output@@AAE_NXZ 1003ca70 f i libucrtd:output.obj
 0001:0003be50       ?state_case_width@?$output_processor@DV?$stream_output_adapter@D@__crt_stdio_output@@V?$format_validation_base@DV?$stream_output_adapter@D@__crt_stdio_output@@@2@@__crt_stdio_output@@AAE_NXZ 1003ce50 f i libucrtd:output.obj
 0001:0003bed0       ?state_case_width@?$output_processor@DV?$stream_output_adapter@D@__crt_stdio_output@@V?$positional_parameter_base@DV?$stream_output_adapter@D@__crt_stdio_output@@@2@@__crt_stdio_output@@AAE_NXZ 1003ced0 f i libucrtd:output.obj
 0001:0003bf50       ?state_case_width@?$output_processor@DV?$stream_output_adapter@D@__crt_stdio_output@@V?$standard_base@DV?$stream_output_adapter@D@__crt_stdio_output@@@2@@__crt_stdio_output@@AAE_NXZ 1003cf50 f i libucrtd:output.obj
 0001:0003bfd0       ?state_case_width@?$output_processor@DV?$string_output_adapter@D@__crt_stdio_output@@V?$format_validation_base@DV?$string_output_adapter@D@__crt_stdio_output@@@2@@__crt_stdio_output@@AAE_NXZ 1003cfd0 f i libucrtd:output.obj
 0001:0003c050       ?state_case_width@?$output_processor@DV?$string_output_adapter@D@__crt_stdio_output@@V?$positional_parameter_base@DV?$string_output_adapter@D@__crt_stdio_output@@@2@@__crt_stdio_output@@AAE_NXZ 1003d050 f i libucrtd:output.obj
 0001:0003c0d0       ?state_case_width@?$output_processor@DV?$string_output_adapter@D@__crt_stdio_output@@V?$standard_base@DV?$string_output_adapter@D@__crt_stdio_output@@@2@@__crt_stdio_output@@AAE_NXZ 1003d0d0 f i libucrtd:output.obj
 0001:0003c150       ?state_case_width@?$output_processor@_WV?$stream_output_adapter@_W@__crt_stdio_output@@V?$format_validation_base@_WV?$stream_output_adapter@_W@__crt_stdio_output@@@2@@__crt_stdio_output@@AAE_NXZ 1003d150 f i libucrtd:output.obj
 0001:0003c1d0       ?state_case_width@?$output_processor@_WV?$stream_output_adapter@_W@__crt_stdio_output@@V?$positional_parameter_base@_WV?$stream_output_adapter@_W@__crt_stdio_output@@@2@@__crt_stdio_output@@AAE_NXZ 1003d1d0 f i libucrtd:output.obj
 0001:0003c250       ?state_case_width@?$output_processor@_WV?$stream_output_adapter@_W@__crt_stdio_output@@V?$standard_base@_WV?$stream_output_adapter@_W@__crt_stdio_output@@@2@@__crt_stdio_output@@AAE_NXZ 1003d250 f i libucrtd:output.obj
 0001:0003c2d0       ?state_case_width@?$output_processor@_WV?$string_output_adapter@_W@__crt_stdio_output@@V?$format_validation_base@_WV?$string_output_adapter@_W@__crt_stdio_output@@@2@@__crt_stdio_output@@AAE_NXZ 1003d2d0 f i libucrtd:output.obj
 0001:0003c350       ?state_case_width@?$output_processor@_WV?$string_output_adapter@_W@__crt_stdio_output@@V?$positional_parameter_base@_WV?$string_output_adapter@_W@__crt_stdio_output@@@2@@__crt_stdio_output@@AAE_NXZ 1003d350 f i libucrtd:output.obj
 0001:0003c3d0       ?state_case_width@?$output_processor@_WV?$string_output_adapter@_W@__crt_stdio_output@@V?$standard_base@_WV?$string_output_adapter@_W@__crt_stdio_output@@@2@@__crt_stdio_output@@AAE_NXZ 1003d3d0 f i libucrtd:output.obj
 0001:0003c450       ?state_count@?$format_validation_base@DV?$stream_output_adapter@D@__crt_stdio_output@@@__crt_stdio_output@@KAIXZ 1003d450 f i libucrtd:output.obj
 0001:0003c460       ?state_count@?$format_validation_base@DV?$string_output_adapter@D@__crt_stdio_output@@@__crt_stdio_output@@KAIXZ 1003d460 f i libucrtd:output.obj
 0001:0003c470       ?state_count@?$format_validation_base@_WV?$stream_output_adapter@_W@__crt_stdio_output@@@__crt_stdio_output@@KAIXZ 1003d470 f i libucrtd:output.obj
 0001:0003c480       ?state_count@?$format_validation_base@_WV?$string_output_adapter@_W@__crt_stdio_output@@@__crt_stdio_output@@KAIXZ 1003d480 f i libucrtd:output.obj
 0001:0003c490       ?state_count@?$standard_base@DV?$stream_output_adapter@D@__crt_stdio_output@@@__crt_stdio_output@@KAIXZ 1003d490 f i libucrtd:output.obj
 0001:0003c4a0       ?state_count@?$standard_base@DV?$string_output_adapter@D@__crt_stdio_output@@@__crt_stdio_output@@KAIXZ 1003d4a0 f i libucrtd:output.obj
 0001:0003c4b0       ?state_count@?$standard_base@_WV?$stream_output_adapter@_W@__crt_stdio_output@@@__crt_stdio_output@@KAIXZ 1003d4b0 f i libucrtd:output.obj
 0001:0003c4c0       ?state_count@?$standard_base@_WV?$string_output_adapter@_W@__crt_stdio_output@@@__crt_stdio_output@@KAIXZ 1003d4c0 f i libucrtd:output.obj
 0001:0003c4d0       ?state_transition_table@?$format_validation_base@DV?$stream_output_adapter@D@__crt_stdio_output@@@__crt_stdio_output@@KAABV?$spectre_mitigated_lookup_table@Ustate_transition_pair@__crt_stdio_output@@$0IA@@2@XZ 1003d4d0 f i libucrtd:output.obj
 0001:0003c4e0       ?state_transition_table@?$format_validation_base@DV?$string_output_adapter@D@__crt_stdio_output@@@__crt_stdio_output@@KAABV?$spectre_mitigated_lookup_table@Ustate_transition_pair@__crt_stdio_output@@$0IA@@2@XZ 1003d4e0 f i libucrtd:output.obj
 0001:0003c4f0       ?state_transition_table@?$format_validation_base@_WV?$stream_output_adapter@_W@__crt_stdio_output@@@__crt_stdio_output@@KAABV?$spectre_mitigated_lookup_table@Ustate_transition_pair@__crt_stdio_output@@$0IA@@2@XZ 1003d4f0 f i libucrtd:output.obj
 0001:0003c500       ?state_transition_table@?$format_validation_base@_WV?$string_output_adapter@_W@__crt_stdio_output@@@__crt_stdio_output@@KAABV?$spectre_mitigated_lookup_table@Ustate_transition_pair@__crt_stdio_output@@$0IA@@2@XZ 1003d500 f i libucrtd:output.obj
 0001:0003c510       ?state_transition_table@?$standard_base@DV?$stream_output_adapter@D@__crt_stdio_output@@@__crt_stdio_output@@KAABV?$spectre_mitigated_lookup_table@Ustate_transition_pair@__crt_stdio_output@@$0IA@@2@XZ 1003d510 f i libucrtd:output.obj
 0001:0003c520       ?state_transition_table@?$standard_base@DV?$string_output_adapter@D@__crt_stdio_output@@@__crt_stdio_output@@KAABV?$spectre_mitigated_lookup_table@Ustate_transition_pair@__crt_stdio_output@@$0IA@@2@XZ 1003d520 f i libucrtd:output.obj
 0001:0003c530       ?state_transition_table@?$standard_base@_WV?$stream_output_adapter@_W@__crt_stdio_output@@@__crt_stdio_output@@KAABV?$spectre_mitigated_lookup_table@Ustate_transition_pair@__crt_stdio_output@@$0IA@@2@XZ 1003d530 f i libucrtd:output.obj
 0001:0003c540       ?state_transition_table@?$standard_base@_WV?$string_output_adapter@_W@__crt_stdio_output@@@__crt_stdio_output@@KAABV?$spectre_mitigated_lookup_table@Ustate_transition_pair@__crt_stdio_output@@$0IA@@2@XZ 1003d540 f i libucrtd:output.obj
 0001:0003c550       ?tchar_string@?$common_data@D@__crt_stdio_output@@IAEAAPADD@Z 1003d550 f i libucrtd:output.obj
 0001:0003c570       ?tchar_string@?$common_data@D@__crt_stdio_output@@IAEAAPADXZ 1003d570 f i libucrtd:output.obj
 0001:0003c590       ?tchar_string@?$common_data@_W@__crt_stdio_output@@IAEAAPA_WXZ 1003d590 f i libucrtd:output.obj
 0001:0003c5b0       ?tchar_string@?$common_data@_W@__crt_stdio_output@@IAEAAPA_W_W@Z 1003d5b0 f i libucrtd:output.obj
 0001:0003c5d0       ?to_integer_size@__crt_stdio_output@@YAIW4length_modifier@1@@Z 1003d5d0 f i libucrtd:output.obj
 0001:0003c670       ?type_case_X@?$output_processor@DV?$stream_output_adapter@D@__crt_stdio_output@@V?$format_validation_base@DV?$stream_output_adapter@D@__crt_stdio_output@@@2@@__crt_stdio_output@@AAE_NXZ 1003d670 f i libucrtd:output.obj
 0001:0003c690       ?type_case_X@?$output_processor@DV?$stream_output_adapter@D@__crt_stdio_output@@V?$positional_parameter_base@DV?$stream_output_adapter@D@__crt_stdio_output@@@2@@__crt_stdio_output@@AAE_NXZ 1003d690 f i libucrtd:output.obj
 0001:0003c6b0       ?type_case_X@?$output_processor@DV?$stream_output_adapter@D@__crt_stdio_output@@V?$standard_base@DV?$stream_output_adapter@D@__crt_stdio_output@@@2@@__crt_stdio_output@@AAE_NXZ 1003d6b0 f i libucrtd:output.obj
 0001:0003c6d0       ?type_case_X@?$output_processor@DV?$string_output_adapter@D@__crt_stdio_output@@V?$format_validation_base@DV?$string_output_adapter@D@__crt_stdio_output@@@2@@__crt_stdio_output@@AAE_NXZ 1003d6d0 f i libucrtd:output.obj
 0001:0003c6f0       ?type_case_X@?$output_processor@DV?$string_output_adapter@D@__crt_stdio_output@@V?$positional_parameter_base@DV?$string_output_adapter@D@__crt_stdio_output@@@2@@__crt_stdio_output@@AAE_NXZ 1003d6f0 f i libucrtd:output.obj
 0001:0003c710       ?type_case_X@?$output_processor@DV?$string_output_adapter@D@__crt_stdio_output@@V?$standard_base@DV?$string_output_adapter@D@__crt_stdio_output@@@2@@__crt_stdio_output@@AAE_NXZ 1003d710 f i libucrtd:output.obj
 0001:0003c730       ?type_case_X@?$output_processor@_WV?$stream_output_adapter@_W@__crt_stdio_output@@V?$format_validation_base@_WV?$stream_output_adapter@_W@__crt_stdio_output@@@2@@__crt_stdio_output@@AAE_NXZ 1003d730 f i libucrtd:output.obj
 0001:0003c750       ?type_case_X@?$output_processor@_WV?$stream_output_adapter@_W@__crt_stdio_output@@V?$positional_parameter_base@_WV?$stream_output_adapter@_W@__crt_stdio_output@@@2@@__crt_stdio_output@@AAE_NXZ 1003d750 f i libucrtd:output.obj
 0001:0003c770       ?type_case_X@?$output_processor@_WV?$stream_output_adapter@_W@__crt_stdio_output@@V?$standard_base@_WV?$stream_output_adapter@_W@__crt_stdio_output@@@2@@__crt_stdio_output@@AAE_NXZ 1003d770 f i libucrtd:output.obj
 0001:0003c790       ?type_case_X@?$output_processor@_WV?$string_output_adapter@_W@__crt_stdio_output@@V?$format_validation_base@_WV?$string_output_adapter@_W@__crt_stdio_output@@@2@@__crt_stdio_output@@AAE_NXZ 1003d790 f i libucrtd:output.obj
 0001:0003c7b0       ?type_case_X@?$output_processor@_WV?$string_output_adapter@_W@__crt_stdio_output@@V?$positional_parameter_base@_WV?$string_output_adapter@_W@__crt_stdio_output@@@2@@__crt_stdio_output@@AAE_NXZ 1003d7b0 f i libucrtd:output.obj
 0001:0003c7d0       ?type_case_X@?$output_processor@_WV?$string_output_adapter@_W@__crt_stdio_output@@V?$standard_base@_WV?$string_output_adapter@_W@__crt_stdio_output@@@2@@__crt_stdio_output@@AAE_NXZ 1003d7d0 f i libucrtd:output.obj
 0001:0003c7f0       ?type_case_Z@?$output_processor@DV?$stream_output_adapter@D@__crt_stdio_output@@V?$format_validation_base@DV?$stream_output_adapter@D@__crt_stdio_output@@@2@@__crt_stdio_output@@AAE_NXZ 1003d7f0 f i libucrtd:output.obj
 0001:0003c8e0       ?type_case_Z@?$output_processor@DV?$stream_output_adapter@D@__crt_stdio_output@@V?$positional_parameter_base@DV?$stream_output_adapter@D@__crt_stdio_output@@@2@@__crt_stdio_output@@AAE_NXZ 1003d8e0 f i libucrtd:output.obj
 0001:0003c9d0       ?type_case_Z@?$output_processor@DV?$stream_output_adapter@D@__crt_stdio_output@@V?$standard_base@DV?$stream_output_adapter@D@__crt_stdio_output@@@2@@__crt_stdio_output@@AAE_NXZ 1003d9d0 f i libucrtd:output.obj
 0001:0003cac0       ?type_case_Z@?$output_processor@DV?$string_output_adapter@D@__crt_stdio_output@@V?$format_validation_base@DV?$string_output_adapter@D@__crt_stdio_output@@@2@@__crt_stdio_output@@AAE_NXZ 1003dac0 f i libucrtd:output.obj
 0001:0003cbb0       ?type_case_Z@?$output_processor@DV?$string_output_adapter@D@__crt_stdio_output@@V?$positional_parameter_base@DV?$string_output_adapter@D@__crt_stdio_output@@@2@@__crt_stdio_output@@AAE_NXZ 1003dbb0 f i libucrtd:output.obj
 0001:0003cca0       ?type_case_Z@?$output_processor@DV?$string_output_adapter@D@__crt_stdio_output@@V?$standard_base@DV?$string_output_adapter@D@__crt_stdio_output@@@2@@__crt_stdio_output@@AAE_NXZ 1003dca0 f i libucrtd:output.obj
 0001:0003cd90       ?type_case_Z@?$output_processor@_WV?$stream_output_adapter@_W@__crt_stdio_output@@V?$format_validation_base@_WV?$stream_output_adapter@_W@__crt_stdio_output@@@2@@__crt_stdio_output@@AAE_NXZ 1003dd90 f i libucrtd:output.obj
 0001:0003ce80       ?type_case_Z@?$output_processor@_WV?$stream_output_adapter@_W@__crt_stdio_output@@V?$positional_parameter_base@_WV?$stream_output_adapter@_W@__crt_stdio_output@@@2@@__crt_stdio_output@@AAE_NXZ 1003de80 f i libucrtd:output.obj
 0001:0003cf70       ?type_case_Z@?$output_processor@_WV?$stream_output_adapter@_W@__crt_stdio_output@@V?$standard_base@_WV?$stream_output_adapter@_W@__crt_stdio_output@@@2@@__crt_stdio_output@@AAE_NXZ 1003df70 f i libucrtd:output.obj
 0001:0003d060       ?type_case_Z@?$output_processor@_WV?$string_output_adapter@_W@__crt_stdio_output@@V?$format_validation_base@_WV?$string_output_adapter@_W@__crt_stdio_output@@@2@@__crt_stdio_output@@AAE_NXZ 1003e060 f i libucrtd:output.obj
 0001:0003d150       ?type_case_Z@?$output_processor@_WV?$string_output_adapter@_W@__crt_stdio_output@@V?$positional_parameter_base@_WV?$string_output_adapter@_W@__crt_stdio_output@@@2@@__crt_stdio_output@@AAE_NXZ 1003e150 f i libucrtd:output.obj
 0001:0003d240       ?type_case_Z@?$output_processor@_WV?$string_output_adapter@_W@__crt_stdio_output@@V?$standard_base@_WV?$string_output_adapter@_W@__crt_stdio_output@@@2@@__crt_stdio_output@@AAE_NXZ 1003e240 f i libucrtd:output.obj
 0001:0003d330       ?type_case_a@?$output_processor@DV?$stream_output_adapter@D@__crt_stdio_output@@V?$format_validation_base@DV?$stream_output_adapter@D@__crt_stdio_output@@@2@@__crt_stdio_output@@AAE_NXZ 1003e330 f i libucrtd:output.obj
 0001:0003d5a0       ?type_case_a@?$output_processor@DV?$stream_output_adapter@D@__crt_stdio_output@@V?$positional_parameter_base@DV?$stream_output_adapter@D@__crt_stdio_output@@@2@@__crt_stdio_output@@AAE_NXZ 1003e5a0 f i libucrtd:output.obj
 0001:0003d810       ?type_case_a@?$output_processor@DV?$stream_output_adapter@D@__crt_stdio_output@@V?$standard_base@DV?$stream_output_adapter@D@__crt_stdio_output@@@2@@__crt_stdio_output@@AAE_NXZ 1003e810 f i libucrtd:output.obj
 0001:0003da80       ?type_case_a@?$output_processor@DV?$string_output_adapter@D@__crt_stdio_output@@V?$format_validation_base@DV?$string_output_adapter@D@__crt_stdio_output@@@2@@__crt_stdio_output@@AAE_NXZ 1003ea80 f i libucrtd:output.obj
 0001:0003dcf0       ?type_case_a@?$output_processor@DV?$string_output_adapter@D@__crt_stdio_output@@V?$positional_parameter_base@DV?$string_output_adapter@D@__crt_stdio_output@@@2@@__crt_stdio_output@@AAE_NXZ 1003ecf0 f i libucrtd:output.obj
 0001:0003df60       ?type_case_a@?$output_processor@DV?$string_output_adapter@D@__crt_stdio_output@@V?$standard_base@DV?$string_output_adapter@D@__crt_stdio_output@@@2@@__crt_stdio_output@@AAE_NXZ 1003ef60 f i libucrtd:output.obj
 0001:0003e1d0       ?type_case_a@?$output_processor@_WV?$stream_output_adapter@_W@__crt_stdio_output@@V?$format_validation_base@_WV?$stream_output_adapter@_W@__crt_stdio_output@@@2@@__crt_stdio_output@@AAE_NXZ 1003f1d0 f i libucrtd:output.obj
 0001:0003e440       ?type_case_a@?$output_processor@_WV?$stream_output_adapter@_W@__crt_stdio_output@@V?$positional_parameter_base@_WV?$stream_output_adapter@_W@__crt_stdio_output@@@2@@__crt_stdio_output@@AAE_NXZ 1003f440 f i libucrtd:output.obj
 0001:0003e6b0       ?type_case_a@?$output_processor@_WV?$stream_output_adapter@_W@__crt_stdio_output@@V?$standard_base@_WV?$stream_output_adapter@_W@__crt_stdio_output@@@2@@__crt_stdio_output@@AAE_NXZ 1003f6b0 f i libucrtd:output.obj
 0001:0003e920       ?type_case_a@?$output_processor@_WV?$string_output_adapter@_W@__crt_stdio_output@@V?$format_validation_base@_WV?$string_output_adapter@_W@__crt_stdio_output@@@2@@__crt_stdio_output@@AAE_NXZ 1003f920 f i libucrtd:output.obj
 0001:0003eb90       ?type_case_a@?$output_processor@_WV?$string_output_adapter@_W@__crt_stdio_output@@V?$positional_parameter_base@_WV?$string_output_adapter@_W@__crt_stdio_output@@@2@@__crt_stdio_output@@AAE_NXZ 1003fb90 f i libucrtd:output.obj
 0001:0003ee00       ?type_case_a@?$output_processor@_WV?$string_output_adapter@_W@__crt_stdio_output@@V?$standard_base@_WV?$string_output_adapter@_W@__crt_stdio_output@@@2@@__crt_stdio_output@@AAE_NXZ 1003fe00 f i libucrtd:output.obj
 0001:0003f070       ?type_case_c@?$output_processor@DV?$stream_output_adapter@D@__crt_stdio_output@@V?$format_validation_base@DV?$stream_output_adapter@D@__crt_stdio_output@@@2@@__crt_stdio_output@@AAE_NXZ 10040070 f i libucrtd:output.obj
 0001:0003f090       ?type_case_c@?$output_processor@DV?$stream_output_adapter@D@__crt_stdio_output@@V?$positional_parameter_base@DV?$stream_output_adapter@D@__crt_stdio_output@@@2@@__crt_stdio_output@@AAE_NXZ 10040090 f i libucrtd:output.obj
 0001:0003f0b0       ?type_case_c@?$output_processor@DV?$stream_output_adapter@D@__crt_stdio_output@@V?$standard_base@DV?$stream_output_adapter@D@__crt_stdio_output@@@2@@__crt_stdio_output@@AAE_NXZ 100400b0 f i libucrtd:output.obj
 0001:0003f0d0       ?type_case_c@?$output_processor@DV?$string_output_adapter@D@__crt_stdio_output@@V?$format_validation_base@DV?$string_output_adapter@D@__crt_stdio_output@@@2@@__crt_stdio_output@@AAE_NXZ 100400d0 f i libucrtd:output.obj
 0001:0003f0f0       ?type_case_c@?$output_processor@DV?$string_output_adapter@D@__crt_stdio_output@@V?$positional_parameter_base@DV?$string_output_adapter@D@__crt_stdio_output@@@2@@__crt_stdio_output@@AAE_NXZ 100400f0 f i libucrtd:output.obj
 0001:0003f110       ?type_case_c@?$output_processor@DV?$string_output_adapter@D@__crt_stdio_output@@V?$standard_base@DV?$string_output_adapter@D@__crt_stdio_output@@@2@@__crt_stdio_output@@AAE_NXZ 10040110 f i libucrtd:output.obj
 0001:0003f130       ?type_case_c@?$output_processor@_WV?$stream_output_adapter@_W@__crt_stdio_output@@V?$format_validation_base@_WV?$stream_output_adapter@_W@__crt_stdio_output@@@2@@__crt_stdio_output@@AAE_NXZ 10040130 f i libucrtd:output.obj
 0001:0003f150       ?type_case_c@?$output_processor@_WV?$stream_output_adapter@_W@__crt_stdio_output@@V?$positional_parameter_base@_WV?$stream_output_adapter@_W@__crt_stdio_output@@@2@@__crt_stdio_output@@AAE_NXZ 10040150 f i libucrtd:output.obj
 0001:0003f170       ?type_case_c@?$output_processor@_WV?$stream_output_adapter@_W@__crt_stdio_output@@V?$standard_base@_WV?$stream_output_adapter@_W@__crt_stdio_output@@@2@@__crt_stdio_output@@AAE_NXZ 10040170 f i libucrtd:output.obj
 0001:0003f190       ?type_case_c@?$output_processor@_WV?$string_output_adapter@_W@__crt_stdio_output@@V?$format_validation_base@_WV?$string_output_adapter@_W@__crt_stdio_output@@@2@@__crt_stdio_output@@AAE_NXZ 10040190 f i libucrtd:output.obj
 0001:0003f1b0       ?type_case_c@?$output_processor@_WV?$string_output_adapter@_W@__crt_stdio_output@@V?$positional_parameter_base@_WV?$string_output_adapter@_W@__crt_stdio_output@@@2@@__crt_stdio_output@@AAE_NXZ 100401b0 f i libucrtd:output.obj
 0001:0003f1d0       ?type_case_c@?$output_processor@_WV?$string_output_adapter@_W@__crt_stdio_output@@V?$standard_base@_WV?$string_output_adapter@_W@__crt_stdio_output@@@2@@__crt_stdio_output@@AAE_NXZ 100401d0 f i libucrtd:output.obj
 0001:0003f1f0       ?type_case_c_tchar@?$output_processor@DV?$stream_output_adapter@D@__crt_stdio_output@@V?$format_validation_base@DV?$stream_output_adapter@D@__crt_stdio_output@@@2@@__crt_stdio_output@@AAE_ND@Z 100401f0 f i libucrtd:output.obj
 0001:0003f300       ?type_case_c_tchar@?$output_processor@DV?$stream_output_adapter@D@__crt_stdio_output@@V?$positional_parameter_base@DV?$stream_output_adapter@D@__crt_stdio_output@@@2@@__crt_stdio_output@@AAE_ND@Z 10040300 f i libucrtd:output.obj
 0001:0003f410       ?type_case_c_tchar@?$output_processor@DV?$stream_output_adapter@D@__crt_stdio_output@@V?$standard_base@DV?$stream_output_adapter@D@__crt_stdio_output@@@2@@__crt_stdio_output@@AAE_ND@Z 10040410 f i libucrtd:output.obj
 0001:0003f520       ?type_case_c_tchar@?$output_processor@DV?$string_output_adapter@D@__crt_stdio_output@@V?$format_validation_base@DV?$string_output_adapter@D@__crt_stdio_output@@@2@@__crt_stdio_output@@AAE_ND@Z 10040520 f i libucrtd:output.obj
 0001:0003f630       ?type_case_c_tchar@?$output_processor@DV?$string_output_adapter@D@__crt_stdio_output@@V?$positional_parameter_base@DV?$string_output_adapter@D@__crt_stdio_output@@@2@@__crt_stdio_output@@AAE_ND@Z 10040630 f i libucrtd:output.obj
 0001:0003f740       ?type_case_c_tchar@?$output_processor@DV?$string_output_adapter@D@__crt_stdio_output@@V?$standard_base@DV?$string_output_adapter@D@__crt_stdio_output@@@2@@__crt_stdio_output@@AAE_ND@Z 10040740 f i libucrtd:output.obj
 0001:0003f850       ?type_case_c_tchar@?$output_processor@_WV?$stream_output_adapter@_W@__crt_stdio_output@@V?$format_validation_base@_WV?$stream_output_adapter@_W@__crt_stdio_output@@@2@@__crt_stdio_output@@AAE_N_W@Z 10040850 f i libucrtd:output.obj
 0001:0003f950       ?type_case_c_tchar@?$output_processor@_WV?$stream_output_adapter@_W@__crt_stdio_output@@V?$positional_parameter_base@_WV?$stream_output_adapter@_W@__crt_stdio_output@@@2@@__crt_stdio_output@@AAE_N_W@Z 10040950 f i libucrtd:output.obj
 0001:0003fa50       ?type_case_c_tchar@?$output_processor@_WV?$stream_output_adapter@_W@__crt_stdio_output@@V?$standard_base@_WV?$stream_output_adapter@_W@__crt_stdio_output@@@2@@__crt_stdio_output@@AAE_N_W@Z 10040a50 f i libucrtd:output.obj
 0001:0003fb50       ?type_case_c_tchar@?$output_processor@_WV?$string_output_adapter@_W@__crt_stdio_output@@V?$format_validation_base@_WV?$string_output_adapter@_W@__crt_stdio_output@@@2@@__crt_stdio_output@@AAE_N_W@Z 10040b50 f i libucrtd:output.obj
 0001:0003fc50       ?type_case_c_tchar@?$output_processor@_WV?$string_output_adapter@_W@__crt_stdio_output@@V?$positional_parameter_base@_WV?$string_output_adapter@_W@__crt_stdio_output@@@2@@__crt_stdio_output@@AAE_N_W@Z 10040c50 f i libucrtd:output.obj
 0001:0003fd50       ?type_case_c_tchar@?$output_processor@_WV?$string_output_adapter@_W@__crt_stdio_output@@V?$standard_base@_WV?$string_output_adapter@_W@__crt_stdio_output@@@2@@__crt_stdio_output@@AAE_N_W@Z 10040d50 f i libucrtd:output.obj
 0001:0003fe50       ?type_case_d@?$output_processor@DV?$stream_output_adapter@D@__crt_stdio_output@@V?$format_validation_base@DV?$stream_output_adapter@D@__crt_stdio_output@@@2@@__crt_stdio_output@@AAE_NXZ 10040e50 f i libucrtd:output.obj
 0001:0003fe80       ?type_case_d@?$output_processor@DV?$stream_output_adapter@D@__crt_stdio_output@@V?$positional_parameter_base@DV?$stream_output_adapter@D@__crt_stdio_output@@@2@@__crt_stdio_output@@AAE_NXZ 10040e80 f i libucrtd:output.obj
 0001:0003feb0       ?type_case_d@?$output_processor@DV?$stream_output_adapter@D@__crt_stdio_output@@V?$standard_base@DV?$stream_output_adapter@D@__crt_stdio_output@@@2@@__crt_stdio_output@@AAE_NXZ 10040eb0 f i libucrtd:output.obj
 0001:0003fee0       ?type_case_d@?$output_processor@DV?$string_output_adapter@D@__crt_stdio_output@@V?$format_validation_base@DV?$string_output_adapter@D@__crt_stdio_output@@@2@@__crt_stdio_output@@AAE_NXZ 10040ee0 f i libucrtd:output.obj
 0001:0003ff10       ?type_case_d@?$output_processor@DV?$string_output_adapter@D@__crt_stdio_output@@V?$positional_parameter_base@DV?$string_output_adapter@D@__crt_stdio_output@@@2@@__crt_stdio_output@@AAE_NXZ 10040f10 f i libucrtd:output.obj
 0001:0003ff40       ?type_case_d@?$output_processor@DV?$string_output_adapter@D@__crt_stdio_output@@V?$standard_base@DV?$string_output_adapter@D@__crt_stdio_output@@@2@@__crt_stdio_output@@AAE_NXZ 10040f40 f i libucrtd:output.obj
 0001:0003ff70       ?type_case_d@?$output_processor@_WV?$stream_output_adapter@_W@__crt_stdio_output@@V?$format_validation_base@_WV?$stream_output_adapter@_W@__crt_stdio_output@@@2@@__crt_stdio_output@@AAE_NXZ 10040f70 f i libucrtd:output.obj
 0001:0003ffa0       ?type_case_d@?$output_processor@_WV?$stream_output_adapter@_W@__crt_stdio_output@@V?$positional_parameter_base@_WV?$stream_output_adapter@_W@__crt_stdio_output@@@2@@__crt_stdio_output@@AAE_NXZ 10040fa0 f i libucrtd:output.obj
 0001:0003ffd0       ?type_case_d@?$output_processor@_WV?$stream_output_adapter@_W@__crt_stdio_output@@V?$standard_base@_WV?$stream_output_adapter@_W@__crt_stdio_output@@@2@@__crt_stdio_output@@AAE_NXZ 10040fd0 f i libucrtd:output.obj
 0001:00040000       ?type_case_d@?$output_processor@_WV?$string_output_adapter@_W@__crt_stdio_output@@V?$format_validation_base@_WV?$string_output_adapter@_W@__crt_stdio_output@@@2@@__crt_stdio_output@@AAE_NXZ 10041000 f i libucrtd:output.obj
 0001:00040030       ?type_case_d@?$output_processor@_WV?$string_output_adapter@_W@__crt_stdio_output@@V?$positional_parameter_base@_WV?$string_output_adapter@_W@__crt_stdio_output@@@2@@__crt_stdio_output@@AAE_NXZ 10041030 f i libucrtd:output.obj
 0001:00040060       ?type_case_d@?$output_processor@_WV?$string_output_adapter@_W@__crt_stdio_output@@V?$standard_base@_WV?$string_output_adapter@_W@__crt_stdio_output@@@2@@__crt_stdio_output@@AAE_NXZ 10041060 f i libucrtd:output.obj
 0001:00040090       ?type_case_integer@?$output_processor@DV?$stream_output_adapter@D@__crt_stdio_output@@V?$format_validation_base@DV?$stream_output_adapter@D@__crt_stdio_output@@@2@@__crt_stdio_output@@AAE_NI_N@Z 10041090 f i libucrtd:output.obj
 0001:000403e0       ?type_case_integer@?$output_processor@DV?$stream_output_adapter@D@__crt_stdio_output@@V?$positional_parameter_base@DV?$stream_output_adapter@D@__crt_stdio_output@@@2@@__crt_stdio_output@@AAE_NI_N@Z 100413e0 f i libucrtd:output.obj
 0001:00040730       ?type_case_integer@?$output_processor@DV?$stream_output_adapter@D@__crt_stdio_output@@V?$standard_base@DV?$stream_output_adapter@D@__crt_stdio_output@@@2@@__crt_stdio_output@@AAE_NI_N@Z 10041730 f i libucrtd:output.obj
 0001:00040a80       ?type_case_integer@?$output_processor@DV?$string_output_adapter@D@__crt_stdio_output@@V?$format_validation_base@DV?$string_output_adapter@D@__crt_stdio_output@@@2@@__crt_stdio_output@@AAE_NI_N@Z 10041a80 f i libucrtd:output.obj
 0001:00040dd0       ?type_case_integer@?$output_processor@DV?$string_output_adapter@D@__crt_stdio_output@@V?$positional_parameter_base@DV?$string_output_adapter@D@__crt_stdio_output@@@2@@__crt_stdio_output@@AAE_NI_N@Z 10041dd0 f i libucrtd:output.obj
 0001:00041120       ?type_case_integer@?$output_processor@DV?$string_output_adapter@D@__crt_stdio_output@@V?$standard_base@DV?$string_output_adapter@D@__crt_stdio_output@@@2@@__crt_stdio_output@@AAE_NI_N@Z 10042120 f i libucrtd:output.obj
 0001:00041470       ?type_case_integer@?$output_processor@_WV?$stream_output_adapter@_W@__crt_stdio_output@@V?$format_validation_base@_WV?$stream_output_adapter@_W@__crt_stdio_output@@@2@@__crt_stdio_output@@AAE_NI_N@Z 10042470 f i libucrtd:output.obj
 0001:000417c0       ?type_case_integer@?$output_processor@_WV?$stream_output_adapter@_W@__crt_stdio_output@@V?$positional_parameter_base@_WV?$stream_output_adapter@_W@__crt_stdio_output@@@2@@__crt_stdio_output@@AAE_NI_N@Z 100427c0 f i libucrtd:output.obj
 0001:00041b10       ?type_case_integer@?$output_processor@_WV?$stream_output_adapter@_W@__crt_stdio_output@@V?$standard_base@_WV?$stream_output_adapter@_W@__crt_stdio_output@@@2@@__crt_stdio_output@@AAE_NI_N@Z 10042b10 f i libucrtd:output.obj
 0001:00041e70       ?type_case_integer@?$output_processor@_WV?$string_output_adapter@_W@__crt_stdio_output@@V?$format_validation_base@_WV?$string_output_adapter@_W@__crt_stdio_output@@@2@@__crt_stdio_output@@AAE_NI_N@Z 10042e70 f i libucrtd:output.obj
 0001:000421c0       ?type_case_integer@?$output_processor@_WV?$string_output_adapter@_W@__crt_stdio_output@@V?$positional_parameter_base@_WV?$string_output_adapter@_W@__crt_stdio_output@@@2@@__crt_stdio_output@@AAE_NI_N@Z 100431c0 f i libucrtd:output.obj
 0001:00042510       ?type_case_integer@?$output_processor@_WV?$string_output_adapter@_W@__crt_stdio_output@@V?$standard_base@_WV?$string_output_adapter@_W@__crt_stdio_output@@@2@@__crt_stdio_output@@AAE_NI_N@Z 10043510 f i libucrtd:output.obj
 0001:00042860       ?type_case_n@?$output_processor@DV?$stream_output_adapter@D@__crt_stdio_output@@V?$format_validation_base@DV?$stream_output_adapter@D@__crt_stdio_output@@@2@@__crt_stdio_output@@AAE_NXZ 10043860 f i libucrtd:output.obj
 0001:00042a50       ?type_case_n@?$output_processor@DV?$stream_output_adapter@D@__crt_stdio_output@@V?$positional_parameter_base@DV?$stream_output_adapter@D@__crt_stdio_output@@@2@@__crt_stdio_output@@AAE_NXZ 10043a50 f i libucrtd:output.obj
 0001:00042c40       ?type_case_n@?$output_processor@DV?$stream_output_adapter@D@__crt_stdio_output@@V?$standard_base@DV?$stream_output_adapter@D@__crt_stdio_output@@@2@@__crt_stdio_output@@AAE_NXZ 10043c40 f i libucrtd:output.obj
 0001:00042e30       ?type_case_n@?$output_processor@DV?$string_output_adapter@D@__crt_stdio_output@@V?$format_validation_base@DV?$string_output_adapter@D@__crt_stdio_output@@@2@@__crt_stdio_output@@AAE_NXZ 10043e30 f i libucrtd:output.obj
 0001:00043020       ?type_case_n@?$output_processor@DV?$string_output_adapter@D@__crt_stdio_output@@V?$positional_parameter_base@DV?$string_output_adapter@D@__crt_stdio_output@@@2@@__crt_stdio_output@@AAE_NXZ 10044020 f i libucrtd:output.obj
 0001:00043210       ?type_case_n@?$output_processor@DV?$string_output_adapter@D@__crt_stdio_output@@V?$standard_base@DV?$string_output_adapter@D@__crt_stdio_output@@@2@@__crt_stdio_output@@AAE_NXZ 10044210 f i libucrtd:output.obj
 0001:00043400       ?type_case_n@?$output_processor@_WV?$stream_output_adapter@_W@__crt_stdio_output@@V?$format_validation_base@_WV?$stream_output_adapter@_W@__crt_stdio_output@@@2@@__crt_stdio_output@@AAE_NXZ 10044400 f i libucrtd:output.obj
 0001:000435f0       ?type_case_n@?$output_processor@_WV?$stream_output_adapter@_W@__crt_stdio_output@@V?$positional_parameter_base@_WV?$stream_output_adapter@_W@__crt_stdio_output@@@2@@__crt_stdio_output@@AAE_NXZ 100445f0 f i libucrtd:output.obj
 0001:000437e0       ?type_case_n@?$output_processor@_WV?$stream_output_adapter@_W@__crt_stdio_output@@V?$standard_base@_WV?$stream_output_adapter@_W@__crt_stdio_output@@@2@@__crt_stdio_output@@AAE_NXZ 100447e0 f i libucrtd:output.obj
 0001:000439d0       ?type_case_n@?$output_processor@_WV?$string_output_adapter@_W@__crt_stdio_output@@V?$format_validation_base@_WV?$string_output_adapter@_W@__crt_stdio_output@@@2@@__crt_stdio_output@@AAE_NXZ 100449d0 f i libucrtd:output.obj
 0001:00043bc0       ?type_case_n@?$output_processor@_WV?$string_output_adapter@_W@__crt_stdio_output@@V?$positional_parameter_base@_WV?$string_output_adapter@_W@__crt_stdio_output@@@2@@__crt_stdio_output@@AAE_NXZ 10044bc0 f i libucrtd:output.obj
 0001:00043db0       ?type_case_n@?$output_processor@_WV?$string_output_adapter@_W@__crt_stdio_output@@V?$standard_base@_WV?$string_output_adapter@_W@__crt_stdio_output@@@2@@__crt_stdio_output@@AAE_NXZ 10044db0 f i libucrtd:output.obj
 0001:00043fa0       ?type_case_o@?$output_processor@DV?$stream_output_adapter@D@__crt_stdio_output@@V?$format_validation_base@DV?$stream_output_adapter@D@__crt_stdio_output@@@2@@__crt_stdio_output@@AAE_NXZ 10044fa0 f i libucrtd:output.obj
 0001:00043fe0       ?type_case_o@?$output_processor@DV?$stream_output_adapter@D@__crt_stdio_output@@V?$positional_parameter_base@DV?$stream_output_adapter@D@__crt_stdio_output@@@2@@__crt_stdio_output@@AAE_NXZ 10044fe0 f i libucrtd:output.obj
 0001:00044020       ?type_case_o@?$output_processor@DV?$stream_output_adapter@D@__crt_stdio_output@@V?$standard_base@DV?$stream_output_adapter@D@__crt_stdio_output@@@2@@__crt_stdio_output@@AAE_NXZ 10045020 f i libucrtd:output.obj
 0001:00044060       ?type_case_o@?$output_processor@DV?$string_output_adapter@D@__crt_stdio_output@@V?$format_validation_base@DV?$string_output_adapter@D@__crt_stdio_output@@@2@@__crt_stdio_output@@AAE_NXZ 10045060 f i libucrtd:output.obj
 0001:000440a0       ?type_case_o@?$output_processor@DV?$string_output_adapter@D@__crt_stdio_output@@V?$positional_parameter_base@DV?$string_output_adapter@D@__crt_stdio_output@@@2@@__crt_stdio_output@@AAE_NXZ 100450a0 f i libucrtd:output.obj
 0001:000440e0       ?type_case_o@?$output_processor@DV?$string_output_adapter@D@__crt_stdio_output@@V?$standard_base@DV?$string_output_adapter@D@__crt_stdio_output@@@2@@__crt_stdio_output@@AAE_NXZ 100450e0 f i libucrtd:output.obj
 0001:00044120       ?type_case_o@?$output_processor@_WV?$stream_output_adapter@_W@__crt_stdio_output@@V?$format_validation_base@_WV?$stream_output_adapter@_W@__crt_stdio_output@@@2@@__crt_stdio_output@@AAE_NXZ 10045120 f i libucrtd:output.obj
 0001:00044160       ?type_case_o@?$output_processor@_WV?$stream_output_adapter@_W@__crt_stdio_output@@V?$positional_parameter_base@_WV?$stream_output_adapter@_W@__crt_stdio_output@@@2@@__crt_stdio_output@@AAE_NXZ 10045160 f i libucrtd:output.obj
 0001:000441a0       ?type_case_o@?$output_processor@_WV?$stream_output_adapter@_W@__crt_stdio_output@@V?$standard_base@_WV?$stream_output_adapter@_W@__crt_stdio_output@@@2@@__crt_stdio_output@@AAE_NXZ 100451a0 f i libucrtd:output.obj
 0001:000441e0       ?type_case_o@?$output_processor@_WV?$string_output_adapter@_W@__crt_stdio_output@@V?$format_validation_base@_WV?$string_output_adapter@_W@__crt_stdio_output@@@2@@__crt_stdio_output@@AAE_NXZ 100451e0 f i libucrtd:output.obj
 0001:00044220       ?type_case_o@?$output_processor@_WV?$string_output_adapter@_W@__crt_stdio_output@@V?$positional_parameter_base@_WV?$string_output_adapter@_W@__crt_stdio_output@@@2@@__crt_stdio_output@@AAE_NXZ 10045220 f i libucrtd:output.obj
 0001:00044260       ?type_case_o@?$output_processor@_WV?$string_output_adapter@_W@__crt_stdio_output@@V?$standard_base@_WV?$string_output_adapter@_W@__crt_stdio_output@@@2@@__crt_stdio_output@@AAE_NXZ 10045260 f i libucrtd:output.obj
 0001:000442a0       ?type_case_p@?$output_processor@DV?$stream_output_adapter@D@__crt_stdio_output@@V?$format_validation_base@DV?$stream_output_adapter@D@__crt_stdio_output@@@2@@__crt_stdio_output@@AAE_NXZ 100452a0 f i libucrtd:output.obj
 0001:000442d0       ?type_case_p@?$output_processor@DV?$stream_output_adapter@D@__crt_stdio_output@@V?$positional_parameter_base@DV?$stream_output_adapter@D@__crt_stdio_output@@@2@@__crt_stdio_output@@AAE_NXZ 100452d0 f i libucrtd:output.obj
 0001:00044300       ?type_case_p@?$output_processor@DV?$stream_output_adapter@D@__crt_stdio_output@@V?$standard_base@DV?$stream_output_adapter@D@__crt_stdio_output@@@2@@__crt_stdio_output@@AAE_NXZ 10045300 f i libucrtd:output.obj
 0001:00044330       ?type_case_p@?$output_processor@DV?$string_output_adapter@D@__crt_stdio_output@@V?$format_validation_base@DV?$string_output_adapter@D@__crt_stdio_output@@@2@@__crt_stdio_output@@AAE_NXZ 10045330 f i libucrtd:output.obj
 0001:00044360       ?type_case_p@?$output_processor@DV?$string_output_adapter@D@__crt_stdio_output@@V?$positional_parameter_base@DV?$string_output_adapter@D@__crt_stdio_output@@@2@@__crt_stdio_output@@AAE_NXZ 10045360 f i libucrtd:output.obj
 0001:00044390       ?type_case_p@?$output_processor@DV?$string_output_adapter@D@__crt_stdio_output@@V?$standard_base@DV?$string_output_adapter@D@__crt_stdio_output@@@2@@__crt_stdio_output@@AAE_NXZ 10045390 f i libucrtd:output.obj
 0001:000443c0       ?type_case_p@?$output_processor@_WV?$stream_output_adapter@_W@__crt_stdio_output@@V?$format_validation_base@_WV?$stream_output_adapter@_W@__crt_stdio_output@@@2@@__crt_stdio_output@@AAE_NXZ 100453c0 f i libucrtd:output.obj
 0001:000443f0       ?type_case_p@?$output_processor@_WV?$stream_output_adapter@_W@__crt_stdio_output@@V?$positional_parameter_base@_WV?$stream_output_adapter@_W@__crt_stdio_output@@@2@@__crt_stdio_output@@AAE_NXZ 100453f0 f i libucrtd:output.obj
 0001:00044420       ?type_case_p@?$output_processor@_WV?$stream_output_adapter@_W@__crt_stdio_output@@V?$standard_base@_WV?$stream_output_adapter@_W@__crt_stdio_output@@@2@@__crt_stdio_output@@AAE_NXZ 10045420 f i libucrtd:output.obj
 0001:00044450       ?type_case_p@?$output_processor@_WV?$string_output_adapter@_W@__crt_stdio_output@@V?$format_validation_base@_WV?$string_output_adapter@_W@__crt_stdio_output@@@2@@__crt_stdio_output@@AAE_NXZ 10045450 f i libucrtd:output.obj
 0001:00044480       ?type_case_p@?$output_processor@_WV?$string_output_adapter@_W@__crt_stdio_output@@V?$positional_parameter_base@_WV?$string_output_adapter@_W@__crt_stdio_output@@@2@@__crt_stdio_output@@AAE_NXZ 10045480 f i libucrtd:output.obj
 0001:000444b0       ?type_case_p@?$output_processor@_WV?$string_output_adapter@_W@__crt_stdio_output@@V?$standard_base@_WV?$string_output_adapter@_W@__crt_stdio_output@@@2@@__crt_stdio_output@@AAE_NXZ 100454b0 f i libucrtd:output.obj
 0001:000444e0       ?type_case_s@?$output_processor@DV?$stream_output_adapter@D@__crt_stdio_output@@V?$format_validation_base@DV?$stream_output_adapter@D@__crt_stdio_output@@@2@@__crt_stdio_output@@AAE_NXZ 100454e0 f i libucrtd:output.obj
 0001:000445d0       ?type_case_s@?$output_processor@DV?$stream_output_adapter@D@__crt_stdio_output@@V?$positional_parameter_base@DV?$stream_output_adapter@D@__crt_stdio_output@@@2@@__crt_stdio_output@@AAE_NXZ 100455d0 f i libucrtd:output.obj
 0001:000446c0       ?type_case_s@?$output_processor@DV?$stream_output_adapter@D@__crt_stdio_output@@V?$standard_base@DV?$stream_output_adapter@D@__crt_stdio_output@@@2@@__crt_stdio_output@@AAE_NXZ 100456c0 f i libucrtd:output.obj
 0001:000447b0       ?type_case_s@?$output_processor@DV?$string_output_adapter@D@__crt_stdio_output@@V?$format_validation_base@DV?$string_output_adapter@D@__crt_stdio_output@@@2@@__crt_stdio_output@@AAE_NXZ 100457b0 f i libucrtd:output.obj
 0001:000448a0       ?type_case_s@?$output_processor@DV?$string_output_adapter@D@__crt_stdio_output@@V?$positional_parameter_base@DV?$string_output_adapter@D@__crt_stdio_output@@@2@@__crt_stdio_output@@AAE_NXZ 100458a0 f i libucrtd:output.obj
 0001:00044990       ?type_case_s@?$output_processor@DV?$string_output_adapter@D@__crt_stdio_output@@V?$standard_base@DV?$string_output_adapter@D@__crt_stdio_output@@@2@@__crt_stdio_output@@AAE_NXZ 10045990 f i libucrtd:output.obj
 0001:00044a80       ?type_case_s@?$output_processor@_WV?$stream_output_adapter@_W@__crt_stdio_output@@V?$format_validation_base@_WV?$stream_output_adapter@_W@__crt_stdio_output@@@2@@__crt_stdio_output@@AAE_NXZ 10045a80 f i libucrtd:output.obj
 0001:00044b70       ?type_case_s@?$output_processor@_WV?$stream_output_adapter@_W@__crt_stdio_output@@V?$positional_parameter_base@_WV?$stream_output_adapter@_W@__crt_stdio_output@@@2@@__crt_stdio_output@@AAE_NXZ 10045b70 f i libucrtd:output.obj
 0001:00044c60       ?type_case_s@?$output_processor@_WV?$stream_output_adapter@_W@__crt_stdio_output@@V?$standard_base@_WV?$stream_output_adapter@_W@__crt_stdio_output@@@2@@__crt_stdio_output@@AAE_NXZ 10045c60 f i libucrtd:output.obj
 0001:00044d50       ?type_case_s@?$output_processor@_WV?$string_output_adapter@_W@__crt_stdio_output@@V?$format_validation_base@_WV?$string_output_adapter@_W@__crt_stdio_output@@@2@@__crt_stdio_output@@AAE_NXZ 10045d50 f i libucrtd:output.obj
 0001:00044e40       ?type_case_s@?$output_processor@_WV?$string_output_adapter@_W@__crt_stdio_output@@V?$positional_parameter_base@_WV?$string_output_adapter@_W@__crt_stdio_output@@@2@@__crt_stdio_output@@AAE_NXZ 10045e40 f i libucrtd:output.obj
 0001:00044f30       ?type_case_s@?$output_processor@_WV?$string_output_adapter@_W@__crt_stdio_output@@V?$standard_base@_WV?$string_output_adapter@_W@__crt_stdio_output@@@2@@__crt_stdio_output@@AAE_NXZ 10045f30 f i libucrtd:output.obj
 0001:00045020       ?type_case_s_compute_narrow_string_length@?$output_processor@DV?$stream_output_adapter@D@__crt_stdio_output@@V?$format_validation_base@DV?$stream_output_adapter@D@__crt_stdio_output@@@2@@__crt_stdio_output@@ABEHHD@Z 10046020 f i libucrtd:output.obj
 0001:00045050       ?type_case_s_compute_narrow_string_length@?$output_processor@DV?$stream_output_adapter@D@__crt_stdio_output@@V?$positional_parameter_base@DV?$stream_output_adapter@D@__crt_stdio_output@@@2@@__crt_stdio_output@@ABEHHD@Z 10046050 f i libucrtd:output.obj
 0001:00045080       ?type_case_s_compute_narrow_string_length@?$output_processor@DV?$stream_output_adapter@D@__crt_stdio_output@@V?$standard_base@DV?$stream_output_adapter@D@__crt_stdio_output@@@2@@__crt_stdio_output@@ABEHHD@Z 10046080 f i libucrtd:output.obj
 0001:000450b0       ?type_case_s_compute_narrow_string_length@?$output_processor@DV?$string_output_adapter@D@__crt_stdio_output@@V?$format_validation_base@DV?$string_output_adapter@D@__crt_stdio_output@@@2@@__crt_stdio_output@@ABEHHD@Z 100460b0 f i libucrtd:output.obj
 0001:000450e0       ?type_case_s_compute_narrow_string_length@?$output_processor@DV?$string_output_adapter@D@__crt_stdio_output@@V?$positional_parameter_base@DV?$string_output_adapter@D@__crt_stdio_output@@@2@@__crt_stdio_output@@ABEHHD@Z 100460e0 f i libucrtd:output.obj
 0001:00045110       ?type_case_s_compute_narrow_string_length@?$output_processor@DV?$string_output_adapter@D@__crt_stdio_output@@V?$standard_base@DV?$string_output_adapter@D@__crt_stdio_output@@@2@@__crt_stdio_output@@ABEHHD@Z 10046110 f i libucrtd:output.obj
 0001:00045140       ?type_case_s_compute_narrow_string_length@?$output_processor@_WV?$stream_output_adapter@_W@__crt_stdio_output@@V?$format_validation_base@_WV?$stream_output_adapter@_W@__crt_stdio_output@@@2@@__crt_stdio_output@@ABEHH_W@Z 10046140 f i libucrtd:output.obj
 0001:000451b0       ?type_case_s_compute_narrow_string_length@?$output_processor@_WV?$stream_output_adapter@_W@__crt_stdio_output@@V?$positional_parameter_base@_WV?$stream_output_adapter@_W@__crt_stdio_output@@@2@@__crt_stdio_output@@ABEHH_W@Z 100461b0 f i libucrtd:output.obj
 0001:00045220       ?type_case_s_compute_narrow_string_length@?$output_processor@_WV?$stream_output_adapter@_W@__crt_stdio_output@@V?$standard_base@_WV?$stream_output_adapter@_W@__crt_stdio_output@@@2@@__crt_stdio_output@@ABEHH_W@Z 10046220 f i libucrtd:output.obj
 0001:00045290       ?type_case_s_compute_narrow_string_length@?$output_processor@_WV?$string_output_adapter@_W@__crt_stdio_output@@V?$format_validation_base@_WV?$string_output_adapter@_W@__crt_stdio_output@@@2@@__crt_stdio_output@@ABEHH_W@Z 10046290 f i libucrtd:output.obj
 0001:00045300       ?type_case_s_compute_narrow_string_length@?$output_processor@_WV?$string_output_adapter@_W@__crt_stdio_output@@V?$positional_parameter_base@_WV?$string_output_adapter@_W@__crt_stdio_output@@@2@@__crt_stdio_output@@ABEHH_W@Z 10046300 f i libucrtd:output.obj
 0001:00045370       ?type_case_s_compute_narrow_string_length@?$output_processor@_WV?$string_output_adapter@_W@__crt_stdio_output@@V?$standard_base@_WV?$string_output_adapter@_W@__crt_stdio_output@@@2@@__crt_stdio_output@@ABEHH_W@Z 10046370 f i libucrtd:output.obj
 0001:000453e0       ?type_case_u@?$output_processor@DV?$stream_output_adapter@D@__crt_stdio_output@@V?$format_validation_base@DV?$stream_output_adapter@D@__crt_stdio_output@@@2@@__crt_stdio_output@@AAE_NXZ 100463e0 f i libucrtd:output.obj
 0001:00045400       ?type_case_u@?$output_processor@DV?$stream_output_adapter@D@__crt_stdio_output@@V?$positional_parameter_base@DV?$stream_output_adapter@D@__crt_stdio_output@@@2@@__crt_stdio_output@@AAE_NXZ 10046400 f i libucrtd:output.obj
 0001:00045420       ?type_case_u@?$output_processor@DV?$stream_output_adapter@D@__crt_stdio_output@@V?$standard_base@DV?$stream_output_adapter@D@__crt_stdio_output@@@2@@__crt_stdio_output@@AAE_NXZ 10046420 f i libucrtd:output.obj
 0001:00045440       ?type_case_u@?$output_processor@DV?$string_output_adapter@D@__crt_stdio_output@@V?$format_validation_base@DV?$string_output_adapter@D@__crt_stdio_output@@@2@@__crt_stdio_output@@AAE_NXZ 10046440 f i libucrtd:output.obj
 0001:00045460       ?type_case_u@?$output_processor@DV?$string_output_adapter@D@__crt_stdio_output@@V?$positional_parameter_base@DV?$string_output_adapter@D@__crt_stdio_output@@@2@@__crt_stdio_output@@AAE_NXZ 10046460 f i libucrtd:output.obj
 0001:00045480       ?type_case_u@?$output_processor@DV?$string_output_adapter@D@__crt_stdio_output@@V?$standard_base@DV?$string_output_adapter@D@__crt_stdio_output@@@2@@__crt_stdio_output@@AAE_NXZ 10046480 f i libucrtd:output.obj
 0001:000454a0       ?type_case_u@?$output_processor@_WV?$stream_output_adapter@_W@__crt_stdio_output@@V?$format_validation_base@_WV?$stream_output_adapter@_W@__crt_stdio_output@@@2@@__crt_stdio_output@@AAE_NXZ 100464a0 f i libucrtd:output.obj
 0001:000454c0       ?type_case_u@?$output_processor@_WV?$stream_output_adapter@_W@__crt_stdio_output@@V?$positional_parameter_base@_WV?$stream_output_adapter@_W@__crt_stdio_output@@@2@@__crt_stdio_output@@AAE_NXZ 100464c0 f i libucrtd:output.obj
 0001:000454e0       ?type_case_u@?$output_processor@_WV?$stream_output_adapter@_W@__crt_stdio_output@@V?$standard_base@_WV?$stream_output_adapter@_W@__crt_stdio_output@@@2@@__crt_stdio_output@@AAE_NXZ 100464e0 f i libucrtd:output.obj
 0001:00045500       ?type_case_u@?$output_processor@_WV?$string_output_adapter@_W@__crt_stdio_output@@V?$format_validation_base@_WV?$string_output_adapter@_W@__crt_stdio_output@@@2@@__crt_stdio_output@@AAE_NXZ 10046500 f i libucrtd:output.obj
 0001:00045520       ?type_case_u@?$output_processor@_WV?$string_output_adapter@_W@__crt_stdio_output@@V?$positional_parameter_base@_WV?$string_output_adapter@_W@__crt_stdio_output@@@2@@__crt_stdio_output@@AAE_NXZ 10046520 f i libucrtd:output.obj
 0001:00045540       ?type_case_u@?$output_processor@_WV?$string_output_adapter@_W@__crt_stdio_output@@V?$standard_base@_WV?$string_output_adapter@_W@__crt_stdio_output@@@2@@__crt_stdio_output@@AAE_NXZ 10046540 f i libucrtd:output.obj
 0001:00045560       ?type_case_x@?$output_processor@DV?$stream_output_adapter@D@__crt_stdio_output@@V?$format_validation_base@DV?$stream_output_adapter@D@__crt_stdio_output@@@2@@__crt_stdio_output@@AAE_NXZ 10046560 f i libucrtd:output.obj
 0001:00045580       ?type_case_x@?$output_processor@DV?$stream_output_adapter@D@__crt_stdio_output@@V?$positional_parameter_base@DV?$stream_output_adapter@D@__crt_stdio_output@@@2@@__crt_stdio_output@@AAE_NXZ 10046580 f i libucrtd:output.obj
 0001:000455a0       ?type_case_x@?$output_processor@DV?$stream_output_adapter@D@__crt_stdio_output@@V?$standard_base@DV?$stream_output_adapter@D@__crt_stdio_output@@@2@@__crt_stdio_output@@AAE_NXZ 100465a0 f i libucrtd:output.obj
 0001:000455c0       ?type_case_x@?$output_processor@DV?$string_output_adapter@D@__crt_stdio_output@@V?$format_validation_base@DV?$string_output_adapter@D@__crt_stdio_output@@@2@@__crt_stdio_output@@AAE_NXZ 100465c0 f i libucrtd:output.obj
 0001:000455e0       ?type_case_x@?$output_processor@DV?$string_output_adapter@D@__crt_stdio_output@@V?$positional_parameter_base@DV?$string_output_adapter@D@__crt_stdio_output@@@2@@__crt_stdio_output@@AAE_NXZ 100465e0 f i libucrtd:output.obj
 0001:00045600       ?type_case_x@?$output_processor@DV?$string_output_adapter@D@__crt_stdio_output@@V?$standard_base@DV?$string_output_adapter@D@__crt_stdio_output@@@2@@__crt_stdio_output@@AAE_NXZ 10046600 f i libucrtd:output.obj
 0001:00045620       ?type_case_x@?$output_processor@_WV?$stream_output_adapter@_W@__crt_stdio_output@@V?$format_validation_base@_WV?$stream_output_adapter@_W@__crt_stdio_output@@@2@@__crt_stdio_output@@AAE_NXZ 10046620 f i libucrtd:output.obj
 0001:00045640       ?type_case_x@?$output_processor@_WV?$stream_output_adapter@_W@__crt_stdio_output@@V?$positional_parameter_base@_WV?$stream_output_adapter@_W@__crt_stdio_output@@@2@@__crt_stdio_output@@AAE_NXZ 10046640 f i libucrtd:output.obj
 0001:00045660       ?type_case_x@?$output_processor@_WV?$stream_output_adapter@_W@__crt_stdio_output@@V?$standard_base@_WV?$stream_output_adapter@_W@__crt_stdio_output@@@2@@__crt_stdio_output@@AAE_NXZ 10046660 f i libucrtd:output.obj
 0001:00045680       ?type_case_x@?$output_processor@_WV?$string_output_adapter@_W@__crt_stdio_output@@V?$format_validation_base@_WV?$string_output_adapter@_W@__crt_stdio_output@@@2@@__crt_stdio_output@@AAE_NXZ 10046680 f i libucrtd:output.obj
 0001:000456a0       ?type_case_x@?$output_processor@_WV?$string_output_adapter@_W@__crt_stdio_output@@V?$positional_parameter_base@_WV?$string_output_adapter@_W@__crt_stdio_output@@@2@@__crt_stdio_output@@AAE_NXZ 100466a0 f i libucrtd:output.obj
 0001:000456c0       ?type_case_x@?$output_processor@_WV?$string_output_adapter@_W@__crt_stdio_output@@V?$standard_base@_WV?$string_output_adapter@_W@__crt_stdio_output@@@2@@__crt_stdio_output@@AAE_NXZ 100466c0 f i libucrtd:output.obj
 0001:000456e0       ?unset_flag@?$output_processor@DV?$stream_output_adapter@D@__crt_stdio_output@@V?$format_validation_base@DV?$stream_output_adapter@D@__crt_stdio_output@@@2@@__crt_stdio_output@@AAEXI@Z 100466e0 f i libucrtd:output.obj
 0001:00045700       ?unset_flag@?$output_processor@DV?$stream_output_adapter@D@__crt_stdio_output@@V?$positional_parameter_base@DV?$stream_output_adapter@D@__crt_stdio_output@@@2@@__crt_stdio_output@@AAEXI@Z 10046700 f i libucrtd:output.obj
 0001:00045720       ?unset_flag@?$output_processor@DV?$stream_output_adapter@D@__crt_stdio_output@@V?$standard_base@DV?$stream_output_adapter@D@__crt_stdio_output@@@2@@__crt_stdio_output@@AAEXI@Z 10046720 f i libucrtd:output.obj
 0001:00045740       ?unset_flag@?$output_processor@DV?$string_output_adapter@D@__crt_stdio_output@@V?$format_validation_base@DV?$string_output_adapter@D@__crt_stdio_output@@@2@@__crt_stdio_output@@AAEXI@Z 10046740 f i libucrtd:output.obj
 0001:00045760       ?unset_flag@?$output_processor@DV?$string_output_adapter@D@__crt_stdio_output@@V?$positional_parameter_base@DV?$string_output_adapter@D@__crt_stdio_output@@@2@@__crt_stdio_output@@AAEXI@Z 10046760 f i libucrtd:output.obj
 0001:00045780       ?unset_flag@?$output_processor@DV?$string_output_adapter@D@__crt_stdio_output@@V?$standard_base@DV?$string_output_adapter@D@__crt_stdio_output@@@2@@__crt_stdio_output@@AAEXI@Z 10046780 f i libucrtd:output.obj
 0001:000457a0       ?unset_flag@?$output_processor@_WV?$stream_output_adapter@_W@__crt_stdio_output@@V?$format_validation_base@_WV?$stream_output_adapter@_W@__crt_stdio_output@@@2@@__crt_stdio_output@@AAEXI@Z 100467a0 f i libucrtd:output.obj
 0001:000457c0       ?unset_flag@?$output_processor@_WV?$stream_output_adapter@_W@__crt_stdio_output@@V?$positional_parameter_base@_WV?$stream_output_adapter@_W@__crt_stdio_output@@@2@@__crt_stdio_output@@AAEXI@Z 100467c0 f i libucrtd:output.obj
 0001:000457e0       ?unset_flag@?$output_processor@_WV?$stream_output_adapter@_W@__crt_stdio_output@@V?$standard_base@_WV?$stream_output_adapter@_W@__crt_stdio_output@@@2@@__crt_stdio_output@@AAEXI@Z 100467e0 f i libucrtd:output.obj
 0001:00045800       ?unset_flag@?$output_processor@_WV?$string_output_adapter@_W@__crt_stdio_output@@V?$format_validation_base@_WV?$string_output_adapter@_W@__crt_stdio_output@@@2@@__crt_stdio_output@@AAEXI@Z 10046800 f i libucrtd:output.obj
 0001:00045820       ?unset_flag@?$output_processor@_WV?$string_output_adapter@_W@__crt_stdio_output@@V?$positional_parameter_base@_WV?$string_output_adapter@_W@__crt_stdio_output@@@2@@__crt_stdio_output@@AAEXI@Z 10046820 f i libucrtd:output.obj
 0001:00045840       ?unset_flag@?$output_processor@_WV?$string_output_adapter@_W@__crt_stdio_output@@V?$standard_base@_WV?$string_output_adapter@_W@__crt_stdio_output@@@2@@__crt_stdio_output@@AAEXI@Z 10046840 f i libucrtd:output.obj
 0001:00045860       ?update_field_width@?$positional_parameter_base@DV?$stream_output_adapter@D@__crt_stdio_output@@@__crt_stdio_output@@IAE_NXZ 10046860 f i libucrtd:output.obj
 0001:000459e0       ?update_field_width@?$positional_parameter_base@DV?$string_output_adapter@D@__crt_stdio_output@@@__crt_stdio_output@@IAE_NXZ 100469e0 f i libucrtd:output.obj
 0001:00045b60       ?update_field_width@?$positional_parameter_base@_WV?$stream_output_adapter@_W@__crt_stdio_output@@@__crt_stdio_output@@IAE_NXZ 10046b60 f i libucrtd:output.obj
 0001:00045ce0       ?update_field_width@?$positional_parameter_base@_WV?$string_output_adapter@_W@__crt_stdio_output@@@__crt_stdio_output@@IAE_NXZ 10046ce0 f i libucrtd:output.obj
 0001:00045e60       ?update_field_width@?$standard_base@DV?$stream_output_adapter@D@__crt_stdio_output@@@__crt_stdio_output@@IAE_NXZ 10046e60 f i libucrtd:output.obj
 0001:00045e90       ?update_field_width@?$standard_base@DV?$string_output_adapter@D@__crt_stdio_output@@@__crt_stdio_output@@IAE_NXZ 10046e90 f i libucrtd:output.obj
 0001:00045ec0       ?update_field_width@?$standard_base@_WV?$stream_output_adapter@_W@__crt_stdio_output@@@__crt_stdio_output@@IAE_NXZ 10046ec0 f i libucrtd:output.obj
 0001:00045ef0       ?update_field_width@?$standard_base@_WV?$string_output_adapter@_W@__crt_stdio_output@@@__crt_stdio_output@@IAE_NXZ 10046ef0 f i libucrtd:output.obj
 0001:00045f20       ?update_precision@?$positional_parameter_base@DV?$stream_output_adapter@D@__crt_stdio_output@@@__crt_stdio_output@@IAE_NXZ 10046f20 f i libucrtd:output.obj
 0001:000460a0       ?update_precision@?$positional_parameter_base@DV?$string_output_adapter@D@__crt_stdio_output@@@__crt_stdio_output@@IAE_NXZ 100470a0 f i libucrtd:output.obj
 0001:00046220       ?update_precision@?$positional_parameter_base@_WV?$stream_output_adapter@_W@__crt_stdio_output@@@__crt_stdio_output@@IAE_NXZ 10047220 f i libucrtd:output.obj
 0001:000463a0       ?update_precision@?$positional_parameter_base@_WV?$string_output_adapter@_W@__crt_stdio_output@@@__crt_stdio_output@@IAE_NXZ 100473a0 f i libucrtd:output.obj
 0001:00046520       ?update_precision@?$standard_base@DV?$stream_output_adapter@D@__crt_stdio_output@@@__crt_stdio_output@@IAE_NXZ 10047520 f i libucrtd:output.obj
 0001:00046550       ?update_precision@?$standard_base@DV?$string_output_adapter@D@__crt_stdio_output@@@__crt_stdio_output@@IAE_NXZ 10047550 f i libucrtd:output.obj
 0001:00046580       ?update_precision@?$standard_base@_WV?$stream_output_adapter@_W@__crt_stdio_output@@@__crt_stdio_output@@IAE_NXZ 10047580 f i libucrtd:output.obj
 0001:000465b0       ?update_precision@?$standard_base@_WV?$string_output_adapter@_W@__crt_stdio_output@@@__crt_stdio_output@@IAE_NXZ 100475b0 f i libucrtd:output.obj
 0001:000465e0       ?valid@__crt_stdio_stream@@QBE_NXZ 100475e0 f i libucrtd:output.obj
 0001:00046610       ?validate@?$stream_output_adapter@D@__crt_stdio_output@@QBE_NXZ 10047610 f i libucrtd:output.obj
 0001:000466c0       ?validate@?$stream_output_adapter@_W@__crt_stdio_output@@QBE_NXZ 100476c0 f i libucrtd:output.obj
 0001:00046770       ?validate@?$string_output_adapter@D@__crt_stdio_output@@QBE_NXZ 10047770 f i libucrtd:output.obj
 0001:00046800       ?validate@?$string_output_adapter@_W@__crt_stdio_output@@QBE_NXZ 10047800 f i libucrtd:output.obj
 0001:00046890       ?validate_and_store_parameter_data@?$positional_parameter_base@DV?$stream_output_adapter@D@__crt_stdio_output@@@__crt_stdio_output@@AAE_NAAUparameter_data@12@W4parameter_type@12@DW4length_modifier@2@@Z 10047890 f i libucrtd:output.obj
 0001:00046960       ?validate_and_store_parameter_data@?$positional_parameter_base@DV?$string_output_adapter@D@__crt_stdio_output@@@__crt_stdio_output@@AAE_NAAUparameter_data@12@W4parameter_type@12@DW4length_modifier@2@@Z 10047960 f i libucrtd:output.obj
 0001:00046a30       ?validate_and_store_parameter_data@?$positional_parameter_base@_WV?$stream_output_adapter@_W@__crt_stdio_output@@@__crt_stdio_output@@AAE_NAAUparameter_data@12@W4parameter_type@12@_WW4length_modifier@2@@Z 10047a30 f i libucrtd:output.obj
 0001:00046b10       ?validate_and_store_parameter_data@?$positional_parameter_base@_WV?$string_output_adapter@_W@__crt_stdio_output@@@__crt_stdio_output@@AAE_NAAUparameter_data@12@W4parameter_type@12@_WW4length_modifier@2@@Z 10047b10 f i libucrtd:output.obj
 0001:00046bf0       ?validate_and_update_state_at_beginning_of_format_character@?$positional_parameter_base@DV?$stream_output_adapter@D@__crt_stdio_output@@@__crt_stdio_output@@IAE_NXZ 10047bf0 f i libucrtd:output.obj
 0001:00046e10       ?validate_and_update_state_at_beginning_of_format_character@?$positional_parameter_base@DV?$string_output_adapter@D@__crt_stdio_output@@@__crt_stdio_output@@IAE_NXZ 10047e10 f i libucrtd:output.obj
 0001:00047030       ?validate_and_update_state_at_beginning_of_format_character@?$positional_parameter_base@_WV?$stream_output_adapter@_W@__crt_stdio_output@@@__crt_stdio_output@@IAE_NXZ 10048030 f i libucrtd:output.obj
 0001:00047250       ?validate_and_update_state_at_beginning_of_format_character@?$positional_parameter_base@_WV?$string_output_adapter@_W@__crt_stdio_output@@@__crt_stdio_output@@IAE_NXZ 10048250 f i libucrtd:output.obj
 0001:00047470       ?validate_and_update_state_at_beginning_of_format_character@?$standard_base@DV?$stream_output_adapter@D@__crt_stdio_output@@@__crt_stdio_output@@IAE_NXZ 10048470 f i libucrtd:output.obj
 0001:00047480       ?validate_and_update_state_at_beginning_of_format_character@?$standard_base@DV?$string_output_adapter@D@__crt_stdio_output@@@__crt_stdio_output@@IAE_NXZ 10048480 f i libucrtd:output.obj
 0001:00047490       ?validate_and_update_state_at_beginning_of_format_character@?$standard_base@_WV?$stream_output_adapter@_W@__crt_stdio_output@@@__crt_stdio_output@@IAE_NXZ 10048490 f i libucrtd:output.obj
 0001:000474a0       ?validate_and_update_state_at_beginning_of_format_character@?$standard_base@_WV?$string_output_adapter@_W@__crt_stdio_output@@@__crt_stdio_output@@IAE_NXZ 100484a0 f i libucrtd:output.obj
 0001:000474b0       ?validate_and_update_state_at_end_of_format_string@?$format_validation_base@DV?$stream_output_adapter@D@__crt_stdio_output@@@__crt_stdio_output@@IBE_NXZ 100484b0 f i libucrtd:output.obj
 0001:00047550       ?validate_and_update_state_at_end_of_format_string@?$format_validation_base@DV?$string_output_adapter@D@__crt_stdio_output@@@__crt_stdio_output@@IBE_NXZ 10048550 f i libucrtd:output.obj
 0001:000475f0       ?validate_and_update_state_at_end_of_format_string@?$format_validation_base@_WV?$stream_output_adapter@_W@__crt_stdio_output@@@__crt_stdio_output@@IBE_NXZ 100485f0 f i libucrtd:output.obj
 0001:00047690       ?validate_and_update_state_at_end_of_format_string@?$format_validation_base@_WV?$string_output_adapter@_W@__crt_stdio_output@@@__crt_stdio_output@@IBE_NXZ 10048690 f i libucrtd:output.obj
 0001:00047730       ?validate_and_update_state_at_end_of_format_string@?$positional_parameter_base@DV?$stream_output_adapter@D@__crt_stdio_output@@@__crt_stdio_output@@IAE_NXZ 10048730 f i libucrtd:output.obj
 0001:000478d0       ?validate_and_update_state_at_end_of_format_string@?$positional_parameter_base@DV?$string_output_adapter@D@__crt_stdio_output@@@__crt_stdio_output@@IAE_NXZ 100488d0 f i libucrtd:output.obj
 0001:00047a70       ?validate_and_update_state_at_end_of_format_string@?$positional_parameter_base@_WV?$stream_output_adapter@_W@__crt_stdio_output@@@__crt_stdio_output@@IAE_NXZ 10048a70 f i libucrtd:output.obj
 0001:00047c10       ?validate_and_update_state_at_end_of_format_string@?$positional_parameter_base@_WV?$string_output_adapter@_W@__crt_stdio_output@@@__crt_stdio_output@@IAE_NXZ 10048c10 f i libucrtd:output.obj
 0001:00047db0       ?validate_and_update_state_at_end_of_format_string@?$standard_base@DV?$stream_output_adapter@D@__crt_stdio_output@@@__crt_stdio_output@@IBE_NXZ 10048db0 f i libucrtd:output.obj
 0001:00047dc0       ?validate_and_update_state_at_end_of_format_string@?$standard_base@DV?$string_output_adapter@D@__crt_stdio_output@@@__crt_stdio_output@@IBE_NXZ 10048dc0 f i libucrtd:output.obj
 0001:00047dd0       ?validate_and_update_state_at_end_of_format_string@?$standard_base@_WV?$stream_output_adapter@_W@__crt_stdio_output@@@__crt_stdio_output@@IBE_NXZ 10048dd0 f i libucrtd:output.obj
 0001:00047de0       ?validate_and_update_state_at_end_of_format_string@?$standard_base@_WV?$string_output_adapter@_W@__crt_stdio_output@@@__crt_stdio_output@@IBE_NXZ 10048de0 f i libucrtd:output.obj
 0001:00047df0       ?validate_state_for_type_case_a@?$positional_parameter_base@DV?$stream_output_adapter@D@__crt_stdio_output@@@__crt_stdio_output@@IAE_NXZ 10048df0 f i libucrtd:output.obj
 0001:00047ee0       ?validate_state_for_type_case_a@?$positional_parameter_base@DV?$string_output_adapter@D@__crt_stdio_output@@@__crt_stdio_output@@IAE_NXZ 10048ee0 f i libucrtd:output.obj
 0001:00047fd0       ?validate_state_for_type_case_a@?$positional_parameter_base@_WV?$stream_output_adapter@_W@__crt_stdio_output@@@__crt_stdio_output@@IAE_NXZ 10048fd0 f i libucrtd:output.obj
 0001:000480c0       ?validate_state_for_type_case_a@?$positional_parameter_base@_WV?$string_output_adapter@_W@__crt_stdio_output@@@__crt_stdio_output@@IAE_NXZ 100490c0 f i libucrtd:output.obj
 0001:000481b0       ?validate_state_for_type_case_a@?$standard_base@DV?$stream_output_adapter@D@__crt_stdio_output@@@__crt_stdio_output@@IBE_NXZ 100491b0 f i libucrtd:output.obj
 0001:000481c0       ?validate_state_for_type_case_a@?$standard_base@DV?$string_output_adapter@D@__crt_stdio_output@@@__crt_stdio_output@@IBE_NXZ 100491c0 f i libucrtd:output.obj
 0001:000481d0       ?validate_state_for_type_case_a@?$standard_base@_WV?$stream_output_adapter@_W@__crt_stdio_output@@@__crt_stdio_output@@IBE_NXZ 100491d0 f i libucrtd:output.obj
 0001:000481e0       ?validate_state_for_type_case_a@?$standard_base@_WV?$string_output_adapter@_W@__crt_stdio_output@@@__crt_stdio_output@@IBE_NXZ 100491e0 f i libucrtd:output.obj
 0001:000481f0       ?validate_stream_is_ansi_if_required@?$__acrt_stdio_char_traits@D@@SA_NQAU_iobuf@@@Z 100491f0 f i libucrtd:output.obj
 0001:00048320       ?validate_stream_is_ansi_if_required@?$__acrt_stdio_char_traits@_W@@SA_NQAU_iobuf@@@Z 10049320 f i libucrtd:output.obj
 0001:00048330       ?wide_null_string@?$output_processor@DV?$stream_output_adapter@D@__crt_stdio_output@@V?$format_validation_base@DV?$stream_output_adapter@D@__crt_stdio_output@@@2@@__crt_stdio_output@@CAPA_WXZ 10049330 f i libucrtd:output.obj
 0001:00048340       ?wide_null_string@?$output_processor@DV?$stream_output_adapter@D@__crt_stdio_output@@V?$positional_parameter_base@DV?$stream_output_adapter@D@__crt_stdio_output@@@2@@__crt_stdio_output@@CAPA_WXZ 10049340 f i libucrtd:output.obj
 0001:00048350       ?wide_null_string@?$output_processor@DV?$stream_output_adapter@D@__crt_stdio_output@@V?$standard_base@DV?$stream_output_adapter@D@__crt_stdio_output@@@2@@__crt_stdio_output@@CAPA_WXZ 10049350 f i libucrtd:output.obj
 0001:00048360       ?wide_null_string@?$output_processor@DV?$string_output_adapter@D@__crt_stdio_output@@V?$format_validation_base@DV?$string_output_adapter@D@__crt_stdio_output@@@2@@__crt_stdio_output@@CAPA_WXZ 10049360 f i libucrtd:output.obj
 0001:00048370       ?wide_null_string@?$output_processor@DV?$string_output_adapter@D@__crt_stdio_output@@V?$positional_parameter_base@DV?$string_output_adapter@D@__crt_stdio_output@@@2@@__crt_stdio_output@@CAPA_WXZ 10049370 f i libucrtd:output.obj
 0001:00048380       ?wide_null_string@?$output_processor@DV?$string_output_adapter@D@__crt_stdio_output@@V?$standard_base@DV?$string_output_adapter@D@__crt_stdio_output@@@2@@__crt_stdio_output@@CAPA_WXZ 10049380 f i libucrtd:output.obj
 0001:00048390       ?wide_null_string@?$output_processor@_WV?$stream_output_adapter@_W@__crt_stdio_output@@V?$format_validation_base@_WV?$stream_output_adapter@_W@__crt_stdio_output@@@2@@__crt_stdio_output@@CAPA_WXZ 10049390 f i libucrtd:output.obj
 0001:000483a0       ?wide_null_string@?$output_processor@_WV?$stream_output_adapter@_W@__crt_stdio_output@@V?$positional_parameter_base@_WV?$stream_output_adapter@_W@__crt_stdio_output@@@2@@__crt_stdio_output@@CAPA_WXZ 100493a0 f i libucrtd:output.obj
 0001:000483b0       ?wide_null_string@?$output_processor@_WV?$stream_output_adapter@_W@__crt_stdio_output@@V?$standard_base@_WV?$stream_output_adapter@_W@__crt_stdio_output@@@2@@__crt_stdio_output@@CAPA_WXZ 100493b0 f i libucrtd:output.obj
 0001:000483c0       ?wide_null_string@?$output_processor@_WV?$string_output_adapter@_W@__crt_stdio_output@@V?$format_validation_base@_WV?$string_output_adapter@_W@__crt_stdio_output@@@2@@__crt_stdio_output@@CAPA_WXZ 100493c0 f i libucrtd:output.obj
 0001:000483d0       ?wide_null_string@?$output_processor@_WV?$string_output_adapter@_W@__crt_stdio_output@@V?$positional_parameter_base@_WV?$string_output_adapter@_W@__crt_stdio_output@@@2@@__crt_stdio_output@@CAPA_WXZ 100493d0 f i libucrtd:output.obj
 0001:000483e0       ?wide_null_string@?$output_processor@_WV?$string_output_adapter@_W@__crt_stdio_output@@V?$standard_base@_WV?$string_output_adapter@_W@__crt_stdio_output@@@2@@__crt_stdio_output@@CAPA_WXZ 100493e0 f i libucrtd:output.obj
 0001:000483f0       ?write_character@?$output_adapter_common@DV?$stream_output_adapter@D@__crt_stdio_output@@@__crt_stdio_output@@QBEXDQAH@Z 100493f0 f i libucrtd:output.obj
 0001:00048430       ?write_character@?$output_adapter_common@_WV?$stream_output_adapter@_W@__crt_stdio_output@@@__crt_stdio_output@@QBEX_WQAH@Z 10049430 f i libucrtd:output.obj
 0001:00048470       ?write_character@?$string_output_adapter@D@__crt_stdio_output@@QBE_NDQAH@Z 10049470 f i libucrtd:output.obj
 0001:00048500       ?write_character@?$string_output_adapter@_W@__crt_stdio_output@@QBE_N_WQAH@Z 10049500 f i libucrtd:output.obj
 0001:000485a0       ?write_character_without_count_update@?$stream_output_adapter@D@__crt_stdio_output@@QBE_ND@Z 100495a0 f i libucrtd:output.obj
 0001:00048610       ?write_character_without_count_update@?$stream_output_adapter@_W@__crt_stdio_output@@QBE_N_W@Z 10049610 f i libucrtd:output.obj
 0001:00048680       ?write_stored_string_tchar@?$output_processor@DV?$stream_output_adapter@D@__crt_stdio_output@@V?$format_validation_base@DV?$stream_output_adapter@D@__crt_stdio_output@@@2@@__crt_stdio_output@@AAE_ND@Z 10049680 f i libucrtd:output.obj
 0001:000487a0       ?write_stored_string_tchar@?$output_processor@DV?$stream_output_adapter@D@__crt_stdio_output@@V?$positional_parameter_base@DV?$stream_output_adapter@D@__crt_stdio_output@@@2@@__crt_stdio_output@@AAE_ND@Z 100497a0 f i libucrtd:output.obj
 0001:000488c0       ?write_stored_string_tchar@?$output_processor@DV?$stream_output_adapter@D@__crt_stdio_output@@V?$standard_base@DV?$stream_output_adapter@D@__crt_stdio_output@@@2@@__crt_stdio_output@@AAE_ND@Z 100498c0 f i libucrtd:output.obj
 0001:000489e0       ?write_stored_string_tchar@?$output_processor@DV?$string_output_adapter@D@__crt_stdio_output@@V?$format_validation_base@DV?$string_output_adapter@D@__crt_stdio_output@@@2@@__crt_stdio_output@@AAE_ND@Z 100499e0 f i libucrtd:output.obj
 0001:00048b00       ?write_stored_string_tchar@?$output_processor@DV?$string_output_adapter@D@__crt_stdio_output@@V?$positional_parameter_base@DV?$string_output_adapter@D@__crt_stdio_output@@@2@@__crt_stdio_output@@AAE_ND@Z 10049b00 f i libucrtd:output.obj
 0001:00048c20       ?write_stored_string_tchar@?$output_processor@DV?$string_output_adapter@D@__crt_stdio_output@@V?$standard_base@DV?$string_output_adapter@D@__crt_stdio_output@@@2@@__crt_stdio_output@@AAE_ND@Z 10049c20 f i libucrtd:output.obj
 0001:00048d40       ?write_stored_string_tchar@?$output_processor@_WV?$stream_output_adapter@_W@__crt_stdio_output@@V?$format_validation_base@_WV?$stream_output_adapter@_W@__crt_stdio_output@@@2@@__crt_stdio_output@@AAE_N_W@Z 10049d40 f i libucrtd:output.obj
 0001:00048e30       ?write_stored_string_tchar@?$output_processor@_WV?$stream_output_adapter@_W@__crt_stdio_output@@V?$positional_parameter_base@_WV?$stream_output_adapter@_W@__crt_stdio_output@@@2@@__crt_stdio_output@@AAE_N_W@Z 10049e30 f i libucrtd:output.obj
 0001:00048f20       ?write_stored_string_tchar@?$output_processor@_WV?$stream_output_adapter@_W@__crt_stdio_output@@V?$standard_base@_WV?$stream_output_adapter@_W@__crt_stdio_output@@@2@@__crt_stdio_output@@AAE_N_W@Z 10049f20 f i libucrtd:output.obj
 0001:00049010       ?write_stored_string_tchar@?$output_processor@_WV?$string_output_adapter@_W@__crt_stdio_output@@V?$format_validation_base@_WV?$string_output_adapter@_W@__crt_stdio_output@@@2@@__crt_stdio_output@@AAE_N_W@Z 1004a010 f i libucrtd:output.obj
 0001:00049100       ?write_stored_string_tchar@?$output_processor@_WV?$string_output_adapter@_W@__crt_stdio_output@@V?$positional_parameter_base@_WV?$string_output_adapter@_W@__crt_stdio_output@@@2@@__crt_stdio_output@@AAE_N_W@Z 1004a100 f i libucrtd:output.obj
 0001:000491f0       ?write_stored_string_tchar@?$output_processor@_WV?$string_output_adapter@_W@__crt_stdio_output@@V?$standard_base@_WV?$string_output_adapter@_W@__crt_stdio_output@@@2@@__crt_stdio_output@@AAE_N_W@Z 1004a1f0 f i libucrtd:output.obj
 0001:000492e0       ?write_string@?$stream_output_adapter@D@__crt_stdio_output@@QBEXQBDHQAHAAV__crt_deferred_errno_cache@@@Z 1004a2e0 f i libucrtd:output.obj
 0001:00049340       ?write_string@?$stream_output_adapter@_W@__crt_stdio_output@@QBEXQB_WHQAHAAV__crt_deferred_errno_cache@@@Z 1004a340 f i libucrtd:output.obj
 0001:000493a0       ?write_string@?$string_output_adapter@D@__crt_stdio_output@@QBEXQBDHQAHAAV__crt_deferred_errno_cache@@@Z 1004a3a0 f i libucrtd:output.obj
 0001:000494a0       ?write_string@?$string_output_adapter@_W@__crt_stdio_output@@QBEXQB_WHQAHAAV__crt_deferred_errno_cache@@@Z 1004a4a0 f i libucrtd:output.obj
 0001:000495b0       ?write_string_impl@?$output_adapter_common@DV?$stream_output_adapter@D@__crt_stdio_output@@@__crt_stdio_output@@IBEXQBDHQAHAAV__crt_deferred_errno_cache@@@Z 1004a5b0 f i libucrtd:output.obj
 0001:00049650       ?write_string_impl@?$output_adapter_common@_WV?$stream_output_adapter@_W@__crt_stdio_output@@@__crt_stdio_output@@IBEXQB_WHQAHAAV__crt_deferred_errno_cache@@@Z 1004a650 f i libucrtd:output.obj
 0001:000496f0       ___acrt_isleadbyte_l_noupdate 1004a6f0 f i libucrtd:output.obj
 0001:00049710       ___acrt_locale_get_ctype_array_value 1004a710 f i libucrtd:output.obj
 0001:00049740       ___stdio_common_vfprintf   1004a740 f   libucrtd:output.obj
 0001:00049770       ___stdio_common_vfprintf_p 1004a770 f   libucrtd:output.obj
 0001:000497a0       ___stdio_common_vfprintf_s 1004a7a0 f   libucrtd:output.obj
 0001:000497d0       ___stdio_common_vfwprintf  1004a7d0 f   libucrtd:output.obj
 0001:00049800       ___stdio_common_vfwprintf_p 1004a800 f   libucrtd:output.obj
 0001:00049830       ___stdio_common_vfwprintf_s 1004a830 f   libucrtd:output.obj
 0001:00049860       ___stdio_common_vsnprintf_s 1004a860 f   libucrtd:output.obj
 0001:00049890       ___stdio_common_vsnwprintf_s 1004a890 f   libucrtd:output.obj
 0001:000498c0       ___stdio_common_vsprintf   1004a8c0 f   libucrtd:output.obj
 0001:000498f0       ___stdio_common_vsprintf_p 1004a8f0 f   libucrtd:output.obj
 0001:00049920       ___stdio_common_vsprintf_s 1004a920 f   libucrtd:output.obj
 0001:00049950       ___stdio_common_vswprintf  1004a950 f   libucrtd:output.obj
 0001:00049980       ___stdio_common_vswprintf_p 1004a980 f   libucrtd:output.obj
 0001:000499b0       ___stdio_common_vswprintf_s 1004a9b0 f   libucrtd:output.obj
 0001:000499e0       __ctype_fast_check_internal 1004a9e0 f i libucrtd:output.obj
 0001:00049a00       __isdigit_fast_internal    1004aa00 f i libucrtd:output.obj
 0001:00049a20       __tolower_fast_internal    1004aa20 f i libucrtd:output.obj
 0001:00049a40       ??$is_overflow_condition@K@__crt_strtox@@YA_NIK@Z 1004aa40 f i libucrtd:atox.obj
 0001:00049aa0       ??$is_overflow_condition@_K@__crt_strtox@@YA_NI_K@Z 1004aaa0 f i libucrtd:atox.obj
 0001:00049b30       ??$make_c_string_character_source@D$$T@__crt_strtox@@YA?AV?$c_string_character_source@D@0@QBD$$T@Z 1004ab30 f i libucrtd:atox.obj
 0001:00049b50       ??$make_c_string_character_source@_W$$T@__crt_strtox@@YA?AV?$c_string_character_source@_W@0@QB_W$$T@Z 1004ab50 f i libucrtd:atox.obj
 0001:00049b70       ??$parse_integer@KV?$c_string_character_source@D@__crt_strtox@@@__crt_strtox@@YAKQAU__crt_locale_pointers@@V?$c_string_character_source@D@0@H_N@Z 1004ab70 f i libucrtd:atox.obj
 0001:00049ee0       ??$parse_integer@KV?$c_string_character_source@_W@__crt_strtox@@@__crt_strtox@@YAKQAU__crt_locale_pointers@@V?$c_string_character_source@_W@0@H_N@Z 1004aee0 f i libucrtd:atox.obj
 0001:0004a250       ??$parse_integer@_KV?$c_string_character_source@D@__crt_strtox@@@__crt_strtox@@YA_KQAU__crt_locale_pointers@@V?$c_string_character_source@D@0@H_N@Z 1004b250 f i libucrtd:atox.obj
 0001:0004a670       ??$parse_integer@_KV?$c_string_character_source@_W@__crt_strtox@@@__crt_strtox@@YA_KQAU__crt_locale_pointers@@V?$c_string_character_source@_W@0@H_N@Z 1004b670 f i libucrtd:atox.obj
 0001:0004aaa0       ??$parse_integer_from_string@JD$$T@__crt_strtox@@YAJQBD$$THQAU__crt_locale_pointers@@@Z 1004baa0 f i libucrtd:atox.obj
 0001:0004aae0       ??$parse_integer_from_string@J_W$$T@__crt_strtox@@YAJQB_W$$THQAU__crt_locale_pointers@@@Z 1004bae0 f i libucrtd:atox.obj
 0001:0004ab20       ??$parse_integer_from_string@_JD$$T@__crt_strtox@@YA_JQBD$$THQAU__crt_locale_pointers@@@Z 1004bb20 f i libucrtd:atox.obj
 0001:0004ab60       ??$parse_integer_from_string@_J_W$$T@__crt_strtox@@YA_JQB_W$$THQAU__crt_locale_pointers@@@Z 1004bb60 f i libucrtd:atox.obj
 0001:0004aba0       ??0?$c_string_character_source@D@__crt_strtox@@QAE@QBDQAPBD@Z 1004bba0 f i libucrtd:atox.obj
 0001:0004abe0       ??0?$c_string_character_source@_W@__crt_strtox@@QAE@QB_WQAPB_W@Z 1004bbe0 f i libucrtd:atox.obj
 0001:0004ac20       ??1?$c_string_character_source@D@__crt_strtox@@QAE@XZ 1004bc20 f i libucrtd:atox.obj
 0001:0004ac50       ??1?$c_string_character_source@_W@__crt_strtox@@QAE@XZ 1004bc50 f i libucrtd:atox.obj
 0001:0004ac80       ?get@?$c_string_character_source@D@__crt_strtox@@QAEDXZ 1004bc80 f i libucrtd:atox.obj
 0001:0004acb0       ?get@?$c_string_character_source@_W@__crt_strtox@@QAE_WXZ 1004bcb0 f i libucrtd:atox.obj
 0001:0004ace0       ?is_space@__crt_strtox@@YA_NDQAU__crt_locale_pointers@@@Z 1004bce0 f i libucrtd:atox.obj
 0001:0004ad20       ?is_space@__crt_strtox@@YA_N_WPAU__crt_locale_pointers@@@Z 1004bd20 f i libucrtd:atox.obj
 0001:0004ad50       ?maximum_signed_value@__crt_strtox@@YAJK@Z 1004bd50 f i libucrtd:atox.obj
 0001:0004ad60       ?maximum_signed_value@__crt_strtox@@YA_J_K@Z 1004bd60 f i libucrtd:atox.obj
 0001:0004ad70       ?minimum_signed_value@__crt_strtox@@YAJK@Z 1004bd70 f i libucrtd:atox.obj
 0001:0004ad80       ?minimum_signed_value@__crt_strtox@@YA_J_K@Z 1004bd80 f i libucrtd:atox.obj
 0001:0004ad90       ?parse_digit@__crt_strtox@@YAID@Z 1004bd90 f i libucrtd:atox.obj
 0001:0004adf0       ?parse_digit@__crt_strtox@@YAI_W@Z 1004bdf0 f i libucrtd:atox.obj
 0001:0004ae40       ?restore_state@?$c_string_character_source@D@__crt_strtox@@QAE_NQBD@Z 1004be40 f i libucrtd:atox.obj
 0001:0004ae60       ?restore_state@?$c_string_character_source@_W@__crt_strtox@@QAE_NQB_W@Z 1004be60 f i libucrtd:atox.obj
 0001:0004ae80       ?save_state@?$c_string_character_source@D@__crt_strtox@@QBEPBDXZ 1004be80 f i libucrtd:atox.obj
 0001:0004aea0       ?save_state@?$c_string_character_source@_W@__crt_strtox@@QBEPB_WXZ 1004bea0 f i libucrtd:atox.obj
 0001:0004aec0       ?unget@?$c_string_character_source@D@__crt_strtox@@QAEXD@Z 1004bec0 f i libucrtd:atox.obj
 0001:0004af70       ?unget@?$c_string_character_source@_W@__crt_strtox@@QAEX_W@Z 1004bf70 f i libucrtd:atox.obj
 0001:0004b020       ?validate@?$c_string_character_source@D@__crt_strtox@@QBE_NXZ 1004c020 f i libucrtd:atox.obj
 0001:0004b0b0       ?validate@?$c_string_character_source@_W@__crt_strtox@@QBE_NXZ 1004c0b0 f i libucrtd:atox.obj
 0001:0004b140       ?wide_character_to_digit@__crt_strtox@@YAH_W@Z 1004c140 f i libucrtd:atox.obj
 0001:0004b470       ___ascii_iswalpha          1004c470 f i libucrtd:atox.obj
 0001:0004b4b0       ___ascii_toupper           1004c4b0 f i libucrtd:atox.obj
 0001:0004b4d0       ___ascii_towupper          1004c4d0 f i libucrtd:atox.obj
 0001:0004b4f0       __atoi64                   1004c4f0 f   libucrtd:atox.obj
 0001:0004b510       __atoi64_l                 1004c510 f   libucrtd:atox.obj
 0001:0004b530       __atoi_l                   1004c530 f   libucrtd:atox.obj
 0001:0004b550       __atol_l                   1004c550 f   libucrtd:atox.obj
 0001:0004b570       __atoll_l                  1004c570 f   libucrtd:atox.obj
 0001:0004b590       __wtoi                     1004c590 f   libucrtd:atox.obj
 0001:0004b5b0       __wtoi64                   1004c5b0 f   libucrtd:atox.obj
 0001:0004b5d0       __wtoi64_l                 1004c5d0 f   libucrtd:atox.obj
 0001:0004b5f0       __wtoi_l                   1004c5f0 f   libucrtd:atox.obj
 0001:0004b610       __wtol                     1004c610 f   libucrtd:atox.obj
 0001:0004b630       __wtol_l                   1004c630 f   libucrtd:atox.obj
 0001:0004b650       __wtoll                    1004c650 f   libucrtd:atox.obj
 0001:0004b670       __wtoll_l                  1004c670 f   libucrtd:atox.obj
 0001:0004b690       _atoi                      1004c690 f   libucrtd:atox.obj
 0001:0004b6b0       _atol                      1004c6b0 f   libucrtd:atox.obj
 0001:0004b6d0       _atoll                     1004c6d0 f   libucrtd:atox.obj
 0001:0004b6f0       _strncmp                   1004c6f0 f   libucrtd:strncmp.obj
 0001:0004b770       _wcsncmp                   1004c770 f   libucrtd:wcsncmp.obj
 0001:0004b7d0       ??$?RU__acrt_ptd@@@__crt_internal_free_policy@@QBEXQBU__acrt_ptd@@@Z 1004c7d0 f i libucrtd:per_thread_data.obj
 0001:0004bc80       ??0?$__crt_unique_heap_ptr@U__acrt_ptd@@U__crt_internal_free_policy@@@@QAE@QAU__acrt_ptd@@@Z 1004cc80 f i libucrtd:per_thread_data.obj
 0001:0004bca0       ??0__crt_scoped_get_last_error_reset@@QAE@XZ 1004cca0 f i libucrtd:per_thread_data.obj
 0001:0004bcc0       ??1?$__crt_unique_heap_ptr@U__acrt_ptd@@U__crt_internal_free_policy@@@@QAE@XZ 1004ccc0 f i libucrtd:per_thread_data.obj
 0001:0004bce0       ??1__crt_scoped_get_last_error_reset@@QAE@XZ 1004cce0 f i libucrtd:per_thread_data.obj
 0001:0004bd00       ??B?$__crt_unique_heap_ptr@U__acrt_ptd@@U__crt_internal_free_policy@@@@QBE_NXZ 1004cd00 f i libucrtd:per_thread_data.obj
 0001:0004bfe0       ?dangerous_get_state_array@?$dual_state_global@PAU__crt_locale_data@@@__crt_state_management@@QAEPAPAU__crt_locale_data@@XZ 1004cfe0 f i libucrtd:per_thread_data.obj
 0001:0004c160       ?detach@?$__crt_unique_heap_ptr@U__acrt_ptd@@U__crt_internal_free_policy@@@@QAEPAU__acrt_ptd@@XZ 1004d160 f i libucrtd:per_thread_data.obj
 0001:0004c190       ?get@?$__crt_unique_heap_ptr@U__acrt_ptd@@U__crt_internal_free_policy@@@@QBEPAU__acrt_ptd@@XZ 1004d190 f i libucrtd:per_thread_data.obj
 0001:0004c1b0       ?get_current_state_index@__crt_state_management@@YAIABV__crt_scoped_get_last_error_reset@@@Z 1004d1b0 f i libucrtd:per_thread_data.obj
 0001:0004c320       ?is_valid@?$__crt_unique_heap_ptr@U__acrt_ptd@@U__crt_internal_free_policy@@@@QBE_NXZ 1004d320 f i libucrtd:per_thread_data.obj
 0001:0004c350       ?release@?$__crt_unique_heap_ptr@U__acrt_ptd@@U__crt_internal_free_policy@@@@QAEXXZ 1004d350 f i libucrtd:per_thread_data.obj
 0001:0004c440       ?value@?$dual_state_global@PAU__crt_locale_data@@@__crt_state_management@@QAEAAPAU__crt_locale_data@@XZ 1004d440 f i libucrtd:per_thread_data.obj
 0001:0004c460       ___acrt_freeptd            1004d460 f   libucrtd:per_thread_data.obj
 0001:0004c490       ___acrt_getptd             1004d490 f   libucrtd:per_thread_data.obj
 0001:0004c4b0       ___acrt_getptd_head        1004d4b0 f   libucrtd:per_thread_data.obj
 0001:0004c4d0       ___acrt_getptd_noexit      1004d4d0 f   libucrtd:per_thread_data.obj
 0001:0004c4e0       ___acrt_initialize_ptd     1004d4e0 f   libucrtd:per_thread_data.obj
 0001:0004c520       ___acrt_uninitialize_ptd   1004d520 f   libucrtd:per_thread_data.obj
 0001:0004c550       ___threadhandle            1004d550 f   libucrtd:per_thread_data.obj
 0001:0004c560       ___threadid                1004d560 f   libucrtd:per_thread_data.obj
 0001:0004c570       __CrtGetReportHook         1004d570 f   libucrtd:dbgrptt.obj
 0001:0004c580       __CrtSetReportFile         1004d580 f   libucrtd:dbgrptt.obj
 0001:0004c680       __CrtSetReportHook         1004d680 f   libucrtd:dbgrptt.obj
 0001:0004c6a0       __CrtSetReportMode         1004d6a0 f   libucrtd:dbgrptt.obj
 0001:0004c7e0       __VCrtDbgReportA           1004d7e0 f   libucrtd:dbgrptt.obj
 0001:0004d060       __VCrtDbgReportW           1004e060 f   libucrtd:dbgrptt.obj
 0001:0004da10       __snprintf_s               1004ea10 f i libucrtd:dbgrptt.obj
 0001:0004da50       __vsnprintf_s              1004ea50 f i libucrtd:dbgrptt.obj
 0001:0004da80       __vsnprintf_s_l            1004ea80 f i libucrtd:dbgrptt.obj
 0001:0004dae0       ___acrt_errno_from_os_error 1004eae0 f   libucrtd:errno.obj
 0001:0004db60       ___acrt_errno_map_os_error 1004eb60 f   libucrtd:errno.obj
 0001:0004db90       ___doserrno                1004eb90 f   libucrtd:errno.obj
 0001:0004dbc0       __errno                    1004ebc0 f   libucrtd:errno.obj
 0001:0004dbf0       __get_doserrno             1004ebf0 f   libucrtd:errno.obj
 0001:0004dc80       __get_errno                1004ec80 f   libucrtd:errno.obj
 0001:0004dd10       __set_doserrno             1004ed10 f   libucrtd:errno.obj
 0001:0004dd40       __set_errno                1004ed40 f   libucrtd:errno.obj
 0001:0004e090       _wcscpy_s                  1004f090 f   libucrtd:wcscpy_s.obj
 0001:0004edb0       ??1?$__crt_simd_cleanup_guard@$00@@QAE@XZ 1004fdb0 f i libucrtd:strnlen.obj
 0001:0004edc0       ??1?$__crt_simd_cleanup_guard@$0A@@@QAE@XZ 1004fdc0 f i libucrtd:strnlen.obj
 0001:0004edd0       ?compare_equals@?$__crt_simd_traits@$00E@@SA?AT__m256i@@T2@0@Z 1004fdd0 f i libucrtd:strnlen.obj
 0001:0004ee10       ?compare_equals@?$__crt_simd_traits@$00G@@SA?AT__m256i@@T2@0@Z 1004fe10 f i libucrtd:strnlen.obj
 0001:0004ee50       ?compare_equals@?$__crt_simd_traits@$0A@E@@SA?AT__m128i@@T2@0@Z 1004fe50 f i libucrtd:strnlen.obj
 0001:0004ee90       ?compare_equals@?$__crt_simd_traits@$0A@G@@SA?AT__m128i@@T2@0@Z 1004fe90 f i libucrtd:strnlen.obj
 0001:0004eed0       ?compute_byte_mask@?$__crt_simd_pack_traits@$00@@SAHT__m256i@@@Z 1004fed0 f i libucrtd:strnlen.obj
 0001:0004ef00       ?compute_byte_mask@?$__crt_simd_pack_traits@$0A@@@SAHT__m128i@@@Z 1004ff00 f i libucrtd:strnlen.obj
 0001:0004ef30       ?get_zero_pack@?$__crt_simd_pack_traits@$00@@SA?AT__m256i@@XZ 1004ff30 f i libucrtd:strnlen.obj
 0001:0004ef60       ?get_zero_pack@?$__crt_simd_pack_traits@$0A@@@SA?AT__m128i@@XZ 1004ff60 f i libucrtd:strnlen.obj
 0001:0004ef90       _strnlen                   1004ff90 f   libucrtd:strnlen.obj
 0001:0004efb0       _wcslen                    1004ffb0 f   libucrtd:strnlen.obj
 0001:0004efd0       _wcsnlen                   1004ffd0 f   libucrtd:strnlen.obj
 0001:0004f120       ??$__acrt_wcs_to_mbs_cp@U__crt_win32_buffer_no_resizing@@@@YAHQB_WAAV?$__crt_win32_buffer@DU__crt_win32_buffer_no_resizing@@@@I@Z 10050120 f i libucrtd:getmodulefilenamea.obj
 0001:0004f150       ??0?$__crt_win32_buffer@DU__crt_win32_buffer_no_resizing@@@@QAE@QADI@Z 10050150 f i libucrtd:getmodulefilenamea.obj
 0001:0004f1a0       ??1?$__crt_win32_buffer@DU__crt_win32_buffer_no_resizing@@@@QAE@XZ 100501a0 f i libucrtd:getmodulefilenamea.obj
 0001:0004f210       ?__acrt_get_utf8_acp_compatibility_codepage@@YAIXZ 10050210 f i libucrtd:getmodulefilenamea.obj
 0001:0004f2a0       ?_deallocate@?$__crt_win32_buffer@DU__crt_win32_buffer_no_resizing@@@@AAEXXZ 100502a0 f i libucrtd:getmodulefilenamea.obj
 0001:0004f2e0       ?allocate@?$__crt_win32_buffer@DU__crt_win32_buffer_no_resizing@@@@QAEHI@Z 100502e0 f i libucrtd:getmodulefilenamea.obj
 0001:0004f350       ?allocate@__crt_win32_buffer_no_resizing@@SAHQAPAXIABV__crt_win32_buffer_empty_debug_info@@@Z 10050350 f i libucrtd:getmodulefilenamea.obj
 0001:0004f370       ?capacity@?$__crt_win32_buffer@DU__crt_win32_buffer_no_resizing@@@@QBEIXZ 10050370 f i libucrtd:getmodulefilenamea.obj
 0001:0004f390       ?data@?$__crt_win32_buffer@DU__crt_win32_buffer_no_resizing@@@@QAEPADXZ 10050390 f i libucrtd:getmodulefilenamea.obj
 0001:0004f3b0       ?deallocate@__crt_win32_buffer_no_resizing@@SAXQAXABV__crt_win32_buffer_empty_debug_info@@@Z 100503b0 f i libucrtd:getmodulefilenamea.obj
 0001:0004f3c0       ?debug_info@?$__crt_win32_buffer@DU__crt_win32_buffer_no_resizing@@@@QBEABV__crt_win32_buffer_empty_debug_info@@XZ 100503c0 f i libucrtd:getmodulefilenamea.obj
 0001:0004f3d0       ?set_to_nullptr@?$__crt_win32_buffer@DU__crt_win32_buffer_no_resizing@@@@QAEXXZ 100503d0 f i libucrtd:getmodulefilenamea.obj
 0001:0004f410       ?size@?$__crt_win32_buffer@DU__crt_win32_buffer_no_resizing@@@@QAEXI@Z 10050410 f i libucrtd:getmodulefilenamea.obj
 0001:0004f430       ?size@?$__crt_win32_buffer@DU__crt_win32_buffer_no_resizing@@@@QBEIXZ 10050430 f i libucrtd:getmodulefilenamea.obj
 0001:0004f450       ___acrt_GetModuleFileNameA 10050450 f   libucrtd:getmodulefilenamea.obj
 0001:0004f730       ??$message_box@$$TABQBDABQBDK@?$__crt_char_traits@D@@SAH$$QA$$TABQBD1$$QAK@Z 10050730 f i libucrtd:crtmbox.obj
 0001:0004f760       ??$message_box@$$TABQB_WABQB_WK@?$__crt_char_traits@_W@@SAH$$QA$$TABQB_W1$$QAK@Z 10050760 f i libucrtd:crtmbox.obj
 0001:0004f790       ??$message_box@PAUHWND__@@ABQBDABQBDABI@?$__crt_char_traits@D@@SAH$$QAPAUHWND__@@ABQBD1ABI@Z 10050790 f i libucrtd:crtmbox.obj
 0001:0004f7c0       ??$message_box@PAUHWND__@@ABQB_WABQB_WABI@?$__crt_char_traits@_W@@SAH$$QAPAUHWND__@@ABQB_W1ABI@Z 100507c0 f i libucrtd:crtmbox.obj
 0001:0004f7f0       ??$output_debug_string@ABQBD@?$__crt_char_traits@D@@SAXABQBD@Z 100507f0 f i libucrtd:crtmbox.obj
 0001:0004f810       ??$output_debug_string@ABQB_W@?$__crt_char_traits@_W@@SAXABQB_W@Z 10050810 f i libucrtd:crtmbox.obj
 0001:0004f830       ___acrt_show_narrow_message_box 10050830 f   libucrtd:crtmbox.obj
 0001:0004f850       ___acrt_show_wide_message_box 10050850 f   libucrtd:crtmbox.obj
 0001:0004f870       ??$?B$$A6AXH@Z@__crt_fast_encoded_nullptr_t@@QBEP6AXH@ZXZ 10050870 f i libucrtd:signal.obj
 0001:0004f960       ??$__crt_fast_decode_pointer@P6AXH@Z@@YAP6AXH@ZQ6AXH@Z@Z 10050960 f i libucrtd:signal.obj
 0001:0004f990       ??$__crt_fast_encode_pointer@P6AXH@Z@@YAP6AXH@ZQ6AXH@Z@Z 10050990 f i libucrtd:signal.obj
 0001:0004fc40       ?initialize@?$dual_state_global@P6AXH@Z@__crt_state_management@@QAEXQ6AXH@Z@Z 10050c40 f i libucrtd:signal.obj
 0001:0004fd80       ?value@?$dual_state_global@P6AXH@Z@__crt_state_management@@QAEAAP6AXH@ZXZ 10050d80 f i libucrtd:signal.obj
 0001:0004fda0       ___acrt_get_sigabrt_handler 10050da0 f   libucrtd:signal.obj
 0001:0004fdc0       ___acrt_initialize_signal_handlers 10050dc0 f   libucrtd:signal.obj
 0001:0004fe00       ___fpecode                 10050e00 f   libucrtd:signal.obj
 0001:0004fe10       ___pxcptinfoptrs           10050e10 f   libucrtd:signal.obj
 0001:0004fe20       _raise                     10050e20 f   libucrtd:signal.obj
 0001:000501f0       _signal                    100511f0 f   libucrtd:signal.obj
 0001:00050470       ___acrt_initialize_sse2    10051470 f   libucrtd:mathfcns.obj
 0001:00050490       __set_SSE2_enable          10051490 f   libucrtd:mathfcns.obj
 0001:000504e0       __CIexp                    100514e0 f   libucrtd:87ctran.obj
 0001:0005051b       __exp_default              1005151b f   libucrtd:87ctran.obj
 0001:00050525       __CIexp_default            10051525 f   libucrtd:87ctran.obj
 0001:00050530       __CIexp_pentium4           10051530 f   libucrtd:exp_pentium4.obj
 0001:00050548       __exp_pentium4             10051548     libucrtd:exp_pentium4.obj
 0001:000507f0       __CIlog                    100517f0 f   libucrtd:log_impl.obj
 0001:0005082b       __CIlog_default            1005182b f   libucrtd:log_impl.obj
 0001:0005083f       __log_default              1005183f     libucrtd:log_impl.obj
 0001:00050900       __CIlog_pentium4           10051900 f   libucrtd:log_pentium4.obj
 0001:00050918       __log_pentium4             10051918     libucrtd:log_pentium4.obj
 0001:00050b70       __twoToTOS                 10051b70 f   libucrtd:common.obj
 0001:00050b85       __load_CW                  10051b85 f   libucrtd:common.obj
 0001:00050b9c       __convertTOStoQNaN         10051b9c f   libucrtd:common.obj
 0001:00050bb5       __fload_withFB             10051bb5 f   libucrtd:common.obj
 0001:00050bf8       __checkTOS_withFB          10051bf8 f   libucrtd:common.obj
 0001:00050c0e       __fast_exit                10051c0e f   libucrtd:common.obj
 0001:00050c1b       __math_exit                10051c1b f   libucrtd:common.obj
 0001:00050c45       __check_overflow_exit      10051c45 f   libucrtd:common.obj
 0001:00050c59       __check_range_exit         10051c59 f   libucrtd:common.obj
 0001:00050d00       __CIsqrt                   10051d00 f   libucrtd:sqrt_impl.obj
 0001:00050d14       __sqrt_common              10051d14     libucrtd:sqrt_impl.obj
 0001:00050dc0       __CIlog10                  10051dc0 f   libucrtd:log10_impl.obj
 0001:00050dfb       __CIlog10_default          10051dfb f   libucrtd:log10_impl.obj
 0001:00050e0f       __log10_default            10051e0f     libucrtd:log10_impl.obj
 0001:00050ed0       __CIlog10_pentium4         10051ed0 f   libucrtd:log10_pentium4.obj
 0001:00050ee8       __log10_pentium4           10051ee8     libucrtd:log10_pentium4.obj
 0001:00051160       __CIpow                    10052160 f   libucrtd:pow_impl.obj
 0001:0005119b       __CIpow_default            1005219b f   libucrtd:pow_impl.obj
 0001:000511b4       __pow_default              100521b4     libucrtd:pow_impl.obj
 0001:000513b0       __CIpow_pentium4           100523b0 f   libucrtd:pow_pentium4.obj
 0001:000513c9       __pow_pentium4             100523c9     libucrtd:pow_pentium4.obj
 0001:00051ef0       ??$?B$$A6GHPA_WKJ@Z@__crt_fast_encoded_nullptr_t@@QBEP6GHPA_WKJ@ZXZ 10052ef0 f i libucrtd:winapi_thunks.obj
 0001:00051fe0       ??$__crt_fast_decode_pointer@P6GHPA_WKJ@Z@@YAP6GHPA_WKJ@ZQ6GH0KJ@Z@Z 10052fe0 f i libucrtd:winapi_thunks.obj
 0001:00052010       ??$__crt_fast_decode_pointer@PAX@@YAPAXQAX@Z 10053010 f i libucrtd:winapi_thunks.obj
 0001:00052040       ??$__crt_fast_encode_pointer@P6GHPA_WKJ@Z@@YAP6GHPA_WKJ@ZQ6GH0KJ@Z@Z 10053040 f i libucrtd:winapi_thunks.obj
 0001:000529a0       _GetCurrentThreadEffectiveToken 100539a0 f i libucrtd:winapi_thunks.obj
 0001:000529b0       ___acrt_AppPolicyGetProcessTerminationMethodInternal@4 100539b0 f   libucrtd:winapi_thunks.obj
 0001:000529f0       ___acrt_AppPolicyGetShowDeveloperDiagnosticInternal@4 100539f0 f   libucrtd:winapi_thunks.obj
 0001:00052a30       ___acrt_AppPolicyGetThreadInitializationTypeInternal@4 10053a30 f   libucrtd:winapi_thunks.obj
 0001:00052a70       ___acrt_AppPolicyGetWindowingModelInternal@4 10053a70 f   libucrtd:winapi_thunks.obj
 0001:00052ab0       ___acrt_AreFileApisANSI@0  10053ab0 f   libucrtd:winapi_thunks.obj
 0001:00052af0       ___acrt_CompareStringEx@36 10053af0 f   libucrtd:winapi_thunks.obj
 0001:00052b70       ___acrt_EnumSystemLocalesEx@16 10053b70 f   libucrtd:winapi_thunks.obj
 0001:00052bd0       ___acrt_FlsAlloc@4         10053bd0 f   libucrtd:winapi_thunks.obj
 0001:00052c10       ___acrt_FlsFree@4          10053c10 f   libucrtd:winapi_thunks.obj
 0001:00052c50       ___acrt_FlsGetValue@4      10053c50 f   libucrtd:winapi_thunks.obj
 0001:00052c90       ___acrt_FlsSetValue@8      10053c90 f   libucrtd:winapi_thunks.obj
 0001:00052ce0       ___acrt_GetDateFormatEx@28 10053ce0 f   libucrtd:winapi_thunks.obj
 0001:00052d60       ___acrt_GetEnabledXStateFeatures@0 10053d60 f   libucrtd:winapi_thunks.obj
 0001:00052da0       ___acrt_GetLocaleInfoEx@16 10053da0 f   libucrtd:winapi_thunks.obj
 0001:00052e00       ___acrt_GetSystemTimePreciseAsFileTime@4 10053e00 f   libucrtd:winapi_thunks.obj
 0001:00052e40       ___acrt_GetTimeFormatEx@24 10053e40 f   libucrtd:winapi_thunks.obj
 0001:00052eb0       ___acrt_GetUserDefaultLocaleName@8 10053eb0 f   libucrtd:winapi_thunks.obj
 0001:00052f00       ___acrt_GetXStateFeaturesMask@8 10053f00 f   libucrtd:winapi_thunks.obj
 0001:00052f40       ___acrt_InitializeCriticalSectionEx@12 10053f40 f   libucrtd:winapi_thunks.obj
 0001:00052f90       ___acrt_IsValidLocaleName@4 10053f90 f   libucrtd:winapi_thunks.obj
 0001:00052fe0       ___acrt_LCIDToLocaleName@16 10053fe0 f   libucrtd:winapi_thunks.obj
 0001:00053040       ___acrt_LCMapStringEx@36   10054040 f   libucrtd:winapi_thunks.obj
 0001:000530c0       ___acrt_LocaleNameToLCID@8 100540c0 f   libucrtd:winapi_thunks.obj
 0001:00053110       ___acrt_LocateXStateFeature@12 10054110 f   libucrtd:winapi_thunks.obj
 0001:00053160       ___acrt_MessageBoxA@16     10054160 f   libucrtd:winapi_thunks.obj
 0001:000531b0       ___acrt_MessageBoxW@16     100541b0 f   libucrtd:winapi_thunks.obj
 0001:00053200       ___acrt_RoInitialize@4     10054200 f   libucrtd:winapi_thunks.obj
 0001:00053240       ___acrt_RoUninitialize@0   10054240 f   libucrtd:winapi_thunks.obj
 0001:00053270       ___acrt_RtlGenRandom@8     10054270 f   libucrtd:winapi_thunks.obj
 0001:000532b0       ___acrt_SetThreadStackGuarantee@4 100542b0 f   libucrtd:winapi_thunks.obj
 0001:000532f0       ___acrt_can_show_message_box 100542f0 f   libucrtd:winapi_thunks.obj
 0001:00053330       ___acrt_can_use_vista_locale_apis 10054330 f   libucrtd:winapi_thunks.obj
 0001:00053360       ___acrt_can_use_xstate_apis 10054360 f   libucrtd:winapi_thunks.obj
 0001:00053390       ___acrt_eagerly_load_locale_apis 10054390 f   libucrtd:winapi_thunks.obj
 0001:000533d0       ___acrt_get_parent_window  100543d0 f   libucrtd:winapi_thunks.obj
 0001:00053440       ___acrt_initialize_winapi_thunks 10054440 f   libucrtd:winapi_thunks.obj
 0001:000534b0       ___acrt_is_interactive     100544b0 f   libucrtd:winapi_thunks.obj
 0001:00053560       ___acrt_uninitialize_winapi_thunks 10054560 f   libucrtd:winapi_thunks.obj
 0001:000538d0       ___acrt_get_begin_thread_init_policy 100548d0 f   libucrtd:win_policies.obj
 0001:000538f0       ___acrt_get_developer_information_policy 100548f0 f   libucrtd:win_policies.obj
 0001:00053910       ___acrt_get_process_end_policy 10054910 f   libucrtd:win_policies.obj
 0001:00053930       ___acrt_get_windowing_model_policy 10054930 f   libucrtd:win_policies.obj
 0001:00053c00       ??$__acrt_mbs_to_wcs_cp@U__crt_win32_buffer_internal_dynamic_resizing@@@@YAHQBDAAV?$__crt_win32_buffer@_WU__crt_win32_buffer_internal_dynamic_resizing@@@@I@Z 10054c00 f i libucrtd:argv_wildcards.obj
 0001:00053c30       ??$__acrt_wcs_to_mbs_cp@U__crt_win32_buffer_internal_dynamic_resizing@@@@YAHQB_WAAV?$__crt_win32_buffer@DU__crt_win32_buffer_internal_dynamic_resizing@@@@I@Z 10054c30 f i libucrtd:argv_wildcards.obj
 0001:00054b80       ??$tcsncpy_s@AAPADIAAPADABI@?$__crt_char_traits@D@@SAHAAPAD$$QAI0ABI@Z 10055b80 f i libucrtd:argv_wildcards.obj
 0001:00054bb0       ??$tcsncpy_s@AAPA_WIAAPA_WABI@?$__crt_char_traits@_W@@SAHAAPA_W$$QAI0ABI@Z 10055bb0 f i libucrtd:argv_wildcards.obj
 0001:00054be0       ??$tcsncpy_s@PADABIABQBDABI@?$__crt_char_traits@D@@SAH$$QAPADABIABQBD1@Z 10055be0 f i libucrtd:argv_wildcards.obj
 0001:00054c10       ??$tcsncpy_s@PADIABQBDABI@?$__crt_char_traits@D@@SAH$$QAPAD$$QAIABQBDABI@Z 10055c10 f i libucrtd:argv_wildcards.obj
 0001:00054c40       ??$tcsncpy_s@PA_WABIABQB_WABI@?$__crt_char_traits@_W@@SAH$$QAPA_WABIABQB_W1@Z 10055c40 f i libucrtd:argv_wildcards.obj
 0001:00054c70       ??$tcsncpy_s@PA_WIABQB_WABI@?$__crt_char_traits@_W@@SAH$$QAPA_W$$QAIABQB_WABI@Z 10055c70 f i libucrtd:argv_wildcards.obj
 0001:00054ca0       ??$tcspbrk@AAPADAAY02$$CBD@?$__crt_char_traits@D@@SAPADAAPADAAY02$$CBD@Z 10055ca0 f i libucrtd:argv_wildcards.obj
 0001:00054cc0       ??$tcspbrk@AAPA_WAAY02$$CB_W@?$__crt_char_traits@_W@@SAPA_WAAPA_WAAY02$$CB_W@Z 10055cc0 f i libucrtd:argv_wildcards.obj
 0001:00054ce0       ??0?$__crt_unique_handle_t@U__crt_findfile_traits@@@@QAE@QAX@Z 10055ce0 f i libucrtd:argv_wildcards.obj
 0001:00054d00       ??0?$__crt_win32_buffer@DU__crt_win32_buffer_internal_dynamic_resizing@@@@QAE@XZ 10055d00 f i libucrtd:argv_wildcards.obj
 0001:00054d50       ??0?$__crt_win32_buffer@_WU__crt_win32_buffer_internal_dynamic_resizing@@@@QAE@XZ 10055d50 f i libucrtd:argv_wildcards.obj
 0001:00054e00       ??1?$__crt_unique_handle_t@U__crt_findfile_traits@@@@QAE@XZ 10055e00 f i libucrtd:argv_wildcards.obj
 0001:00054e20       ??1?$__crt_win32_buffer@DU__crt_win32_buffer_internal_dynamic_resizing@@@@QAE@XZ 10055e20 f i libucrtd:argv_wildcards.obj
 0001:00054e60       ??1?$__crt_win32_buffer@_WU__crt_win32_buffer_internal_dynamic_resizing@@@@QAE@XZ 10055e60 f i libucrtd:argv_wildcards.obj
 0001:000550c0       ?_deallocate@?$__crt_win32_buffer@DU__crt_win32_buffer_internal_dynamic_resizing@@@@AAEXXZ 100560c0 f i libucrtd:argv_wildcards.obj
 0001:00055100       ?_deallocate@?$__crt_win32_buffer@_WU__crt_win32_buffer_internal_dynamic_resizing@@@@AAEXXZ 10056100 f i libucrtd:argv_wildcards.obj
 0001:00055140       ?allocate@?$__crt_win32_buffer@DU__crt_win32_buffer_internal_dynamic_resizing@@@@QAEHI@Z 10056140 f i libucrtd:argv_wildcards.obj
 0001:000551b0       ?allocate@?$__crt_win32_buffer@_WU__crt_win32_buffer_internal_dynamic_resizing@@@@QAEHI@Z 100561b0 f i libucrtd:argv_wildcards.obj
 0001:00055220       ?allocate@__crt_win32_buffer_internal_dynamic_resizing@@SAHQAPAXIABV__crt_win32_buffer_empty_debug_info@@@Z 10056220 f i libucrtd:argv_wildcards.obj
 0001:00055360       ?capacity@?$__crt_win32_buffer@DU__crt_win32_buffer_internal_dynamic_resizing@@@@QBEIXZ 10056360 f i libucrtd:argv_wildcards.obj
 0001:00055380       ?capacity@?$__crt_win32_buffer@_WU__crt_win32_buffer_internal_dynamic_resizing@@@@QBEIXZ 10056380 f i libucrtd:argv_wildcards.obj
 0001:000553a0       ?close@?$__crt_unique_handle_t@U__crt_findfile_traits@@@@QAEXXZ 100563a0 f i libucrtd:argv_wildcards.obj
 0001:000553e0       ?close@__crt_findfile_traits@@SA_NPAX@Z 100563e0 f i libucrtd:argv_wildcards.obj
 0001:00055410       ?data@?$__crt_win32_buffer@DU__crt_win32_buffer_internal_dynamic_resizing@@@@QAEPADXZ 10056410 f i libucrtd:argv_wildcards.obj
 0001:00055430       ?data@?$__crt_win32_buffer@_WU__crt_win32_buffer_internal_dynamic_resizing@@@@QAEPA_WXZ 10056430 f i libucrtd:argv_wildcards.obj
 0001:00055450       ?deallocate@__crt_win32_buffer_internal_dynamic_resizing@@SAXQAXABV__crt_win32_buffer_empty_debug_info@@@Z 10056450 f i libucrtd:argv_wildcards.obj
 0001:00055470       ?debug_info@?$__crt_win32_buffer@DU__crt_win32_buffer_internal_dynamic_resizing@@@@QBEABV__crt_win32_buffer_empty_debug_info@@XZ 10056470 f i libucrtd:argv_wildcards.obj
 0001:00055480       ?debug_info@?$__crt_win32_buffer@_WU__crt_win32_buffer_internal_dynamic_resizing@@@@QBEABV__crt_win32_buffer_empty_debug_info@@XZ 10056480 f i libucrtd:argv_wildcards.obj
 0001:00055790       ?get@?$__crt_unique_handle_t@U__crt_findfile_traits@@@@QBEPAXXZ 10056790 f i libucrtd:argv_wildcards.obj
 0001:00055800       ?get_invalid_value@__crt_findfile_traits@@SAPAXXZ 10056800 f i libucrtd:argv_wildcards.obj
 0001:00055890       ?set_to_nullptr@?$__crt_win32_buffer@DU__crt_win32_buffer_internal_dynamic_resizing@@@@QAEXXZ 10056890 f i libucrtd:argv_wildcards.obj
 0001:000558d0       ?set_to_nullptr@?$__crt_win32_buffer@_WU__crt_win32_buffer_internal_dynamic_resizing@@@@QAEXXZ 100568d0 f i libucrtd:argv_wildcards.obj
 0001:00055910       ?size@?$__crt_win32_buffer@DU__crt_win32_buffer_internal_dynamic_resizing@@@@QAEXI@Z 10056910 f i libucrtd:argv_wildcards.obj
 0001:00055930       ?size@?$__crt_win32_buffer@_WU__crt_win32_buffer_internal_dynamic_resizing@@@@QAEXI@Z 10056930 f i libucrtd:argv_wildcards.obj
 0001:00055990       ?strpbrk@@YAPADQADQBD@Z    10056990 f i libucrtd:argv_wildcards.obj
 0001:000559b0       ?wcspbrk@@YAPA_WPA_WPB_W@Z 100569b0 f i libucrtd:argv_wildcards.obj
 0001:000559d0       ___acrt_expand_narrow_argv_wildcards 100569d0 f   libucrtd:argv_wildcards.obj
 0001:000559f0       ___acrt_expand_wide_argv_wildcards 100569f0 f   libucrtd:argv_wildcards.obj
 0001:00055a10       ??$?RU__crt_multibyte_data@@@__crt_internal_free_policy@@QBEXQBU__crt_multibyte_data@@@Z 10056a10 f i libucrtd:mbctype.obj
 0001:00055af0       ??$initialize_from_array@$$BY10BAA@E@?$dual_state_global@PAE@__crt_state_management@@QAAXAAY10BAA@E@Z 10056af0 f i libucrtd:mbctype.obj
 0001:00055b40       ??$initialize_from_array@$$BY10BAB@E@?$dual_state_global@PAE@__crt_state_management@@QAAXAAY10BAB@E@Z 10056b40 f i libucrtd:mbctype.obj
 0001:00055c00       ??0?$__crt_unique_heap_ptr@U__crt_multibyte_data@@U__crt_internal_free_policy@@@@QAE@QAU__crt_multibyte_data@@@Z 10056c00 f i libucrtd:mbctype.obj
 0001:00055c20       ??1?$__crt_unique_heap_ptr@U__crt_multibyte_data@@U__crt_internal_free_policy@@@@QAE@XZ 10056c20 f i libucrtd:mbctype.obj
 0001:00055c40       ??B?$__crt_unique_heap_ptr@U__crt_multibyte_data@@U__crt_internal_free_policy@@@@QBE_NXZ 10056c40 f i libucrtd:mbctype.obj
 0001:00055e10       ?dangerous_get_state_array@?$dual_state_global@PAE@__crt_state_management@@QAEPAPAEXZ 10056e10 f i libucrtd:mbctype.obj
 0001:00055e20       ?dangerous_get_state_array@?$dual_state_global@PAU__crt_multibyte_data@@@__crt_state_management@@QAEPAPAU__crt_multibyte_data@@XZ 10056e20 f i libucrtd:mbctype.obj
 0001:00055e30       ?detach@?$__crt_unique_heap_ptr@U__crt_multibyte_data@@U__crt_internal_free_policy@@@@QAEPAU__crt_multibyte_data@@XZ 10056e30 f i libucrtd:mbctype.obj
 0001:00055e60       ?get@?$__crt_unique_heap_ptr@U__crt_multibyte_data@@U__crt_internal_free_policy@@@@QBEPAU__crt_multibyte_data@@XZ 10056e60 f i libucrtd:mbctype.obj
 0001:00055f40       ?initialize@?$dual_state_global@PAU__crt_multibyte_data@@@__crt_state_management@@QAEXQAU__crt_multibyte_data@@@Z 10056f40 f i libucrtd:mbctype.obj
 0001:00055f80       ?is_valid@?$__crt_unique_heap_ptr@U__crt_multibyte_data@@U__crt_internal_free_policy@@@@QBE_NXZ 10056f80 f i libucrtd:mbctype.obj
 0001:00055fb0       ?release@?$__crt_unique_heap_ptr@U__crt_multibyte_data@@U__crt_internal_free_policy@@@@QAEXXZ 10056fb0 f i libucrtd:mbctype.obj
 0001:000566f0       ?value@?$dual_state_global@PAE@__crt_state_management@@QAEAAPAEXZ 100576f0 f i libucrtd:mbctype.obj
 0001:00056710       ?value@?$dual_state_global@PAU__crt_multibyte_data@@@__crt_state_management@@QAEAAPAU__crt_multibyte_data@@XZ 10057710 f i libucrtd:mbctype.obj
 0001:00056730       ___acrt_initialize_multibyte 10057730 f   libucrtd:mbctype.obj
 0001:000567e0       ___acrt_should_sync_with_global_locale 100577e0 f i libucrtd:mbctype.obj
 0001:00056810       ___acrt_update_thread_multibyte_data 10057810 f   libucrtd:mbctype.obj
 0001:00056830       ___p__mbcasemap            10057830 f   libucrtd:mbctype.obj
 0001:00056850       ___p__mbctype              10057850 f   libucrtd:mbctype.obj
 0001:00056870       __getmbcp                  10057870 f   libucrtd:mbctype.obj
 0001:000568e0       __setmbcp                  100578e0 f   libucrtd:mbctype.obj
 0001:00056910       __setmbcp_nolock           10057910 f   libucrtd:mbctype.obj
 0001:00056e81       __ismbbalnum               10057e81 f   libucrtd:ismbbyte.obj
 0001:00056e9c       __ismbbalnum_l             10057e9c f   libucrtd:ismbbyte.obj
 0001:00056eb8       __ismbbalpha               10057eb8 f   libucrtd:ismbbyte.obj
 0001:00056ed3       __ismbbalpha_l             10057ed3 f   libucrtd:ismbbyte.obj
 0001:00056eef       __ismbbblank               10057eef f   libucrtd:ismbbyte.obj
 0001:00056f12       __ismbbblank_l             10057f12 f   libucrtd:ismbbyte.obj
 0001:00056f36       __ismbbgraph               10057f36 f   libucrtd:ismbbyte.obj
 0001:00056f51       __ismbbgraph_l             10057f51 f   libucrtd:ismbbyte.obj
 0001:00056f6d       __ismbbkalnum              10057f6d f   libucrtd:ismbbyte.obj
 0001:00056f85       __ismbbkalnum_l            10057f85 f   libucrtd:ismbbyte.obj
 0001:00056f9e       __ismbbkana                10057f9e f   libucrtd:ismbbyte.obj
 0001:00056fb1       __ismbbkana_l              10057fb1 f   libucrtd:ismbbyte.obj
 0001:00057000       __ismbbkprint              10058000 f   libucrtd:ismbbyte.obj
 0001:00057018       __ismbbkprint_l            10058018 f   libucrtd:ismbbyte.obj
 0001:00057031       __ismbbkpunct              10058031 f   libucrtd:ismbbyte.obj
 0001:00057049       __ismbbkpunct_l            10058049 f   libucrtd:ismbbyte.obj
 0001:00057062       __ismbblead                10058062 f   libucrtd:ismbbyte.obj
 0001:0005707a       __ismbblead_l              1005807a f   libucrtd:ismbbyte.obj
 0001:00057093       __ismbbprint               10058093 f   libucrtd:ismbbyte.obj
 0001:000570ae       __ismbbprint_l             100580ae f   libucrtd:ismbbyte.obj
 0001:000570ca       __ismbbpunct               100580ca f   libucrtd:ismbbyte.obj
 0001:000570e2       __ismbbpunct_l             100580e2 f   libucrtd:ismbbyte.obj
 0001:000570fb       __ismbbtrail               100580fb f   libucrtd:ismbbyte.obj
 0001:00057113       __ismbbtrail_l             10058113 f   libucrtd:ismbbyte.obj
 0001:00057130       ___acrt_initialize_command_line 10058130 f   libucrtd:argv_data.obj
 0001:00057150       ___acrt_uninitialize_command_line 10058150 f   libucrtd:argv_data.obj
 0001:00057160       ___p___argc                10058160 f   libucrtd:argv_data.obj
 0001:00057170       ___p___argv                10058170 f   libucrtd:argv_data.obj
 0001:00057180       ___p___wargv               10058180 f   libucrtd:argv_data.obj
 0001:00057190       ___p__acmdln               10058190 f   libucrtd:argv_data.obj
 0001:000571a0       ___p__pgmptr               100581a0 f   libucrtd:argv_data.obj
 0001:000571b0       ___p__wcmdln               100581b0 f   libucrtd:argv_data.obj
 0001:000571c0       ___p__wpgmptr              100581c0 f   libucrtd:argv_data.obj
 0001:000571d0       __get_pgmptr               100581d0 f   libucrtd:argv_data.obj
 0001:000572e0       __get_wpgmptr              100582e0 f   libucrtd:argv_data.obj
 0001:000574a0       ___acrt_MultiByteToWideChar 100584a0 f   libucrtd:multibytetowidechar.obj
 0001:000575a0       ___acrt_WideCharToMultiByte 100585a0 f   libucrtd:widechartomultibyte.obj
 0001:000576f9       ___dcrt_get_narrow_environment_from_os 100586f9 f   libucrtd:get_environment_from_os.obj
 0001:0005778b       ___dcrt_get_wide_environment_from_os 1005878b f   libucrtd:get_environment_from_os.obj
 0001:00058120       ??$get_or_create_environment_nolock@$$V@?$__crt_char_traits@D@@SAPAPADXZ 10059120 f i libucrtd:setenv.obj
 0001:00058125       ??$get_or_create_environment_nolock@$$V@?$__crt_char_traits@_W@@SAPAPA_WXZ 10059125 f i libucrtd:setenv.obj
 0001:0005812a       ??$set_environment_variable@ABQADQAD@?$__crt_char_traits@D@@SAHABQAD$$QBQAD@Z 1005912a f i libucrtd:setenv.obj
 0001:00058142       ??$set_environment_variable@ABQA_WQA_W@?$__crt_char_traits@_W@@SAHABQA_W$$QBQA_W@Z 10059142 f i libucrtd:setenv.obj
 0001:00058159       ??$tcschr@ABQADD@?$__crt_char_traits@D@@SAPADABQAD$$QAD@Z 10059159 f i libucrtd:setenv.obj
 0001:00058173       ??$tcschr@ABQA_WD@?$__crt_char_traits@_W@@SAPA_WABQA_W$$QAD@Z 10059173 f i libucrtd:setenv.obj
 0001:00058191       ??$tcscpy_s@AAPADABIAAPAD@?$__crt_char_traits@D@@SAHAAPADABI0@Z 10059191 f i libucrtd:setenv.obj
 0001:000581af       ??$tcscpy_s@AAPA_WABIAAPA_W@?$__crt_char_traits@_W@@SAHAAPA_WABI0@Z 100591af f i libucrtd:setenv.obj
 0001:000581cd       ??$tcscpy_s@ABQADABIABQAD@?$__crt_char_traits@D@@SAHABQADABI0@Z 100591cd f i libucrtd:setenv.obj
 0001:000581eb       ??$tcscpy_s@ABQA_WABIABQA_W@?$__crt_char_traits@_W@@SAHABQA_WABI0@Z 100591eb f i libucrtd:setenv.obj
 0001:00058209       ??$tcslen@ABQAD@?$__crt_char_traits@D@@SAIABQAD@Z 10059209 f i libucrtd:setenv.obj
 0001:00058221       ??$tcslen@ABQA_W@?$__crt_char_traits@_W@@SAIABQA_W@Z 10059221 f i libucrtd:setenv.obj
 0001:0005823f       ??$tcsnicoll@ABQBDAAPADABI@?$__crt_char_traits@D@@SAHABQBDAAPADABI@Z 1005923f f i libucrtd:setenv.obj
 0001:0005825d       ??$tcsnicoll@ABQB_WAAPA_WABI@?$__crt_char_traits@_W@@SAHABQB_WAAPA_WABI@Z 1005925d f i libucrtd:setenv.obj
 0001:0005827b       ??$tcsnlen@PADH@?$__crt_char_traits@D@@SAI$$QAPAD$$QAH@Z 1005927b f i libucrtd:setenv.obj
 0001:00058293       ??$tcsnlen@PA_WH@?$__crt_char_traits@_W@@SAI$$QAPA_W$$QAH@Z 10059293 f i libucrtd:setenv.obj
 0001:000582cf       ?strchr@@YAPADQADH@Z       100592cf f i libucrtd:setenv.obj
 0001:000582da       ?wcschr@@YAPA_WPA_W_W@Z    100592da f i libucrtd:setenv.obj
 0001:000582e5       ___dcrt_set_variable_in_narrow_environment_nolock 100592e5 f   libucrtd:setenv.obj
 0001:000582f0       ___dcrt_set_variable_in_wide_environment_nolock 100592f0 f   libucrtd:setenv.obj
 0001:00058300       ___acrt_getheap            10059300 f   libucrtd:heap_handle.obj
 0001:00058340       ___acrt_initialize_heap    10059340 f   libucrtd:heap_handle.obj
 0001:00058370       ___acrt_uninitialize_heap  10059370 f   libucrtd:heap_handle.obj
 0001:00058390       __get_heap_handle          10059390 f   libucrtd:heap_handle.obj
 0001:00058690       ___acrt_initialize_lowio   10059690 f   libucrtd:ioinit.obj
 0001:00058730       ___acrt_uninitialize_lowio 10059730 f   libucrtd:ioinit.obj
 0001:00058790       ___acrt_execute_initializers 10059790 f   libucrtd:shared_initialization.obj
 0001:00058840       ___acrt_execute_uninitializers 10059840 f   libucrtd:shared_initialization.obj
 0001:000588a0       ??$__crt_fast_decode_pointer@P6AHPAU_exception@@@Z@@YAP6AHPAU_exception@@@ZQ6AH0@Z@Z 100598a0 f i libucrtd:matherr.obj
 0001:000588d0       ??$__crt_fast_encode_pointer@P6AHPAU_exception@@@Z@@YAP6AHPAU_exception@@@ZQ6AH0@Z@Z 100598d0 f i libucrtd:matherr.obj
 0001:00058900       ?initialize@?$dual_state_global@P6AHPAU_exception@@@Z@__crt_state_management@@QAEXQ6AHPAU_exception@@@Z@Z 10059900 f i libucrtd:matherr.obj
 0001:00058940       ?value@?$dual_state_global@P6AHPAU_exception@@@Z@__crt_state_management@@QAEAAP6AHPAU_exception@@@ZXZ 10059940 f i libucrtd:matherr.obj
 0001:00058960       ___acrt_has_user_matherr   10059960 f   libucrtd:matherr.obj
 0001:000589a0       ___acrt_initialize_user_matherr 100599a0 f   libucrtd:matherr.obj
 0001:000589c0       ___acrt_invoke_user_matherr 100599c0 f   libucrtd:matherr.obj
 0001:00058a10       ___setusermatherr          10059a10 f   libucrtd:matherr.obj
 0001:00058a40       ___p___mb_cur_max          10059a40 f   libucrtd:nlsdata.obj
 0001:00058a80       ?has_any_buffer@__crt_stdio_stream@@QBE_NXZ 10059a80 f i libucrtd:_sftbuf.obj
 0001:00058aa0       ?has_any_of@__crt_stdio_stream@@QBE_NJ@Z 10059aa0 f i libucrtd:_sftbuf.obj
 0001:00058ae0       ?has_temporary_buffer@__crt_stdio_stream@@QBE_NXZ 10059ae0 f i libucrtd:_sftbuf.obj
 0001:00058b00       ?set_flags@__crt_stdio_stream@@QBE_NJ@Z 10059b00 f i libucrtd:_sftbuf.obj
 0001:00058b50       ?unset_flags@__crt_stdio_stream@@QBE_NJ@Z 10059b50 f i libucrtd:_sftbuf.obj
 0001:00058ba0       ___acrt_should_use_temporary_buffer 10059ba0 f   libucrtd:_sftbuf.obj
 0001:00058bf0       ___acrt_stdio_begin_temporary_buffering_nolock 10059bf0 f   libucrtd:_sftbuf.obj
 0001:00058da0       ___acrt_stdio_end_temporary_buffering_nolock 10059da0 f   libucrtd:_sftbuf.obj
 0001:00058e20       __chvalidator              10059e20 f   libucrtd:isctype.obj
 0001:00058e70       __chvalidator_l            10059e70 f   libucrtd:isctype.obj
 0001:00058ef0       __isctype                  10059ef0 f   libucrtd:isctype.obj
 0001:00058f30       __isctype_l                10059f30 f   libucrtd:isctype.obj
 0001:000590b0       __isleadbyte_fast_internal 1005a0b0 f i libucrtd:isctype.obj
 0001:000590e0       __free_base                1005a0e0 f   libucrtd:free_base.obj
 0001:00059130       __realloc_base             1005a130 f   libucrtd:realloc_base.obj
 0001:00059230       __expand                   1005a230 f   libucrtd:expand.obj
 0001:00059250       __expand_base              1005a250 f   libucrtd:expand.obj
 0001:00059380       ___acrt_update_locale_info 1005a380 f   libucrtd:locale_update.obj
 0001:000593c0       ___acrt_update_multibyte_info 1005a3c0 f   libucrtd:locale_update.obj
 0001:00059400       ?value@?$dual_state_global@J@__crt_state_management@@QAEAAJXZ 1005a400 f i libucrtd:new_mode.obj
 0001:00059420       __query_new_mode           1005a420 f   libucrtd:new_mode.obj
 0001:00059440       __set_new_mode             1005a440 f   libucrtd:new_mode.obj
 0001:000594e0       __CrtDefaultAllocHook      1005a4e0 f   libucrtd:debug_heap_hook.obj
 0001:00059500       ??$?RU__crt_locale_data@@@__crt_internal_free_policy@@QBEXQBU__crt_locale_data@@@Z 1005a500 f i libucrtd:wsetlocale.obj
 0001:00059520       ??$?RU__crt_locale_pointers@@@__crt_internal_free_policy@@QBEXQBU__crt_locale_pointers@@@Z 1005a520 f i libucrtd:wsetlocale.obj
 0001:00059b10       ??0?$__crt_unique_heap_ptr@U__crt_locale_data@@U__crt_internal_free_policy@@@@QAE@QAU__crt_locale_data@@@Z 1005ab10 f i libucrtd:wsetlocale.obj
 0001:00059b30       ??0?$__crt_unique_heap_ptr@U__crt_locale_pointers@@U__crt_internal_free_policy@@@@QAE@QAU__crt_locale_pointers@@@Z 1005ab30 f i libucrtd:wsetlocale.obj
 0001:00059b50       ??0_expandlocale_locale_name_cache@@QAE@QA_WIQAU__crt_qualified_locale_data@@@Z 1005ab50 f i libucrtd:wsetlocale.obj
 0001:00059bc0       ??1?$__crt_unique_heap_ptr@U__crt_locale_data@@U__crt_internal_free_policy@@@@QAE@XZ 1005abc0 f i libucrtd:wsetlocale.obj
 0001:00059be0       ??1?$__crt_unique_heap_ptr@U__crt_locale_pointers@@U__crt_internal_free_policy@@@@QAE@XZ 1005abe0 f i libucrtd:wsetlocale.obj
 0001:00059c00       ??1_expandlocale_locale_name_cache@@QAE@XZ 1005ac00 f i libucrtd:wsetlocale.obj
 0001:00059c60       ??B?$__crt_unique_heap_ptr@U__crt_locale_data@@U__crt_internal_free_policy@@@@QBE_NXZ 1005ac60 f i libucrtd:wsetlocale.obj
 0001:00059c80       ??B?$__crt_unique_heap_ptr@U__crt_locale_pointers@@U__crt_internal_free_policy@@@@QBE_NXZ 1005ac80 f i libucrtd:wsetlocale.obj
 0001:0005a060       ?commit_locale_name@_expandlocale_locale_name_cache@@QAEXQB_WI@Z 1005b060 f i libucrtd:wsetlocale.obj
 0001:0005a0c0       ?commit_locale_name_cache_already_updated@_expandlocale_locale_name_cache@@QAEXQB_WI@Z 1005b0c0 f i libucrtd:wsetlocale.obj
 0001:0005a120       ?detach@?$__crt_unique_heap_ptr@U__crt_locale_data@@U__crt_internal_free_policy@@@@QAEPAU__crt_locale_data@@XZ 1005b120 f i libucrtd:wsetlocale.obj
 0001:0005a150       ?detach@?$__crt_unique_heap_ptr@U__crt_locale_pointers@@U__crt_internal_free_policy@@@@QAEPAU__crt_locale_pointers@@XZ 1005b150 f i libucrtd:wsetlocale.obj
 0001:0005a180       ?get@?$__crt_unique_heap_ptr@U__crt_locale_data@@U__crt_internal_free_policy@@@@QBEPAU__crt_locale_data@@XZ 1005b180 f i libucrtd:wsetlocale.obj
 0001:0005a1a0       ?get@?$__crt_unique_heap_ptr@U__crt_locale_pointers@@U__crt_internal_free_policy@@@@QBEPAU__crt_locale_pointers@@XZ 1005b1a0 f i libucrtd:wsetlocale.obj
 0001:0005a1c0       ?is_valid@?$__crt_unique_heap_ptr@U__crt_locale_data@@U__crt_internal_free_policy@@@@QBE_NXZ 1005b1c0 f i libucrtd:wsetlocale.obj
 0001:0005a1f0       ?is_valid@?$__crt_unique_heap_ptr@U__crt_locale_pointers@@U__crt_internal_free_policy@@@@QBE_NXZ 1005b1f0 f i libucrtd:wsetlocale.obj
 0001:0005a220       ?release@?$__crt_unique_heap_ptr@U__crt_locale_data@@U__crt_internal_free_policy@@@@QAEXXZ 1005b220 f i libucrtd:wsetlocale.obj
 0001:0005a250       ?release@?$__crt_unique_heap_ptr@U__crt_locale_pointers@@U__crt_internal_free_policy@@@@QAEXXZ 1005b250 f i libucrtd:wsetlocale.obj
 0001:0005a280       ___acrt_copy_locale_name   1005b280 f   libucrtd:wsetlocale.obj
 0001:0005a320       ___acrt_set_locale_changed 1005b320 f   libucrtd:wsetlocale.obj
 0001:0005a340       ___acrt_uninitialize_locale 1005b340 f   libucrtd:wsetlocale.obj
 0001:0005a360       ___ascii_tolower           1005b360 f i libucrtd:wsetlocale.obj
 0001:0005a380       ___ascii_towlower          1005b380 f i libucrtd:wsetlocale.obj
 0001:0005a3a0       ___lc_lctowcs              1005b3a0 f   libucrtd:wsetlocale.obj
 0001:0005a450       ___lc_wcstolc              1005b450 f   libucrtd:wsetlocale.obj
 0001:0005a680       __configthreadlocale       1005b680 f   libucrtd:wsetlocale.obj
 0001:0005a800       __create_locale            1005b800 f   libucrtd:wsetlocale.obj
 0001:0005ae40       __free_locale              1005be40 f   libucrtd:wsetlocale.obj
 0001:0005af70       __get_current_locale       1005bf70 f   libucrtd:wsetlocale.obj
 0001:0005b040       __wcreate_locale           1005c040 f   libucrtd:wsetlocale.obj
 0001:0005b280       __wcscats                  1005c280 f   libucrtd:wsetlocale.obj
 0001:0005b300       __wsetlocale               1005c300 f   libucrtd:wsetlocale.obj
 0001:0005c9f0       __CrtGetDebugFillThreshold 1005d9f0 f   libucrtd:debug_fill_threshold.obj
 0001:0005ca00       __CrtSetDebugFillThreshold 1005da00 f   libucrtd:debug_fill_threshold.obj
 0001:0005cbd0       ___acrt_report_runtime_error 1005dbd0 f   libucrtd:report_runtime_error.obj
 0001:0005cdc0       __query_app_type           1005ddc0 f   libucrtd:report_runtime_error.obj
 0001:0005cdd0       __set_app_type             1005ddd0 f   libucrtd:report_runtime_error.obj
 0001:0005cde0       ??$make_c_string_character_source@DPAPAD@__crt_strtox@@YA?AV?$c_string_character_source@D@0@QBDQAPAD@Z 1005dde0 f i libucrtd:strtox.obj
 0001:0005ce00       ??$make_c_string_character_source@_WPAPA_W@__crt_strtox@@YA?AV?$c_string_character_source@_W@0@QB_WQAPA_W@Z 1005de00 f i libucrtd:strtox.obj
 0001:0005ce20       ??$parse_integer_from_string@JDPAPAD@__crt_strtox@@YAJQBDQAPADHQAU__crt_locale_pointers@@@Z 1005de20 f i libucrtd:strtox.obj
 0001:0005ce60       ??$parse_integer_from_string@J_WPAPA_W@__crt_strtox@@YAJQB_WQAPA_WHQAU__crt_locale_pointers@@@Z 1005de60 f i libucrtd:strtox.obj
 0001:0005cea0       ??$parse_integer_from_string@KDPAPAD@__crt_strtox@@YAKQBDQAPADHQAU__crt_locale_pointers@@@Z 1005dea0 f i libucrtd:strtox.obj
 0001:0005cee0       ??$parse_integer_from_string@K_WPAPA_W@__crt_strtox@@YAKQB_WQAPA_WHQAU__crt_locale_pointers@@@Z 1005dee0 f i libucrtd:strtox.obj
 0001:0005cf20       ??$parse_integer_from_string@_JDPAPAD@__crt_strtox@@YA_JQBDQAPADHQAU__crt_locale_pointers@@@Z 1005df20 f i libucrtd:strtox.obj
 0001:0005cf60       ??$parse_integer_from_string@_J_WPAPA_W@__crt_strtox@@YA_JQB_WQAPA_WHQAU__crt_locale_pointers@@@Z 1005df60 f i libucrtd:strtox.obj
 0001:0005cfa0       ??$parse_integer_from_string@_KDPAPAD@__crt_strtox@@YA_KQBDQAPADHQAU__crt_locale_pointers@@@Z 1005dfa0 f i libucrtd:strtox.obj
 0001:0005cfe0       ??$parse_integer_from_string@_K_WPAPA_W@__crt_strtox@@YA_KQB_WQAPA_WHQAU__crt_locale_pointers@@@Z 1005dfe0 f i libucrtd:strtox.obj
 0001:0005d020       __strtoi64                 1005e020 f   libucrtd:strtox.obj
 0001:0005d040       __strtoi64_l               1005e040 f   libucrtd:strtox.obj
 0001:0005d060       __strtoimax_l              1005e060 f   libucrtd:strtox.obj
 0001:0005d080       __strtol_l                 1005e080 f   libucrtd:strtox.obj
 0001:0005d0a0       __strtoll_l                1005e0a0 f   libucrtd:strtox.obj
 0001:0005d0c0       __strtoui64                1005e0c0 f   libucrtd:strtox.obj
 0001:0005d0e0       __strtoui64_l              1005e0e0 f   libucrtd:strtox.obj
 0001:0005d100       __strtoul_l                1005e100 f   libucrtd:strtox.obj
 0001:0005d120       __strtoull_l               1005e120 f   libucrtd:strtox.obj
 0001:0005d140       __strtoumax_l              1005e140 f   libucrtd:strtox.obj
 0001:0005d160       __wcstoi64                 1005e160 f   libucrtd:strtox.obj
 0001:0005d180       __wcstoi64_l               1005e180 f   libucrtd:strtox.obj
 0001:0005d1a0       __wcstoimax_l              1005e1a0 f   libucrtd:strtox.obj
 0001:0005d1c0       __wcstol_l                 1005e1c0 f   libucrtd:strtox.obj
 0001:0005d1e0       __wcstoll_l                1005e1e0 f   libucrtd:strtox.obj
 0001:0005d200       __wcstoui64                1005e200 f   libucrtd:strtox.obj
 0001:0005d220       __wcstoui64_l              1005e220 f   libucrtd:strtox.obj
 0001:0005d240       __wcstoul_l                1005e240 f   libucrtd:strtox.obj
 0001:0005d260       __wcstoull_l               1005e260 f   libucrtd:strtox.obj
 0001:0005d280       __wcstoumax_l              1005e280 f   libucrtd:strtox.obj
 0001:0005d2a0       _strtoimax                 1005e2a0 f   libucrtd:strtox.obj
 0001:0005d2c0       _strtol                    1005e2c0 f   libucrtd:strtox.obj
 0001:0005d2e0       _strtoll                   1005e2e0 f   libucrtd:strtox.obj
 0001:0005d300       _strtoul                   1005e300 f   libucrtd:strtox.obj
 0001:0005d320       _strtoull                  1005e320 f   libucrtd:strtox.obj
 0001:0005d340       _strtoumax                 1005e340 f   libucrtd:strtox.obj
 0001:0005d360       _wcstoimax                 1005e360 f   libucrtd:strtox.obj
 0001:0005d380       _wcstol                    1005e380 f   libucrtd:strtox.obj
 0001:0005d3a0       _wcstoll                   1005e3a0 f   libucrtd:strtox.obj
 0001:0005d3c0       _wcstoul                   1005e3c0 f   libucrtd:strtox.obj
 0001:0005d3e0       _wcstoull                  1005e3e0 f   libucrtd:strtox.obj
 0001:0005d400       _wcstoumax                 1005e400 f   libucrtd:strtox.obj
 0001:0005d420       __mbtowc_l                 1005e420 f   libucrtd:mbtowc.obj
 0001:0005d740       _mbtowc                    1005e740 f   libucrtd:mbtowc.obj
 0001:0005d760       __wctomb_l                 1005e760 f   libucrtd:wctomb.obj
 0001:0005d7e0       __wctomb_s_l               1005e7e0 f   libucrtd:wctomb.obj
 0001:0005dba0       _wctomb                    1005eba0 f   libucrtd:wctomb.obj
 0001:0005dbf0       _wctomb_s                  1005ebf0 f   libucrtd:wctomb.obj
 0001:0005dc20       ?__acrt_fp_classify@@YA?AW4__acrt_fp_class@@ABN@Z 1005ec20 f i libucrtd:cvt.obj
 0001:0005dd40       ?__acrt_fp_is_negative@@YA_NABN@Z 1005ed40 f i libucrtd:cvt.obj
 0001:0005f030       ?strrchr@@YAPADQADH@Z      10060030 f i libucrtd:cvt.obj
 0001:0005f050       ___acrt_fp_format          10060050 f   libucrtd:cvt.obj
 0001:0005f510       __fputwc_nolock            10060510 f   libucrtd:fputwc.obj
 0001:0005f700       __fputwchar                10060700 f   libucrtd:fputwc.obj
 0001:0005f720       __putwc_nolock             10060720 f   libucrtd:fputwc.obj
 0001:0005f740       _fputwc                    10060740 f   libucrtd:fputwc.obj
 0001:0005f850       _putwc                     10060850 f   libucrtd:fputwc.obj
 0001:0005f870       _putwchar                  10060870 f   libucrtd:fputwc.obj
 0001:0005f890       ?lowio_handle@__crt_stdio_stream@@QBEHXZ 10060890 f i libucrtd:fileno.obj
 0001:0005f8b0       __fileno                   100608b0 f   libucrtd:fileno.obj
 0001:0005f950       ??$?RPAU__crt_stdio_stream_data@@@__crt_internal_free_policy@@QBEXQBQAU__crt_stdio_stream_data@@@Z 10060950 f i libucrtd:_file.obj
 0001:0005f970       ??0?$__crt_unique_heap_ptr@PAU__crt_stdio_stream_data@@U__crt_internal_free_policy@@@@QAE@QAPAU__crt_stdio_stream_data@@@Z 10060970 f i libucrtd:_file.obj
 0001:0005f990       ??1?$__crt_unique_heap_ptr@PAU__crt_stdio_stream_data@@U__crt_internal_free_policy@@@@QAE@XZ 10060990 f i libucrtd:_file.obj
 0001:0005f9b0       ?detach@?$__crt_unique_heap_ptr@PAU__crt_stdio_stream_data@@U__crt_internal_free_policy@@@@QAEPAPAU__crt_stdio_stream_data@@XZ 100609b0 f i libucrtd:_file.obj
 0001:0005f9e0       ?release@?$__crt_unique_heap_ptr@PAU__crt_stdio_stream_data@@U__crt_internal_free_policy@@@@QAEXXZ 100609e0 f i libucrtd:_file.obj
 0001:0005fa10       ___acrt_initialize_stdio   10060a10 f   libucrtd:_file.obj
 0001:0005fb80       ___acrt_iob_func           10060b80 f   libucrtd:_file.obj
 0001:0005fb90       ___acrt_uninitialize_stdio 10060b90 f   libucrtd:_file.obj
 0001:0005fc10       __get_stream_buffer_pointers 10060c10 f   libucrtd:_file.obj
 0001:0005fcf0       __lock_file                10060cf0 f   libucrtd:_file.obj
 0001:0005fd20       __unlock_file              10060d20 f   libucrtd:_file.obj
 0001:0005fd50       __fputc_nolock             10060d50 f   libucrtd:fputc.obj
 0001:0005fde0       __fputchar                 10060de0 f   libucrtd:fputc.obj
 0001:0005fe00       __putc_nolock              10060e00 f   libucrtd:fputc.obj
 0001:0005fe20       _fputc                     10060e20 f   libucrtd:fputc.obj
 0001:00060060       _putc                      10061060 f   libucrtd:fputc.obj
 0001:00060080       _putchar                   10061080 f   libucrtd:fputc.obj
 0001:000600a0       __get_printf_count_output  100610a0 f   libucrtd:printf_count_output.obj
 0001:000600d0       __set_printf_count_output  100610d0 f   libucrtd:printf_count_output.obj
 0001:00060130       __iswctype_l               10061130 f   libucrtd:iswctype.obj
 0001:00060150       _iswctype                  10061150 f   libucrtd:iswctype.obj
 0001:000601c0       ___acrt_add_locale_ref     100611c0 f   libucrtd:locale_refcounting.obj
 0001:000602d0       ___acrt_free_locale        100612d0 f   libucrtd:locale_refcounting.obj
 0001:000605a0       ___acrt_locale_add_lc_time_reference 100615a0 f   libucrtd:locale_refcounting.obj
 0001:000605e0       ___acrt_locale_free_lc_time_if_unreferenced 100615e0 f   libucrtd:locale_refcounting.obj
 0001:00060630       ___acrt_locale_release_lc_time_reference 10061630 f   libucrtd:locale_refcounting.obj
 0001:00060660       ___acrt_release_locale_ref 10061660 f   libucrtd:locale_refcounting.obj
 0001:00060770       ___acrt_update_thread_locale_data 10061770 f   libucrtd:locale_refcounting.obj
 0001:00060850       __updatetlocinfoEx_nolock  10061850 f   libucrtd:locale_refcounting.obj
 0001:000619f0       __i64toa                   100629f0 f   libucrtd:xtoa.obj
 0001:00061a40       __i64toa_s                 10062a40 f   libucrtd:xtoa.obj
 0001:00061a90       __i64tow                   10062a90 f   libucrtd:xtoa.obj
 0001:00061ae0       __i64tow_s                 10062ae0 f   libucrtd:xtoa.obj
 0001:00061b30       __itoa                     10062b30 f   libucrtd:xtoa.obj
 0001:00061b80       __itoa_s                   10062b80 f   libucrtd:xtoa.obj
 0001:00061bd0       __itow                     10062bd0 f   libucrtd:xtoa.obj
 0001:00061c20       __itow_s                   10062c20 f   libucrtd:xtoa.obj
 0001:00061c70       __ltoa                     10062c70 f   libucrtd:xtoa.obj
 0001:00061cc0       __ltoa_s                   10062cc0 f   libucrtd:xtoa.obj
 0001:00061d10       __ltow                     10062d10 f   libucrtd:xtoa.obj
 0001:00061d60       __ltow_s                   10062d60 f   libucrtd:xtoa.obj
 0001:00061db0       __ui64toa                  10062db0 f   libucrtd:xtoa.obj
 0001:00061de0       __ui64toa_s                10062de0 f   libucrtd:xtoa.obj
 0001:00061e10       __ui64tow                  10062e10 f   libucrtd:xtoa.obj
 0001:00061e40       __ui64tow_s                10062e40 f   libucrtd:xtoa.obj
 0001:00061e70       __ultoa                    10062e70 f   libucrtd:xtoa.obj
 0001:00061ea0       __ultoa_s                  10062ea0 f   libucrtd:xtoa.obj
 0001:00061ed0       __ultow                    10062ed0 f   libucrtd:xtoa.obj
 0001:00061f00       __ultow_s                  10062f00 f   libucrtd:xtoa.obj
 0001:00062310       __mbstowcs_l               10063310 f   libucrtd:mbstowcs.obj
 0001:00062330       __mbstowcs_s_l             10063330 f   libucrtd:mbstowcs.obj
 0001:000626f0       _mbstowcs                  100636f0 f   libucrtd:mbstowcs.obj
 0001:00062740       _mbstowcs_s                10063740 f   libucrtd:mbstowcs.obj
 0001:00062e30       __wcstombs_l               10063e30 f   libucrtd:wcstombs.obj
 0001:00062e50       __wcstombs_s_l             10063e50 f   libucrtd:wcstombs.obj
 0001:000631c0       _wcstombs                  100641c0 f   libucrtd:wcstombs.obj
 0001:000631e0       _wcstombs_s                100641e0 f   libucrtd:wcstombs.obj
 0001:00063630       _wcscat_s                  10064630 f   libucrtd:wcscat_s.obj
 0001:00063a60       _strcat_s                  10064a60 f   libucrtd:strcat_s.obj
 0001:00063a80       ___acrt_OutputDebugStringA@4 10064a80 f   libucrtd:outputdebugstringa.obj
 0001:00063b30       __fFEXP                    10064b30 f   libucrtd:87tran.obj
 0001:00063b87       __rtinfpopse               10064b87     libucrtd:87tran.obj
 0001:00063b89       __rtinfnpopse              10064b89     libucrtd:87tran.obj
 0001:00063b99       __fFLN                     10064b99     libucrtd:87tran.obj
 0001:00063c4e       __rtinfpop                 10064c4e     libucrtd:87tran.obj
 0001:00063c50       __rtinfnpop                10064c50     libucrtd:87tran.obj
 0001:00063c60       __rtforexpinf              10064c60 f   libucrtd:87tran.obj
 0001:00063c6d       __ffexpm1                  10064c6d     libucrtd:87tran.obj
 0001:00063d20       __cintrindisp2             10064d20 f   libucrtd:87cdisp.obj
 0001:00063d70       __cintrindisp1             10064d70 f   libucrtd:87cdisp.obj
 0001:00063db9       __ctrandisp2               10064db9 f   libucrtd:87cdisp.obj
 0001:00063f48       __ctrandisp1               10064f48 f   libucrtd:87cdisp.obj
 0001:00063f7b       __fload                    10064f7b f   libucrtd:87cdisp.obj
 0001:00063fc0       ___libm_error_support      10064fc0 f   libucrtd:libm_error.obj
 0001:00064580       ___libm_setusermatherr     10065580 f   libucrtd:libm_error.obj
 0001:000645c0       __trandisp1                100655c0 f   libucrtd:87disp.obj
 0001:00064635       __trandisp2                10065635 f   libucrtd:87disp.obj
 0001:000646cf       __rttospopde               100656cf     libucrtd:87disp.obj
 0001:000646d4       __rttospop                 100656d4     libucrtd:87disp.obj
 0001:000646e0       __rtnospop                 100656e0 f   libucrtd:87disp.obj
 0001:000646f0       __rttosnpop                100656f0 f   libucrtd:87disp.obj
 0001:000646f1       __rtnospopde               100656f1     libucrtd:87disp.obj
 0001:000646f8       __rtzeropop                100656f8     libucrtd:87disp.obj
 0001:000646fa       __rtzeronpop               100656fa     libucrtd:87disp.obj
 0001:00064700       __rtzerospop               10065700 f   libucrtd:87disp.obj
 0001:0006470d       __rtonepop                 1006570d     libucrtd:87disp.obj
 0001:00064710       __rtonenpop                10065710 f   libucrtd:87disp.obj
 0001:00064720       __tosnan1                  10065720 f   libucrtd:87disp.obj
 0001:00064750       __nosnan2                  10065750 f   libucrtd:87disp.obj
 0001:00064760       __tosnan2                  10065760 f   libucrtd:87disp.obj
 0001:00064790       __nan2                     10065790 f   libucrtd:87disp.obj
 0001:000647d0       __rtindfpop                100657d0 f   libucrtd:87disp.obj
 0001:000647d2       __rtindfnpop               100657d2     libucrtd:87disp.obj
 0001:000647e3       __rttosnpopde              100657e3     libucrtd:87disp.obj
 0001:000647f0       __rtatan2inf               100657f0 f   libucrtd:87disp.obj
 0001:0006480d       __rtchsifneg               1006580d     libucrtd:87disp.obj
 0001:00064820       ___setfflag                10065820 f   libucrtd:fp_flags.obj
 0001:00064840       __startTwoArgErrorHandling 10065840 f   libucrtd:genexcep.obj
 0001:00064857       __startOneArgErrorHandling 10065857 f   libucrtd:genexcep.obj
 0001:000648a0       __d_inttype                100658a0 f   libucrtd:powhlp.obj
 0001:00064930       __powhlp                   10065930 f   libucrtd:powhlp.obj
 0001:00064bd0       ___acrt_DownlevelLCIDToLocaleName 10065bd0 f   libucrtd:lcidtoname_downlevel.obj
 0001:00064ca0       ___acrt_DownlevelLocaleNameToLCID 10065ca0 f   libucrtd:lcidtoname_downlevel.obj
 0001:00064e00       _qsort                     10065e00 f   libucrtd:qsort.obj
 0001:000658c0       _wcsncpy_s                 100668c0 f   libucrtd:wcsncpy_s.obj
 0001:000658e0       _wcspbrk                   100668e0 f   libucrtd:wcspbrk.obj
 0001:00065d50       _strncpy_s                 10066d50 f   libucrtd:strncpy_s.obj
 0001:00065d70       _strpbrk                   10066d70 f   libucrtd:strpbrk.obj
 0001:00065db0       __mbsdec                   10066db0 f   libucrtd:mbsdec.obj
 0001:00065dc7       __mbsdec_l                 10066dc7 f   libucrtd:mbsdec.obj
 0001:00065eb0       ??0?$__crt_scoped_stack_ptr@_W@@QAE@U?$__crt_scoped_stack_ptr_tag@_W@@@Z 10066eb0 f i libucrtd:getstringtypea.obj
 0001:00065ed0       ??0?$__crt_scoped_stack_ptr_tag@_W@@QAE@QA_W@Z 10066ed0 f i libucrtd:getstringtypea.obj
 0001:00065ef0       ??1?$__crt_scoped_stack_ptr@_W@@QAE@XZ 10066ef0 f i libucrtd:getstringtypea.obj
 0001:00065f10       ?get@?$__crt_scoped_stack_ptr@_W@@QBEPA_WXZ 10066f10 f i libucrtd:getstringtypea.obj
 0001:00065f30       __MallocaComputeSize       10066f30 f i libucrtd:getstringtypea.obj
 0001:00065f60       __MarkAllocaS              10066f60 f i libucrtd:getstringtypea.obj
 0001:00065f90       ___acrt_GetStringTypeA     10066f90 f   libucrtd:getstringtypea.obj
 0001:00066140       __freea_crt                10067140 f i libucrtd:getstringtypea.obj
 0001:000661b0       ??B?$__crt_scoped_stack_ptr@_W@@QBE_NXZ 100671b0 f i libucrtd:lcmapstringa.obj
 0001:000665a0       ___acrt_LCMapStringA       100675a0 f   libucrtd:lcmapstringa.obj
 0001:00066630       __wcsnicoll                10067630 f   libucrtd:wcsnicol.obj
 0001:000667f0       __wcsnicoll_l              100677f0 f   libucrtd:wcsnicol.obj
 0001:00066a40       __strnicoll                10067a40 f   libucrtd:strnicol.obj
 0001:00066a90       __strnicoll_l              10067a90 f   libucrtd:strnicol.obj
 0001:00066eb0       ___acrt_SetEnvironmentVariableA 10067eb0 f   libucrtd:setenvironmentvariablea.obj
 0001:00066f70       ??$?RU__crt_lowio_handle_data@@@__crt_internal_free_policy@@QBEXQBU__crt_lowio_handle_data@@@Z 10067f70 f i libucrtd:osfinfo.obj
 0001:00066f90       ??0?$__crt_unique_heap_ptr@U__crt_lowio_handle_data@@U__crt_internal_free_policy@@@@QAE@QAU__crt_lowio_handle_data@@@Z 10067f90 f i libucrtd:osfinfo.obj
 0001:00066fb0       ??1?$__crt_unique_heap_ptr@U__crt_lowio_handle_data@@U__crt_internal_free_policy@@@@QAE@XZ 10067fb0 f i libucrtd:osfinfo.obj
 0001:00066fd0       ??B?$__crt_unique_heap_ptr@U__crt_lowio_handle_data@@U__crt_internal_free_policy@@@@QBE_NXZ 10067fd0 f i libucrtd:osfinfo.obj
 0001:00066ff0       ?detach@?$__crt_unique_heap_ptr@U__crt_lowio_handle_data@@U__crt_internal_free_policy@@@@QAEPAU__crt_lowio_handle_data@@XZ 10067ff0 f i libucrtd:osfinfo.obj
 0001:00067020       ?get@?$__crt_unique_heap_ptr@U__crt_lowio_handle_data@@U__crt_internal_free_policy@@@@QBEPAU__crt_lowio_handle_data@@XZ 10068020 f i libucrtd:osfinfo.obj
 0001:00067040       ?is_valid@?$__crt_unique_heap_ptr@U__crt_lowio_handle_data@@U__crt_internal_free_policy@@@@QBE_NXZ 10068040 f i libucrtd:osfinfo.obj
 0001:00067070       ?release@?$__crt_unique_heap_ptr@U__crt_lowio_handle_data@@U__crt_internal_free_policy@@@@QAEXXZ 10068070 f i libucrtd:osfinfo.obj
 0001:000670a0       ___acrt_lowio_create_handle_array 100680a0 f   libucrtd:osfinfo.obj
 0001:00067200       ___acrt_lowio_destroy_handle_array 10068200 f   libucrtd:osfinfo.obj
 0001:00067260       ___acrt_lowio_ensure_fh_exists 10068260 f   libucrtd:osfinfo.obj
 0001:000673c0       ___acrt_lowio_lock_fh      100683c0 f   libucrtd:osfinfo.obj
 0001:000673f0       ___acrt_lowio_set_os_handle 100683f0 f   libucrtd:osfinfo.obj
 0001:000674c0       ___acrt_lowio_unlock_fh    100684c0 f   libucrtd:osfinfo.obj
 0001:000674f0       __alloc_osfhnd             100684f0 f   libucrtd:osfinfo.obj
 0001:000676d0       __free_osfhnd              100686d0 f   libucrtd:osfinfo.obj
 0001:000677c0       __get_osfhandle            100687c0 f   libucrtd:osfinfo.obj
 0001:00067940       __open_osfhandle           10068940 f   libucrtd:osfinfo.obj
 0001:00067b40       _localeconv                10068b40 f   libucrtd:localeconv.obj
 0001:00067b80       ___pctype_func             10068b80 f   libucrtd:ctype.obj
 0001:00067bc0       ___pwctype_func            10068bc0 f   libucrtd:ctype.obj
 0001:00067bd0       __isatty                   10068bd0 f   libucrtd:isatty.obj
 0001:00068040       ??0__crt_stdio_stream@@QAE@QAU__crt_stdio_stream_data@@@Z 10069040 f i libucrtd:fflush.obj
 0001:00068270       ?__acrt_stdio_reset_buffer@@YAXV__crt_stdio_stream@@@Z 10069270 f i libucrtd:fflush.obj
 0001:00068370       ?has_all_of@__crt_stdio_stream@@QBE_NJ@Z 10069370 f i libucrtd:fflush.obj
 0001:00068440       ___acrt_stdio_flush_nolock 10069440 f   libucrtd:fflush.obj
 0001:00068510       __fflush_nolock            10069510 f   libucrtd:fflush.obj
 0001:00068590       __flushall                 10069590 f   libucrtd:fflush.obj
 0001:000685b0       _fflush                    100695b0 f   libucrtd:fflush.obj
 0001:00068620       __malloc_base              10069620 f   libucrtd:malloc_base.obj
 0001:000686b0       ??$?RG@__crt_internal_free_policy@@QBEXQBG@Z 100696b0 f i libucrtd:initctype.obj
 0001:000686d0       ??$?RJ@__crt_internal_free_policy@@QBEXQBJ@Z 100696d0 f i libucrtd:initctype.obj
 0001:000686f0       ??0?$__crt_unique_heap_ptr@GU__crt_internal_free_policy@@@@QAE@QAG@Z 100696f0 f i libucrtd:initctype.obj
 0001:00068710       ??0?$__crt_unique_heap_ptr@JU__crt_internal_free_policy@@@@QAE@QAJ@Z 10069710 f i libucrtd:initctype.obj
 0001:00068730       ??1?$__crt_unique_heap_ptr@GU__crt_internal_free_policy@@@@QAE@XZ 10069730 f i libucrtd:initctype.obj
 0001:00068750       ??1?$__crt_unique_heap_ptr@JU__crt_internal_free_policy@@@@QAE@XZ 10069750 f i libucrtd:initctype.obj
 0001:00068770       ?detach@?$__crt_unique_heap_ptr@GU__crt_internal_free_policy@@@@QAEPAGXZ 10069770 f i libucrtd:initctype.obj
 0001:000687a0       ?detach@?$__crt_unique_heap_ptr@JU__crt_internal_free_policy@@@@QAEPAJXZ 100697a0 f i libucrtd:initctype.obj
 0001:000687d0       ?release@?$__crt_unique_heap_ptr@GU__crt_internal_free_policy@@@@QAEXXZ 100697d0 f i libucrtd:initctype.obj
 0001:00068800       ?release@?$__crt_unique_heap_ptr@JU__crt_internal_free_policy@@@@QAEXXZ 10069800 f i libucrtd:initctype.obj
 0001:00068830       ____lc_codepage_func       10069830 f   libucrtd:initctype.obj
 0001:00068870       ____lc_collate_cp_func     10069870 f   libucrtd:initctype.obj
 0001:000688b0       ____lc_locale_name_func    100698b0 f   libucrtd:initctype.obj
 0001:000688f0       ____mb_cur_max_func        100698f0 f   libucrtd:initctype.obj
 0001:00068930       ____mb_cur_max_l_func      10069930 f   libucrtd:initctype.obj
 0001:00068960       ___acrt_locale_initialize_ctype 10069960 f   libucrtd:initctype.obj
 0001:000690e0       ??$?RUlconv@@@__crt_internal_free_policy@@QBEXQBUlconv@@@Z 1006a0e0 f i libucrtd:initmon.obj
 0001:00069100       ??0?$__crt_unique_heap_ptr@Ulconv@@U__crt_internal_free_policy@@@@QAE@QAUlconv@@@Z 1006a100 f i libucrtd:initmon.obj
 0001:00069120       ??1?$__crt_unique_heap_ptr@Ulconv@@U__crt_internal_free_policy@@@@QAE@XZ 1006a120 f i libucrtd:initmon.obj
 0001:00069140       ?detach@?$__crt_unique_heap_ptr@Ulconv@@U__crt_internal_free_policy@@@@QAEPAUlconv@@XZ 1006a140 f i libucrtd:initmon.obj
 0001:00069170       ?release@?$__crt_unique_heap_ptr@Ulconv@@U__crt_internal_free_policy@@@@QAEXXZ 1006a170 f i libucrtd:initmon.obj
 0001:000691a0       ___acrt_locale_free_monetary 1006a1a0 f   libucrtd:initmon.obj
 0001:00069350       ___acrt_locale_initialize_monetary 1006a350 f   libucrtd:initmon.obj
 0001:000699f0       ___acrt_locale_free_numeric 1006a9f0 f   libucrtd:initnum.obj
 0001:00069aa0       ___acrt_locale_initialize_numeric 1006aaa0 f   libucrtd:initnum.obj
 0001:00069ef0       ??$?RU__crt_lc_time_data@@@__crt_internal_free_policy@@QBEXQBU__crt_lc_time_data@@@Z 1006aef0 f i libucrtd:inittime.obj
 0001:00069fd0       ??0?$__crt_unique_heap_ptr@U__crt_lc_time_data@@U__crt_internal_free_policy@@@@QAE@QAU__crt_lc_time_data@@@Z 1006afd0 f i libucrtd:inittime.obj
 0001:00069ff0       ??1?$__crt_unique_heap_ptr@U__crt_lc_time_data@@U__crt_internal_free_policy@@@@QAE@XZ 1006aff0 f i libucrtd:inittime.obj
 0001:0006a010       ??B?$__crt_unique_heap_ptr@U__crt_lc_time_data@@U__crt_internal_free_policy@@@@QBE_NXZ 1006b010 f i libucrtd:inittime.obj
 0001:0006a030       ?detach@?$__crt_unique_heap_ptr@U__crt_lc_time_data@@U__crt_internal_free_policy@@@@QAEPAU__crt_lc_time_data@@XZ 1006b030 f i libucrtd:inittime.obj
 0001:0006a0a0       ?get@?$__crt_unique_heap_ptr@U__crt_lc_time_data@@U__crt_internal_free_policy@@@@QBEPAU__crt_lc_time_data@@XZ 1006b0a0 f i libucrtd:inittime.obj
 0001:0006a570       ?is_valid@?$__crt_unique_heap_ptr@U__crt_lc_time_data@@U__crt_internal_free_policy@@@@QBE_NXZ 1006b570 f i libucrtd:inittime.obj
 0001:0006a5a0       ?release@?$__crt_unique_heap_ptr@U__crt_lc_time_data@@U__crt_internal_free_policy@@@@QAEXXZ 1006b5a0 f i libucrtd:inittime.obj
 0001:0006a5d0       ___acrt_locale_free_time   1006b5d0 f   libucrtd:inittime.obj
 0001:0006a720       ___acrt_locale_initialize_time 1006b720 f   libucrtd:inittime.obj
 0001:0006ac70       _wcsncat_s                 1006bc70 f   libucrtd:wcsncat_s.obj
 0001:0006ac90       _wcscmp                    1006bc90 f   libucrtd:wcscmp.obj
 0001:0006ad10       _wcscspn                   1006bd10 f   libucrtd:wcscspn.obj
 0001:0006b8e0       ___acrt_get_qualified_locale 1006c8e0 f   libucrtd:get_qualified_locale.obj
 0001:0006c8f0       ___acrt_get_qualified_locale_downlevel 1006d8f0 f   libucrtd:getqloc_downlevel.obj
 0001:0006cb90       __set_error_mode           1006db90 f   libucrtd:set_error_mode.obj
 0001:0006cc50       ___iswcsym                 1006dc50 f i libucrtd:_wctype.obj
 0001:0006cc90       ___iswcsymf                1006dc90 f i libucrtd:_wctype.obj
 0001:0006ccd0       __isleadbyte_l             1006dcd0 f i libucrtd:_wctype.obj
 0001:0006cd20       __iswalnum_l               1006dd20 f i libucrtd:_wctype.obj
 0001:0006cd40       __iswalpha_l               1006dd40 f i libucrtd:_wctype.obj
 0001:0006cd60       __iswblank_l               1006dd60 f i libucrtd:_wctype.obj
 0001:0006cda0       __iswcntrl_l               1006dda0 f i libucrtd:_wctype.obj
 0001:0006cdc0       __iswcsym_l                1006ddc0 f i libucrtd:_wctype.obj
 0001:0006ce00       __iswcsymf_l               1006de00 f i libucrtd:_wctype.obj
 0001:0006ce40       __iswdigit_l               1006de40 f i libucrtd:_wctype.obj
 0001:0006ce60       __iswgraph_l               1006de60 f i libucrtd:_wctype.obj
 0001:0006ce80       __iswlower_l               1006de80 f i libucrtd:_wctype.obj
 0001:0006cea0       __iswprint_l               1006dea0 f i libucrtd:_wctype.obj
 0001:0006cec0       __iswpunct_l               1006dec0 f i libucrtd:_wctype.obj
 0001:0006cee0       __iswspace_l               1006dee0 f i libucrtd:_wctype.obj
 0001:0006cf00       __iswupper_l               1006df00 f i libucrtd:_wctype.obj
 0001:0006cf20       __iswxdigit_l              1006df20 f i libucrtd:_wctype.obj
 0001:0006cf40       _isleadbyte                1006df40 f i libucrtd:_wctype.obj
 0001:0006cf60       _iswalnum                  1006df60 f i libucrtd:_wctype.obj
 0001:0006cf80       _iswalpha                  1006df80 f i libucrtd:_wctype.obj
 0001:0006cfa0       _iswascii                  1006dfa0 f i libucrtd:_wctype.obj
 0001:0006cfd0       _iswblank                  1006dfd0 f i libucrtd:_wctype.obj
 0001:0006d010       _iswcntrl                  1006e010 f i libucrtd:_wctype.obj
 0001:0006d030       _iswdigit                  1006e030 f i libucrtd:_wctype.obj
 0001:0006d050       _iswgraph                  1006e050 f i libucrtd:_wctype.obj
 0001:0006d070       _iswlower                  1006e070 f i libucrtd:_wctype.obj
 0001:0006d090       _iswprint                  1006e090 f i libucrtd:_wctype.obj
 0001:0006d0b0       _iswpunct                  1006e0b0 f i libucrtd:_wctype.obj
 0001:0006d0d0       _iswspace                  1006e0d0 f i libucrtd:_wctype.obj
 0001:0006d0f0       _iswupper                  1006e0f0 f i libucrtd:_wctype.obj
 0001:0006d110       _iswxdigit                 1006e110 f i libucrtd:_wctype.obj
 0001:0006d1a0       ?__mbrtowc_utf8@__crt_mbstring@@YAIPA_WPBDIPAU_Mbstatet@@@Z 1006e1a0 f   libucrtd:mbrtowc.obj
 0001:0006d1f0       ?__mbsrtowcs_utf8@__crt_mbstring@@YAIPA_WPAPBDIPAU_Mbstatet@@@Z 1006e1f0 f   libucrtd:mbrtowc.obj
 0001:0006da60       _btowc                     1006ea60 f   libucrtd:mbrtowc.obj
 0001:0006dad0       _mbrlen                    1006ead0 f   libucrtd:mbrtowc.obj
 0001:0006db20       _mbrtowc                   1006eb20 f   libucrtd:mbrtowc.obj
 0001:0006dbb0       _mbsrtowcs                 1006ebb0 f   libucrtd:mbrtowc.obj
 0001:0006dbd0       _mbsrtowcs_s               1006ebd0 f   libucrtd:mbrtowc.obj
 0001:0006df20       ?__c32rtomb_utf8@__crt_mbstring@@YAIPAD_UPAU_Mbstatet@@@Z 1006ef20 f   libucrtd:c32rtomb.obj
 0001:0006e100       ?reset_and_return@__crt_mbstring@@YAIIPAU_Mbstatet@@@Z 1006f100 f i libucrtd:c32rtomb.obj
 0001:0006e130       ?return_illegal_sequence@__crt_mbstring@@YAIPAU_Mbstatet@@@Z 1006f130 f i libucrtd:c32rtomb.obj
 0001:0006e160       _c32rtomb                  1006f160 f   libucrtd:c32rtomb.obj
 0001:0006e2d0       ___acrt_fp_strflt_to_string 1006f2d0 f   libucrtd:_fptostr.obj
 0001:0006ec90       ??0big_integer@__crt_strtox@@QAE@ABU01@@Z 1006fc90 f i libucrtd:cfout.obj
 0001:0006ecd0       ??0big_integer@__crt_strtox@@QAE@XZ 1006fcd0 f i libucrtd:cfout.obj
 0001:0006ed90       ??4big_integer@__crt_strtox@@QAEAAU01@ABU01@@Z 1006fd90 f i libucrtd:cfout.obj
 0001:0006edd0       ??8__crt_strtox@@YA_NABUbig_integer@0@0@Z 1006fdd0 f i libucrtd:cfout.obj
 0001:0006ee30       ??9__crt_strtox@@YA_NABUbig_integer@0@0@Z 1006fe30 f i libucrtd:cfout.obj
 0001:0006ee70       ?add_carry@__crt_strtox@@YAIAAIII@Z 1006fe70 f i libucrtd:cfout.obj
 0001:0006eeb0       ?add_multiply_carry@__crt_strtox@@YAIAAIIII@Z 1006feb0 f i libucrtd:cfout.obj
 0001:0006eef0       ?bit_scan_reverse@__crt_strtox@@YAII@Z 1006fef0 f i libucrtd:cfout.obj
 0001:0006ef20       ?count_sequential_high_zeroes@__crt_strtox@@YAII@Z 1006ff20 f i libucrtd:cfout.obj
 0001:0006ef60       ?divide@__crt_strtox@@YA_KAAUbig_integer@1@ABU21@@Z 1006ff60 f i libucrtd:cfout.obj
 0001:0006f9e0       ?is_zero@__crt_strtox@@YA_NABUbig_integer@1@@Z 100709e0 f i libucrtd:cfout.obj
 0001:0006fa10       ?make_big_integer@__crt_strtox@@YA?AUbig_integer@1@_K@Z 10070a10 f i libucrtd:cfout.obj
 0001:0006fac0       ?make_big_integer_power_of_two@__crt_strtox@@YA?AUbig_integer@1@I@Z 10070ac0 f i libucrtd:cfout.obj
 0001:0006fb70       ?multiply@__crt_strtox@@YA_NAAUbig_integer@1@ABU21@@Z 10070b70 f i libucrtd:cfout.obj
 0001:0006fef0       ?multiply@__crt_strtox@@YA_NAAUbig_integer@1@I@Z 10070ef0 f i libucrtd:cfout.obj
 0001:0006ffc0       ?multiply_64_32@__crt_strtox@@YA_K_KI@Z 10070fc0 f i libucrtd:cfout.obj
 0001:0006ffe0       ?multiply_by_power_of_ten@__crt_strtox@@YA_NAAUbig_integer@1@I@Z 10070fe0 f i libucrtd:cfout.obj
 0001:00070180       ?multiply_core@__crt_strtox@@YAIQAIII@Z 10071180 f i libucrtd:cfout.obj
 0001:000701f0       ?shift_left@__crt_strtox@@YA_NAAUbig_integer@1@I@Z 100711f0 f i libucrtd:cfout.obj
 0001:000704d0       ___acrt_fltout             100714d0 f   libucrtd:cfout.obj
 0001:000708d0       ___fpe_flt_rounds          100718d0 f   libucrtd:fegetround.obj
 0001:00070930       _fegetround                10071930 f   libucrtd:fegetround.obj
 0001:00071030       ?has_big_buffer@__crt_stdio_stream@@QBE_NXZ 10072030 f i libucrtd:_flsbuf.obj
 0001:00071130       ___acrt_stdio_flush_and_write_narrow_nolock 10072130 f   libucrtd:_flsbuf.obj
 0001:00071160       ___acrt_stdio_flush_and_write_wide_nolock 10072160 f   libucrtd:_flsbuf.obj
 0001:00071190       ?is_in_use@__crt_stdio_stream@@QBE_NXZ 10072190 f i libucrtd:closeall.obj
 0001:000711d0       __fcloseall                100721d0 f   libucrtd:closeall.obj
 0001:00071300       ?has_crt_buffer@__crt_stdio_stream@@QBE_NXZ 10072300 f i libucrtd:_freebuf.obj
 0001:00071320       ___acrt_stdio_free_buffer_nolock 10072320 f   libucrtd:_freebuf.obj
 0001:000713d0       ___acrt_GetStringTypeW     100723d0 f   libucrtd:getstringtypew.obj
 0001:000713f0       ?__wcsrtombs_utf8@__crt_mbstring@@YAIPADPAPB_WIPAU_Mbstatet@@@Z 100723f0 f   libucrtd:wcrtomb.obj
 0001:00071bd0       _wcrtomb                   10072bd0 f   libucrtd:wcrtomb.obj
 0001:00071c20       _wcrtomb_s                 10072c20 f   libucrtd:wcrtomb.obj
 0001:00071d40       _wcsrtombs                 10072d40 f   libucrtd:wcrtomb.obj
 0001:00071d60       _wcsrtombs_s               10072d60 f   libucrtd:wcrtomb.obj
 0001:000720b0       _wctob                     100730b0 f   libucrtd:wcrtomb.obj
 0001:00072130       __87except                 10073130 f   libucrtd:87except.obj
 0001:00072320       __frnd                     10073320 f   libucrtd:frnd.obj
 0001:00072340       __chgsign                  10073340 f   libucrtd:ieeemisc.obj
 0001:00072380       __chgsignf                 10073380 f   libucrtd:ieeemisc.obj
 0001:000723c0       __copysign                 100733c0 f   libucrtd:ieeemisc.obj
 0001:00072400       __copysignf                10073400 f   libucrtd:ieeemisc.obj
 0001:00072450       __finite                   10073450 f   libucrtd:ieeemisc.obj
 0001:00072470       __fpclass                  10073470 f   libucrtd:ieeemisc.obj
 0001:00072570       __isnan                    10073570 f   libucrtd:ieeemisc.obj
 0001:000725c0       __logb                     100735c0 f   libucrtd:ieeemisc.obj
 0001:000726e0       __nextafter                100736e0 f   libucrtd:ieeemisc.obj
 0001:00072710       __scalb                    10073710 f   libucrtd:ieeemisc.obj
 0001:00072730       __add_exp                  10073730 f   libucrtd:util.obj
 0001:00072770       __decomp                   10073770 f   libucrtd:util.obj
 0001:000728a0       __get_exp                  100738a0 f   libucrtd:util.obj
 0001:000728d0       __set_bexp                 100738d0 f   libucrtd:util.obj
 0001:00072900       __set_exp                  10073900 f   libucrtd:util.obj
 0001:00072940       __sptype                   10073940 f   libucrtd:util.obj
 0001:000729c0       ___ascii_wcsnicmp          100739c0 f   libucrtd:wcsnicmp.obj
 0001:00072a50       __towlower_fast_internal   10073a50 f i libucrtd:wcsnicmp.obj
 0001:00072a90       __towlower_internal        10073a90 f i libucrtd:wcsnicmp.obj
 0001:00072ad0       __wcsnicmp                 10073ad0 f   libucrtd:wcsnicmp.obj
 0001:00072c10       __wcsnicmp_l               10073c10 f   libucrtd:wcsnicmp.obj
 0001:00072e10       ___strncnt                 10073e10 f   libucrtd:strncnt.obj
 0001:00072e60       ___acrt_CompareStringW     10073e60 f   libucrtd:comparestringw.obj
 0001:00072f20       __strnicmp                 10073f20 f   libucrtd:strnicmp.obj
 0001:000730e0       __strnicmp_l               100740e0 f   libucrtd:strnicmp.obj
 0001:000737b0       ___acrt_CompareStringA     100747b0 f   libucrtd:comparestringa.obj
 0001:00073a20       __commit                   10074a20 f   libucrtd:commit.obj
 0001:000750e0       __utf8_no_of_trailbytes    100760e0 f i libucrtd:write.obj
 0001:00075100       __write                    10076100 f   libucrtd:write.obj
 0001:00075350       __write_nolock             10076350 f   libucrtd:write.obj
 0001:00075920       ___acrt_GetLocaleInfoA     10076920 f   libucrtd:getlocaleinfoa.obj
 0001:00075ce0       ___ascii_wcsicmp           10076ce0 f   libucrtd:wcsicmp.obj
 0001:00075d50       __wcsicmp                  10076d50 f   libucrtd:wcsicmp.obj
 0001:00075e90       __wcsicmp_l                10076e90 f   libucrtd:wcsicmp.obj
 0001:00076070       ?__mbrtoc32_utf8@__crt_mbstring@@YAIPA_UPBDIPAU_Mbstatet@@@Z 10077070 f   libucrtd:mbrtoc32.obj
 0001:00076340       _mbrtoc32                  10077340 f   libucrtd:mbrtoc32.obj
 0001:00076360       _ceil                      10077360 f   libucrtd:ceil_pentium4.obj
 0001:000763a0       __ceil_pentium4            100773a0 f   libucrtd:ceil_pentium4.obj
 0001:00076480       __controlfp_s              10077480 f   libucrtd:contrlfp.obj
 0001:00076570       _fegetenv                  10077570 f   libucrtd:fegetenv.obj
 0001:00076590       _fesetenv                  10077590 f   libucrtd:fesetenv.obj
 0001:00076600       _feholdexcept              10077600 f   libucrtd:feholdexcept.obj
 0001:00076670       ??$__acrt_fenv_shift_bits@W4__acrt_fenv_abstract_control@@@@YA?AW4__acrt_fenv_abstract_control@@W40@0I@Z 10077670 f i libucrtd:_fenvutils.obj
 0001:00076690       ??$__acrt_fenv_shift_bits@W4__acrt_fenv_abstract_status@@@@YA?AW4__acrt_fenv_abstract_status@@W40@0I@Z 10077690 f i libucrtd:_fenvutils.obj
 0001:000766b0       ??$__acrt_fenv_translate_bit@W4__acrt_fenv_abstract_control@@W4__acrt_fenv_machine_sse_control@@@@YA?AW4__acrt_fenv_abstract_control@@W4__acrt_fenv_machine_sse_control@@0W40@1@Z 100776b0 f i libucrtd:_fenvutils.obj
 0001:000766f0       ??$__acrt_fenv_translate_bit@W4__acrt_fenv_abstract_control@@W4__acrt_fenv_machine_x87_control@@@@YA?AW4__acrt_fenv_abstract_control@@W4__acrt_fenv_machine_x87_control@@0W40@1@Z 100776f0 f i libucrtd:_fenvutils.obj
 0001:00076730       ??$__acrt_fenv_translate_bit@W4__acrt_fenv_abstract_status@@W4__acrt_fenv_machine_sse_status@@@@YA?AW4__acrt_fenv_abstract_status@@W4__acrt_fenv_machine_sse_status@@0W40@1@Z 10077730 f i libucrtd:_fenvutils.obj
 0001:00076770       ??$__acrt_fenv_translate_bit@W4__acrt_fenv_abstract_status@@W4__acrt_fenv_machine_x87_status@@@@YA?AW4__acrt_fenv_abstract_status@@W4__acrt_fenv_machine_x87_status@@0W40@1@Z 10077770 f i libucrtd:_fenvutils.obj
 0001:000767b0       ??$__acrt_fenv_translate_bit@W4__acrt_fenv_machine_sse_control@@W4__acrt_fenv_abstract_control@@@@YA?AW4__acrt_fenv_machine_sse_control@@W4__acrt_fenv_abstract_control@@0W40@1@Z 100777b0 f i libucrtd:_fenvutils.obj
 0001:000767f0       ??$__acrt_fenv_translate_bit@W4__acrt_fenv_machine_sse_status@@W4__acrt_fenv_abstract_status@@@@YA?AW4__acrt_fenv_machine_sse_status@@W4__acrt_fenv_abstract_status@@0W40@1@Z 100777f0 f i libucrtd:_fenvutils.obj
 0001:00076830       ??$__acrt_fenv_translate_bit@W4__acrt_fenv_machine_x87_control@@W4__acrt_fenv_abstract_control@@@@YA?AW4__acrt_fenv_machine_x87_control@@W4__acrt_fenv_abstract_control@@0W40@1@Z 10077830 f i libucrtd:_fenvutils.obj
 0001:00076870       ??$__acrt_fenv_translate_bit@W4__acrt_fenv_machine_x87_status@@W4__acrt_fenv_abstract_status@@@@YA?AW4__acrt_fenv_machine_x87_status@@W4__acrt_fenv_abstract_status@@0W40@1@Z 10077870 f i libucrtd:_fenvutils.obj
 0001:000768b0       ??$__acrt_fenv_unshift_bits@W4__acrt_fenv_abstract_control@@@@YA?AW4__acrt_fenv_abstract_control@@W40@0I@Z 100778b0 f i libucrtd:_fenvutils.obj
 0001:000768d0       ??$__acrt_fenv_unshift_bits@W4__acrt_fenv_abstract_status@@@@YA?AW4__acrt_fenv_abstract_status@@W40@0I@Z 100778d0 f i libucrtd:_fenvutils.obj
 0001:00077300       ??I@YA?AW4__acrt_fenv_abstract_control@@W40@0@Z 10078300 f i libucrtd:_fenvutils.obj
 0001:00077310       ??I@YA?AW4__acrt_fenv_abstract_status@@W40@0@Z 10078310 f i libucrtd:_fenvutils.obj
 0001:00077320       ??I@YA?AW4__acrt_fenv_machine_sse_control@@W40@0@Z 10078320 f i libucrtd:_fenvutils.obj
 0001:00077340       ??I@YA?AW4__acrt_fenv_machine_sse_status@@W40@0@Z 10078340 f i libucrtd:_fenvutils.obj
 0001:00077350       ??I@YA?AW4__acrt_fenv_machine_x87_control@@W40@0@Z 10078350 f i libucrtd:_fenvutils.obj
 0001:00077370       ??I@YA?AW4__acrt_fenv_machine_x87_status@@W40@0@Z 10078370 f i libucrtd:_fenvutils.obj
 0001:00077380       ??U@YA?AW4__acrt_fenv_abstract_control@@W40@0@Z 10078380 f i libucrtd:_fenvutils.obj
 0001:00077390       ??U@YA?AW4__acrt_fenv_abstract_status@@W40@0@Z 10078390 f i libucrtd:_fenvutils.obj
 0001:000773a0       ??U@YA?AW4__acrt_fenv_machine_sse_control@@W40@0@Z 100783a0 f i libucrtd:_fenvutils.obj
 0001:000773c0       ??U@YA?AW4__acrt_fenv_machine_x87_control@@W40@0@Z 100783c0 f i libucrtd:_fenvutils.obj
 0001:000773e0       ??_5@YAAAW4__acrt_fenv_abstract_control@@AAW40@W40@@Z 100783e0 f i libucrtd:_fenvutils.obj
 0001:00077400       ??_5@YAAAW4__acrt_fenv_abstract_status@@AAW40@W40@@Z 10078400 f i libucrtd:_fenvutils.obj
 0001:00077420       ??_5@YAAAW4__acrt_fenv_machine_sse_control@@AAW40@W40@@Z 10078420 f i libucrtd:_fenvutils.obj
 0001:00077440       ??_5@YAAAW4__acrt_fenv_machine_sse_status@@AAW40@W40@@Z 10078440 f i libucrtd:_fenvutils.obj
 0001:00077460       ??_5@YAAAW4__acrt_fenv_machine_x87_control@@AAW40@W40@@Z 10078460 f i libucrtd:_fenvutils.obj
 0001:00077480       ??_5@YAAAW4__acrt_fenv_machine_x87_status@@AAW40@W40@@Z 10078480 f i libucrtd:_fenvutils.obj
 0001:000774a0       ?__acrt_fenv_shift_abstract_sse_control@@YA?AW4__acrt_fenv_abstract_control@@W41@@Z 100784a0 f i libucrtd:_fenvutils.obj
 0001:000774e0       ?__acrt_fenv_shift_abstract_sse_status@@YA?AW4__acrt_fenv_abstract_status@@W41@@Z 100784e0 f i libucrtd:_fenvutils.obj
 0001:00077500       ?__acrt_fenv_shift_abstract_x87_control@@YA?AW4__acrt_fenv_abstract_control@@W41@@Z 10078500 f i libucrtd:_fenvutils.obj
 0001:00077540       ?__acrt_fenv_shift_abstract_x87_status@@YA?AW4__acrt_fenv_abstract_status@@W41@@Z 10078540 f i libucrtd:_fenvutils.obj
 0001:00077560       ?__acrt_fenv_unshift_abstract_sse_control@@YA?AW4__acrt_fenv_abstract_control@@W41@@Z 10078560 f i libucrtd:_fenvutils.obj
 0001:000775a0       ?__acrt_fenv_unshift_abstract_sse_status@@YA?AW4__acrt_fenv_abstract_status@@W41@@Z 100785a0 f i libucrtd:_fenvutils.obj
 0001:000775c0       ?__acrt_fenv_unshift_abstract_x87_control@@YA?AW4__acrt_fenv_abstract_control@@W41@@Z 100785c0 f i libucrtd:_fenvutils.obj
 0001:00077600       ?__acrt_fenv_unshift_abstract_x87_status@@YA?AW4__acrt_fenv_abstract_status@@W41@@Z 10078600 f i libucrtd:_fenvutils.obj
 0001:00077b30       ___acrt_fenv_expand_round_control 10078b30 f   libucrtd:_fenvutils.obj
 0001:00077b70       ___acrt_fenv_get_common_round_control 10078b70 f   libucrtd:_fenvutils.obj
 0001:00077bd0       ___acrt_fenv_get_control   10078bd0 f   libucrtd:_fenvutils.obj
 0001:00077c50       ___acrt_fenv_get_fp_status_word_from_exception_mask 10078c50 f   libucrtd:_fenvutils.obj
 0001:00077c90       ___acrt_fenv_get_status    10078c90 f   libucrtd:_fenvutils.obj
 0001:00077d00       ___acrt_fenv_set_control   10078d00 f   libucrtd:_fenvutils.obj
 0001:00077d40       ___acrt_fenv_set_status    10078d40 f   libucrtd:_fenvutils.obj
 0001:000784f0       __lseek                    100794f0 f   libucrtd:lseek.obj
 0001:00078510       __lseek_nolock             10079510 f   libucrtd:lseek.obj
 0001:00078530       __lseeki64                 10079530 f   libucrtd:lseek.obj
 0001:00078550       __lseeki64_nolock          10079550 f   libucrtd:lseek.obj
 0001:00078570       ___acrt_stdio_allocate_buffer_nolock 10079570 f   libucrtd:_getbuf.obj
 0001:00078690       __fclose_nolock            10079690 f   libucrtd:fclose.obj
 0001:000787d0       _fclose                    100797d0 f   libucrtd:fclose.obj
 0001:00078920       ?__c16rtomb_utf8@__crt_mbstring@@YAIPAD_SPAU_Mbstatet@@@Z 10079920 f   libucrtd:c16rtomb.obj
 0001:00078b20       _c16rtomb                  10079b20 f   libucrtd:c16rtomb.obj
 0001:00078b40       __errcode                  10079b40 f   libucrtd:fpexcept.obj
 0001:00078bb0       __except1                  10079bb0 f   libucrtd:fpexcept.obj
 0001:00078cb0       __except2                  10079cb0 f   libucrtd:fpexcept.obj
 0001:00078e10       __handle_exc               10079e10 f   libucrtd:fpexcept.obj
 0001:00079130       __handle_qnan2             1007a130 f   libucrtd:fpexcept.obj
 0001:00079150       __raise_exc                1007a150 f   libucrtd:fpexcept.obj
 0001:00079180       __raise_exc_ex             1007a180 f   libucrtd:fpexcept.obj
 0001:00079700       __raise_excf               1007a700 f   libucrtd:fpexcept.obj
 0001:00079730       __set_errno_from_matherr   1007a730 f   libucrtd:fpexcept.obj
 0001:00079770       __umatherr                 1007a770 f   libucrtd:fpexcept.obj
 0001:00079810       ___clrfp_sse2              1007a810 f   libucrtd:fpctrl.obj
 0001:00079850       ___ctrlfp_sse2             1007a850 f   libucrtd:fpctrl.obj
 0001:000798b0       ___fclrf_sse2              1007a8b0 f   libucrtd:fpctrl.obj
 0001:000798d0       ___get_fpsr_sse2           1007a8d0 f   libucrtd:fpctrl.obj
 0001:00079900       ___set_fpsr_sse2           1007a900 f   libucrtd:fpctrl.obj
 0001:000799e0       ___set_statfp_sse2         1007a9e0 f   libucrtd:fpctrl.obj
 0001:00079a10       ___statfp_sse2             1007aa10 f   libucrtd:fpctrl.obj
 0001:00079a40       __clrfp                    1007aa40 f   libucrtd:fpctrl.obj
 0001:00079a60       __ctrlfp                   1007aa60 f   libucrtd:fpctrl.obj
 0001:00079a90       __set_statfp               1007aa90 f   libucrtd:fpctrl.obj
 0001:00079b00       __statfp                   1007ab00 f   libucrtd:fpctrl.obj
 0001:00079b20       _ldexp                     1007ab20 f   libucrtd:ldexp.obj
 0001:00079e20       _nextafter                 1007ae20 f   libucrtd:nextafter.obj
 0001:00079e50       __towlower_l               1007ae50 f   libucrtd:towlower.obj
 0001:00079f50       _towlower                  1007af50 f   libucrtd:towlower.obj
 0001:00079f70       ___ascii_strnicmp          1007af70 f   libucrtd:_strnicm.obj
 0001:0007a0b2       __putwch                   1007b0b2 f   libucrtd:putwch.obj
 0001:0007a0df       __putwch_nolock            1007b0df f   libucrtd:putwch.obj
 0001:0007ab20       __read                     1007bb20 f   libucrtd:read.obj
 0001:0007ae00       __read_nolock              1007be00 f   libucrtd:read.obj
 0001:0007b7a0       __ceil_default             1007c7a0 f   libucrtd:ceil.obj
 0001:0007bad0       ___control87_2             1007cad0 f   libucrtd:ieee87.obj
 0001:0007bc00       ___fpreset_sse2            1007cc00 f   libucrtd:ieee87.obj
 0001:0007bf70       __clearfp                  1007cf70 f   libucrtd:ieee87.obj
 0001:0007bfc0       __control87                1007cfc0 f   libucrtd:ieee87.obj
 0001:0007c070       __controlfp                1007d070 f   libucrtd:ieee87.obj
 0001:0007c090       __fpreset                  1007d090 f   libucrtd:ieee87.obj
 0001:0007c250       __set_controlfp            1007d250 f   libucrtd:ieee87.obj
 0001:0007c2e0       __statusfp                 1007d2e0 f   libucrtd:ieee87.obj
 0001:0007c330       __statusfp2                1007d330 f   libucrtd:ieee87.obj
 0001:0007c620       __close                    1007d620 f   libucrtd:close.obj
 0001:0007c7a0       __close_nolock             1007d7a0 f   libucrtd:close.obj
 0001:0007c800       ??$?RU__crt_stdio_stream_data@@@__crt_internal_free_policy@@QBEXQBU__crt_stdio_stream_data@@@Z 1007d800 f i libucrtd:stream.obj
 0001:0007c820       ??0?$__crt_unique_heap_ptr@U__crt_stdio_stream_data@@U__crt_internal_free_policy@@@@QAE@QAU__crt_stdio_stream_data@@@Z 1007d820 f i libucrtd:stream.obj
 0001:0007c840       ??0__crt_stdio_stream@@QAE@XZ 1007d840 f i libucrtd:stream.obj
 0001:0007c860       ??1?$__crt_unique_heap_ptr@U__crt_stdio_stream_data@@U__crt_internal_free_policy@@@@QAE@XZ 1007d860 f i libucrtd:stream.obj
 0001:0007c880       ?__acrt_stdio_allocate_stream@@YA?AV__crt_stdio_stream@@XZ 1007d880 f   libucrtd:stream.obj
 0001:0007c970       ?__acrt_stdio_free_stream@@YAXV__crt_stdio_stream@@@Z 1007d970 f   libucrtd:stream.obj
 0001:0007c9f0       ?deallocate@__crt_stdio_stream@@QAEXXZ 1007d9f0 f i libucrtd:stream.obj
 0001:0007ca10       ?detach@?$__crt_unique_heap_ptr@U__crt_stdio_stream_data@@U__crt_internal_free_policy@@@@QAEPAU__crt_stdio_stream_data@@XZ 1007da10 f i libucrtd:stream.obj
 0001:0007cb80       ?lock@__crt_stdio_stream@@QBEXXZ 1007db80 f i libucrtd:stream.obj
 0001:0007cba0       ?release@?$__crt_unique_heap_ptr@U__crt_stdio_stream_data@@U__crt_internal_free_policy@@@@QAEXXZ 1007dba0 f i libucrtd:stream.obj
 0001:0007cbd0       ?try_allocate@__crt_stdio_stream@@QAE_NXZ 1007dbd0 f i libucrtd:stream.obj
 0001:0007cc20       ?unlock@__crt_stdio_stream@@QBEXXZ 1007dc20 f i libucrtd:stream.obj
 0001:0007cc40       _nexttoward                1007dc40 f   libucrtd:nexttoward.obj
 0001:0007cf90       ___acrt_LCMapStringW       1007df90 f   libucrtd:lcmapstringw.obj
 0001:0007d09f       ___dcrt_lowio_ensure_console_output_initialized 1007e09f f   libucrtd:initcon.obj
 0001:0007d0be       ___dcrt_terminate_console_output 1007e0be f   libucrtd:initcon.obj
 0001:0007d0d5       ___dcrt_write_console      1007e0d5 f   libucrtd:initcon.obj
 0001:0007d210       __d_int                    1007e210 f   libucrtd:_test.obj
 0001:0007d4c0       __dtest                    1007e4c0 f   libucrtd:_test.obj
 0001:0007d5e0       __fd_int                   1007e5e0 f   libucrtd:_test.obj
 0001:0007d7c0       __fdtest                   1007e7c0 f   libucrtd:_test.obj
 0001:0007d890       __fperrraise               1007e890 f   libucrtd:_test.obj
 0001:0007d8c0       __ld_int                   1007e8c0 f   libucrtd:_test.obj
 0001:0007d8e0       __ldtest                   1007e8e0 f   libucrtd:_test.obj
 0001:0007d900       ??_4@YAAAW4__acrt_fenv_abstract_status@@AAW40@W40@@Z 1007e900 f i libucrtd:fegetexceptflag.obj
 0001:0007d920       _fegetexceptflag           1007e920 f   libucrtd:fegetexceptflag.obj
 0001:0007d970       ??S@YA?AW4__acrt_fenv_abstract_status@@W40@@Z 1007e970 f i libucrtd:fesetexceptflag.obj
 0001:0007d980       _fesetexceptflag           1007e980 f   libucrtd:fesetexceptflag.obj
 0001:0007da40       _fetestexcept              1007ea40 f   libucrtd:fetestexcept.obj
 0001:0007da67       _EnterCriticalSection@4    1007ea67 f   kernel32:KERNEL32.dll
 0001:0007da6d       _LeaveCriticalSection@4    1007ea6d f   kernel32:KERNEL32.dll
 0001:0007da73       _InitializeCriticalSectionEx@12 1007ea73 f   kernel32:KERNEL32.dll
 0001:0007da79       _DeleteCriticalSection@4   1007ea79 f   kernel32:KERNEL32.dll
 0001:0007da7f       _IsProcessorFeaturePresent@4 1007ea7f f   kernel32:KERNEL32.dll
 0001:0007da85       _IsDebuggerPresent@0       1007ea85 f   kernel32:KERNEL32.dll
 0001:0007da8b       _UnhandledExceptionFilter@4 1007ea8b f   kernel32:KERNEL32.dll
 0001:0007da91       _SetUnhandledExceptionFilter@4 1007ea91 f   kernel32:KERNEL32.dll
 0001:0007da97       _GetStartupInfoW@4         1007ea97 f   kernel32:KERNEL32.dll
 0001:0007da9d       _GetModuleHandleW@4        1007ea9d f   kernel32:KERNEL32.dll
 0001:0007daa3       _GetCurrentProcess@0       1007eaa3 f   kernel32:KERNEL32.dll
 0001:0007daa9       _TerminateProcess@8        1007eaa9 f   kernel32:KERNEL32.dll
 0001:0007daaf       _QueryPerformanceCounter@4 1007eaaf f   kernel32:KERNEL32.dll
 0001:0007dab5       _GetCurrentProcessId@0     1007eab5 f   kernel32:KERNEL32.dll
 0001:0007dabb       _GetCurrentThreadId@0      1007eabb f   kernel32:KERNEL32.dll
 0001:0007dac1       _GetSystemTimeAsFileTime@4 1007eac1 f   kernel32:KERNEL32.dll
 0001:0007dac7       _InitializeSListHead@4     1007eac7 f   kernel32:KERNEL32.dll
 0001:0007dacd       _RaiseException@16         1007eacd f   kernel32:KERNEL32.dll
 0001:0007dad3       _RtlUnwind@16              1007ead3 f   kernel32:KERNEL32.dll
 0001:0007dad9       _InterlockedPushEntrySList@8 1007ead9 f   kernel32:KERNEL32.dll
 0001:0007dadf       _InterlockedFlushSList@4   1007eadf f   kernel32:KERNEL32.dll
 0001:0007dae5       _GetLastError@0            1007eae5 f   kernel32:KERNEL32.dll
 0001:0007daeb       _SetLastError@4            1007eaeb f   kernel32:KERNEL32.dll
 0001:0007daf1       _EncodePointer@4           1007eaf1 f   kernel32:KERNEL32.dll
 0001:0007daf7       _InitializeCriticalSectionAndSpinCount@8 1007eaf7 f   kernel32:KERNEL32.dll
 0001:0007dafd       _TlsAlloc@0                1007eafd f   kernel32:KERNEL32.dll
 0001:0007db03       _TlsGetValue@4             1007eb03 f   kernel32:KERNEL32.dll
 0001:0007db09       _TlsSetValue@8             1007eb09 f   kernel32:KERNEL32.dll
 0001:0007db0f       _TlsFree@4                 1007eb0f f   kernel32:KERNEL32.dll
 0001:0007db15       _FreeLibrary@4             1007eb15 f   kernel32:KERNEL32.dll
 0001:0007db1b       _GetProcAddress@8          1007eb1b f   kernel32:KERNEL32.dll
 0001:0007db21       _LoadLibraryExW@12         1007eb21 f   kernel32:KERNEL32.dll
 0001:0007db27       _GetModuleFileNameW@12     1007eb27 f   kernel32:KERNEL32.dll
 0001:0007db2d       _GetModuleHandleExW@12     1007eb2d f   kernel32:KERNEL32.dll
 0001:0007db33       _ExitProcess@4             1007eb33 f   kernel32:KERNEL32.dll
 0001:0007db39       _HeapAlloc@12              1007eb39 f   kernel32:KERNEL32.dll
 0001:0007db3f       _HeapValidate@12           1007eb3f f   kernel32:KERNEL32.dll
 0001:0007db45       _GetSystemInfo@4           1007eb45 f   kernel32:KERNEL32.dll
 0001:0007db4b       _GetCurrentThread@0        1007eb4b f   kernel32:KERNEL32.dll
 0001:0007db51       _GetStdHandle@4            1007eb51 f   kernel32:KERNEL32.dll
 0001:0007db57       _GetFileType@4             1007eb57 f   kernel32:KERNEL32.dll
 0001:0007db5d       _WriteFile@20              1007eb5d f   kernel32:KERNEL32.dll
 0001:0007db63       _OutputDebugStringW@4      1007eb63 f   kernel32:KERNEL32.dll
 0001:0007db69       _WriteConsoleW@20          1007eb69 f   kernel32:KERNEL32.dll
 0001:0007db6f       _SetConsoleCtrlHandler@8   1007eb6f f   kernel32:KERNEL32.dll
 0001:0007db75       _GetDateFormatW@24         1007eb75 f   kernel32:KERNEL32.dll
 0001:0007db7b       _GetTimeFormatW@24         1007eb7b f   kernel32:KERNEL32.dll
 0001:0007db81       _CompareStringW@24         1007eb81 f   kernel32:KERNEL32.dll
 0001:0007db87       _LCMapStringW@24           1007eb87 f   kernel32:KERNEL32.dll
 0001:0007db8d       _GetLocaleInfoW@16         1007eb8d f   kernel32:KERNEL32.dll
 0001:0007db93       _IsValidLocale@8           1007eb93 f   kernel32:KERNEL32.dll
 0001:0007db99       _GetUserDefaultLCID@0      1007eb99 f   kernel32:KERNEL32.dll
 0001:0007db9f       _EnumSystemLocalesW@8      1007eb9f f   kernel32:KERNEL32.dll
 0001:0007dba5       _FindClose@4               1007eba5 f   kernel32:KERNEL32.dll
 0001:0007dbab       _FindFirstFileExW@24       1007ebab f   kernel32:KERNEL32.dll
 0001:0007dbb1       _FindNextFileW@8           1007ebb1 f   kernel32:KERNEL32.dll
 0001:0007dbb7       _IsValidCodePage@4         1007ebb7 f   kernel32:KERNEL32.dll
 0001:0007dbbd       _GetACP@0                  1007ebbd f   kernel32:KERNEL32.dll
 0001:0007dbc3       _GetOEMCP@0                1007ebc3 f   kernel32:KERNEL32.dll
 0001:0007dbc9       _GetCPInfo@8               1007ebc9 f   kernel32:KERNEL32.dll
 0001:0007dbcf       _GetCommandLineA@0         1007ebcf f   kernel32:KERNEL32.dll
 0001:0007dbd5       _GetCommandLineW@0         1007ebd5 f   kernel32:KERNEL32.dll
 0001:0007dbdb       _MultiByteToWideChar@24    1007ebdb f   kernel32:KERNEL32.dll
 0001:0007dbe1       _WideCharToMultiByte@32    1007ebe1 f   kernel32:KERNEL32.dll
 0001:0007dbe7       _GetEnvironmentStringsW@0  1007ebe7 f   kernel32:KERNEL32.dll
 0001:0007dbed       _FreeEnvironmentStringsW@4 1007ebed f   kernel32:KERNEL32.dll
 0001:0007dbf3       _SetEnvironmentVariableW@8 1007ebf3 f   kernel32:KERNEL32.dll
 0001:0007dbf9       _GetProcessHeap@0          1007ebf9 f   kernel32:KERNEL32.dll
 0001:0007dbff       _HeapFree@12               1007ebff f   kernel32:KERNEL32.dll
 0001:0007dc05       _HeapReAlloc@16            1007ec05 f   kernel32:KERNEL32.dll
 0001:0007dc0b       _HeapSize@12               1007ec0b f   kernel32:KERNEL32.dll
 0001:0007dc11       _HeapQueryInformation@20   1007ec11 f   kernel32:KERNEL32.dll
 0001:0007dc17       _DecodePointer@4           1007ec17 f   kernel32:KERNEL32.dll
 0001:0007dc1d       _GetStringTypeW@16         1007ec1d f   kernel32:KERNEL32.dll
 0001:0007dc23       _SetStdHandle@8            1007ec23 f   kernel32:KERNEL32.dll
 0001:0007dc29       _GetFileSizeEx@8           1007ec29 f   kernel32:KERNEL32.dll
 0001:0007dc2f       _SetFilePointerEx@20       1007ec2f f   kernel32:KERNEL32.dll
 0001:0007dc35       _FlushFileBuffers@4        1007ec35 f   kernel32:KERNEL32.dll
 0001:0007dc3b       _GetConsoleOutputCP@0      1007ec3b f   kernel32:KERNEL32.dll
 0001:0007dc41       _GetConsoleMode@8          1007ec41 f   kernel32:KERNEL32.dll
 0001:0007dc47       _ReadFile@20               1007ec47 f   kernel32:KERNEL32.dll
 0001:0007dc4d       _ReadConsoleW@20           1007ec4d f   kernel32:KERNEL32.dll
 0001:0007dc53       _CloseHandle@4             1007ec53 f   kernel32:KERNEL32.dll
 0001:0007dc59       _CreateFileW@28            1007ec59 f   kernel32:KERNEL32.dll
 0001:0007dc60       __FindPESection            1007ec60 f   LIBCMTD:pesect.obj
 0001:0007dce0       __IsNonwritableInCurrentImage 1007ece0 f   LIBCMTD:pesect.obj
 0001:0007de10       __ValidateImageBase        1007ee10 f   LIBCMTD:pesect.obj
 0001:0007de70       __allshl                   1007ee70 f   LIBCMTD:llshl.obj
 0001:0007de90       __aulldiv                  1007ee90 f   LIBCMTD:ulldiv.obj
 0001:0007df00       __aullrem                  1007ef00 f   LIBCMTD:ullrem.obj
 0001:0007df80       __chkstk                   1007ef80 f   LIBCMTD:chkstk.obj
 0001:0007df80       __alloca_probe             1007ef80 f   LIBCMTD:chkstk.obj
 0001:0007dfb0       __allmul                   1007efb0 f   LIBCMTD:llmul.obj
 0001:0007dff0       __alldiv                   1007eff0 f   LIBCMTD:lldiv.obj
 0001:0007e0a0       __allrem                   1007f0a0 f   LIBCMTD:llrem.obj
 0001:0007e160       __aullshr                  1007f160 f   LIBCMTD:ullshr.obj
 0001:0007e180       __alloca_probe_16          1007f180 f   LIBCMTD:alloca16.obj
 0001:0007e196       __alloca_probe_8           1007f196     LIBCMTD:alloca16.obj
 0001:0007e1b0       __ftol2_sse_excpt          1007f1b0 f   LIBCMTD:ftol2.obj
 0001:0007e1c0       __ftol2_sse                1007f1c0 f   LIBCMTD:ftol2.obj
 0001:0007e1d0       __ftoi2                    1007f1d0 f   LIBCMTD:ftol2.obj
 0001:0007e250       __ftoui2                   1007f250 f   LIBCMTD:ftol2.obj
 0001:0007e300       __ftol2                    1007f300 f   LIBCMTD:ftol2.obj
 0001:0007e3b0       __ftoul2                   1007f3b0 f   LIBCMTD:ftol2.obj
 0001:0007e470       __SEH_prolog4              1007f470 f   LIBCMTD:sehprolg4.obj
 0001:0007e4c0       __SEH_epilog4              1007f4c0 f   LIBCMTD:sehprolg4.obj
 0001:0007e4e0       __initialize_default_precision 1007f4e0 f   LIBCMTD:default_precision.obj
 0001:0007e510       _strchr                    1007f510 f   libvcruntimed:strchr.obj
 0001:0007e57e       ___from_strstr_to_strchr   1007f57e     libvcruntimed:strchr.obj
 0001:0007e640       _wcschr                    1007f640 f   libvcruntimed:wcschr.obj
 0001:0007e960       _memcmp                    1007f960 f   libvcruntimed:memcmp.obj
 0001:0007f230       _strrchr                   10080230 f   libvcruntimed:strrchr.obj
 0001:0007f370       __filter_x86_sse2_floating_point_exception 10080370 f   LIBCMTD:x86_exception_filter.obj
 0001:0007f370       __filter_x86_sse2_floating_point_exception_default 10080370 f   LIBCMTD:x86_exception_filter.obj
 0002:00000000       __imp__EnterCriticalSection@4 10081000     kernel32:KERNEL32.dll
 0002:00000004       __imp__LeaveCriticalSection@4 10081004     kernel32:KERNEL32.dll
 0002:00000008       __imp__InitializeCriticalSectionEx@12 10081008     kernel32:KERNEL32.dll
 0002:0000000c       __imp__DeleteCriticalSection@4 1008100c     kernel32:KERNEL32.dll
 0002:00000010       __imp__IsProcessorFeaturePresent@4 10081010     kernel32:KERNEL32.dll
 0002:00000014       __imp__IsDebuggerPresent@0 10081014     kernel32:KERNEL32.dll
 0002:00000018       __imp__UnhandledExceptionFilter@4 10081018     kernel32:KERNEL32.dll
 0002:0000001c       __imp__SetUnhandledExceptionFilter@4 1008101c     kernel32:KERNEL32.dll
 0002:00000020       __imp__GetStartupInfoW@4   10081020     kernel32:KERNEL32.dll
 0002:00000024       __imp__GetModuleHandleW@4  10081024     kernel32:KERNEL32.dll
 0002:00000028       __imp__GetCurrentProcess@0 10081028     kernel32:KERNEL32.dll
 0002:0000002c       __imp__TerminateProcess@8  1008102c     kernel32:KERNEL32.dll
 0002:00000030       __imp__QueryPerformanceCounter@4 10081030     kernel32:KERNEL32.dll
 0002:00000034       __imp__GetCurrentProcessId@0 10081034     kernel32:KERNEL32.dll
 0002:00000038       __imp__GetCurrentThreadId@0 10081038     kernel32:KERNEL32.dll
 0002:0000003c       __imp__GetSystemTimeAsFileTime@4 1008103c     kernel32:KERNEL32.dll
 0002:00000040       __imp__InitializeSListHead@4 10081040     kernel32:KERNEL32.dll
 0002:00000044       __imp__RaiseException@16   10081044     kernel32:KERNEL32.dll
 0002:00000048       __imp__RtlUnwind@16        10081048     kernel32:KERNEL32.dll
 0002:0000004c       __imp__InterlockedPushEntrySList@8 1008104c     kernel32:KERNEL32.dll
 0002:00000050       __imp__InterlockedFlushSList@4 10081050     kernel32:KERNEL32.dll
 0002:00000054       __imp__GetLastError@0      10081054     kernel32:KERNEL32.dll
 0002:00000058       __imp__SetLastError@4      10081058     kernel32:KERNEL32.dll
 0002:0000005c       __imp__EncodePointer@4     1008105c     kernel32:KERNEL32.dll
 0002:00000060       __imp__InitializeCriticalSectionAndSpinCount@8 10081060     kernel32:KERNEL32.dll
 0002:00000064       __imp__TlsAlloc@0          10081064     kernel32:KERNEL32.dll
 0002:00000068       __imp__TlsGetValue@4       10081068     kernel32:KERNEL32.dll
 0002:0000006c       __imp__TlsSetValue@8       1008106c     kernel32:KERNEL32.dll
 0002:00000070       __imp__TlsFree@4           10081070     kernel32:KERNEL32.dll
 0002:00000074       __imp__FreeLibrary@4       10081074     kernel32:KERNEL32.dll
 0002:00000078       __imp__GetProcAddress@8    10081078     kernel32:KERNEL32.dll
 0002:0000007c       __imp__LoadLibraryExW@12   1008107c     kernel32:KERNEL32.dll
 0002:00000080       __imp__GetModuleFileNameW@12 10081080     kernel32:KERNEL32.dll
 0002:00000084       __imp__GetModuleHandleExW@12 10081084     kernel32:KERNEL32.dll
 0002:00000088       __imp__ExitProcess@4       10081088     kernel32:KERNEL32.dll
 0002:0000008c       __imp__HeapAlloc@12        1008108c     kernel32:KERNEL32.dll
 0002:00000090       __imp__HeapValidate@12     10081090     kernel32:KERNEL32.dll
 0002:00000094       __imp__GetSystemInfo@4     10081094     kernel32:KERNEL32.dll
 0002:00000098       __imp__GetCurrentThread@0  10081098     kernel32:KERNEL32.dll
 0002:0000009c       __imp__GetStdHandle@4      1008109c     kernel32:KERNEL32.dll
 0002:000000a0       __imp__GetFileType@4       100810a0     kernel32:KERNEL32.dll
 0002:000000a4       __imp__WriteFile@20        100810a4     kernel32:KERNEL32.dll
 0002:000000a8       __imp__OutputDebugStringW@4 100810a8     kernel32:KERNEL32.dll
 0002:000000ac       __imp__WriteConsoleW@20    100810ac     kernel32:KERNEL32.dll
 0002:000000b0       __imp__SetConsoleCtrlHandler@8 100810b0     kernel32:KERNEL32.dll
 0002:000000b4       __imp__GetDateFormatW@24   100810b4     kernel32:KERNEL32.dll
 0002:000000b8       __imp__GetTimeFormatW@24   100810b8     kernel32:KERNEL32.dll
 0002:000000bc       __imp__CompareStringW@24   100810bc     kernel32:KERNEL32.dll
 0002:000000c0       __imp__LCMapStringW@24     100810c0     kernel32:KERNEL32.dll
 0002:000000c4       __imp__GetLocaleInfoW@16   100810c4     kernel32:KERNEL32.dll
 0002:000000c8       __imp__IsValidLocale@8     100810c8     kernel32:KERNEL32.dll
 0002:000000cc       __imp__GetUserDefaultLCID@0 100810cc     kernel32:KERNEL32.dll
 0002:000000d0       __imp__EnumSystemLocalesW@8 100810d0     kernel32:KERNEL32.dll
 0002:000000d4       __imp__FindClose@4         100810d4     kernel32:KERNEL32.dll
 0002:000000d8       __imp__FindFirstFileExW@24 100810d8     kernel32:KERNEL32.dll
 0002:000000dc       __imp__FindNextFileW@8     100810dc     kernel32:KERNEL32.dll
 0002:000000e0       __imp__IsValidCodePage@4   100810e0     kernel32:KERNEL32.dll
 0002:000000e4       __imp__GetACP@0            100810e4     kernel32:KERNEL32.dll
 0002:000000e8       __imp__GetOEMCP@0          100810e8     kernel32:KERNEL32.dll
 0002:000000ec       __imp__GetCPInfo@8         100810ec     kernel32:KERNEL32.dll
 0002:000000f0       __imp__GetCommandLineA@0   100810f0     kernel32:KERNEL32.dll
 0002:000000f4       __imp__GetCommandLineW@0   100810f4     kernel32:KERNEL32.dll
 0002:000000f8       __imp__MultiByteToWideChar@24 100810f8     kernel32:KERNEL32.dll
 0002:000000fc       __imp__WideCharToMultiByte@32 100810fc     kernel32:KERNEL32.dll
 0002:00000100       __imp__GetEnvironmentStringsW@0 10081100     kernel32:KERNEL32.dll
 0002:00000104       __imp__FreeEnvironmentStringsW@4 10081104     kernel32:KERNEL32.dll
 0002:00000108       __imp__SetEnvironmentVariableW@8 10081108     kernel32:KERNEL32.dll
 0002:0000010c       __imp__GetProcessHeap@0    1008110c     kernel32:KERNEL32.dll
 0002:00000110       __imp__HeapFree@12         10081110     kernel32:KERNEL32.dll
 0002:00000114       __imp__HeapReAlloc@16      10081114     kernel32:KERNEL32.dll
 0002:00000118       __imp__HeapSize@12         10081118     kernel32:KERNEL32.dll
 0002:0000011c       __imp__HeapQueryInformation@20 1008111c     kernel32:KERNEL32.dll
 0002:00000120       __imp__DecodePointer@4     10081120     kernel32:KERNEL32.dll
 0002:00000124       __imp__GetStringTypeW@16   10081124     kernel32:KERNEL32.dll
 0002:00000128       __imp__SetStdHandle@8      10081128     kernel32:KERNEL32.dll
 0002:0000012c       __imp__GetFileSizeEx@8     1008112c     kernel32:KERNEL32.dll
 0002:00000130       __imp__SetFilePointerEx@20 10081130     kernel32:KERNEL32.dll
 0002:00000134       __imp__FlushFileBuffers@4  10081134     kernel32:KERNEL32.dll
 0002:00000138       __imp__GetConsoleOutputCP@0 10081138     kernel32:KERNEL32.dll
 0002:0000013c       __imp__GetConsoleMode@8    1008113c     kernel32:KERNEL32.dll
 0002:00000140       __imp__ReadFile@20         10081140     kernel32:KERNEL32.dll
 0002:00000144       __imp__ReadConsoleW@20     10081144     kernel32:KERNEL32.dll
 0002:00000148       __imp__CloseHandle@4       10081148     kernel32:KERNEL32.dll
 0002:0000014c       __imp__CreateFileW@28      1008114c     kernel32:KERNEL32.dll
 0002:00000150       \177KERNEL32_NULL_THUNK_DATA 10081150     kernel32:KERNEL32.dll
 0002:00000154       ___guard_check_icall_fptr  10081154     LIBCMTD:guard_support.obj
 0002:00000158       ___guard_xfg_check_icall_fptr 10081158     LIBCMTD:guard_support.obj
 0002:0000015c       ___xc_a                    1008115c     LIBCMTD:initializers.obj
 0002:0000016c       ___xc_z                    1008116c     LIBCMTD:initializers.obj
 0002:00000170       ___xi_a                    10081170     LIBCMTD:initializers.obj
 0002:00000174       ___acrt_tran_sse2_initializer 10081174     libucrtd:sse2_initializer.obj
 0002:00000178       ___acrt_multibyte_initializer 10081178     libucrtd:multibyte_initializer.obj
 0002:0000017c       ___acrt_stdio_initializer  1008117c     libucrtd:stdio_initializer.obj
 0002:00000180       ___xi_z                    10081180     LIBCMTD:initializers.obj
 0002:00000184       ___xp_a                    10081184     LIBCMTD:initializers.obj
 0002:00000188       ___acrt_locale_terminator  10081188     libucrtd:locale_initializer.obj
 0002:0000018c       ___dcrt_console_output_terminator 1008118c     libucrtd:console_output_initializer.obj
 0002:00000190       ___acrt_stdio_terminator   10081190     libucrtd:stdio_initializer.obj
 0002:00000194       ___xp_z                    10081194     LIBCMTD:initializers.obj
 0002:00000198       ___xt_a                    10081198     LIBCMTD:initializers.obj
 0002:0000019c       ___xt_z                    1008119c     LIBCMTD:initializers.obj
 0002:0000055c       ??_7exception@std@@6B@     1008155c     capldll.obj
 0002:00000564       ??_C@_0BC@EOODALEL@Unknown?5exception@ 10081564     capldll.obj
 0002:0000057c       ??_7bad_alloc@std@@6B@     1008157c     capldll.obj
 0002:00000588       ??_7bad_array_new_length@std@@6B@ 10081588     capldll.obj
 0002:00000590       ??_C@_0BF@KINCDENJ@bad?5array?5new?5length@ 10081590     capldll.obj
 0002:000005a8       ??_C@_0BB@FCMFBGOM@invalid?5argument@ 100815a8     capldll.obj
 0002:000005bc       ??_C@_02DKCKIIND@?$CFs@    100815bc     capldll.obj
 0002:000005c0       ??_C@_0GI@MNEMJBML@C?3?2Program?5Files?5?$CIx86?$CJ?2Microsof@ 100815c0     capldll.obj
 0002:00000628       ??_C@_1NA@MJBOBEJL@?$AAC?$AA?3?$AA?2?$AAP?$AAr?$AAo?$AAg?$AAr?$AAa?$AAm?$AA?5?$AAF?$AAi?$AAl?$AAe@ 10081628     capldll.obj
 0002:000006f8       ??_C@_11LOCGONAA@@         100816f8     capldll.obj
 0002:000006fc       ??_C@_1CG@JNLFBNGN@?$AA?$CC?$AAi?$AAn?$AAv?$AAa?$AAl?$AAi?$AAd?$AA?5?$AAa?$AAr?$AAg?$AAu?$AAm?$AAe@ 100816fc     capldll.obj
 0002:00000724       ??_C@_0BJ@LFDBABJJ@ITERATOR?5LIST?5CORRUPTED?$CB@ 10081724     capldll.obj
 0002:00000740       ??_C@_1DG@PLBPCAEM@?$AA?$CC?$AAI?$AAT?$AAE?$AAR?$AAA?$AAT?$AAO?$AAR?$AA?5?$AAL?$AAI?$AAS?$AAT?$AA?5@ 10081740     capldll.obj
 0002:00000778       ??_C@_0BB@GCADKGJO@map?1set?5too?5long@ 10081778     capldll.obj
 0002:0000078c       ??_C@_0BP@OLDKBHLM@map?1set?5iterators?5incompatible@ 1008178c     capldll.obj
 0002:000007b0       ??_C@_0GG@BJFDHGEO@C?3?2Program?5Files?5?$CIx86?$CJ?2Microsof@ 100817b0     capldll.obj
 0002:00000818       ??_C@_1MM@JHPNFGGF@?$AAC?$AA?3?$AA?2?$AAP?$AAr?$AAo?$AAg?$AAr?$AAa?$AAm?$AA?5?$AAF?$AAi?$AAl?$AAe@ 10081818     capldll.obj
 0002:000008e8       ??_C@_1EC@JLIDLCDH@?$AA?$CC?$AAm?$AAa?$AAp?$AA?1?$AAs?$AAe?$AAt?$AA?5?$AAi?$AAt?$AAe?$AAr?$AAa?$AAt@ 100818e8     capldll.obj
 0002:0000092c       ??_C@_0DG@LCFNIIPB@cannot?5dereference?5value?9initia@ 1008192c     capldll.obj
 0002:00000968       ??_C@_1HA@ILGCNILF@?$AA?$CC?$AAc?$AAa?$AAn?$AAn?$AAo?$AAt?$AA?5?$AAd?$AAe?$AAr?$AAe?$AAf?$AAe?$AAr@ 10081968     capldll.obj
 0002:000009d8       ??_C@_0CI@OKFEHCEB@cannot?5dereference?5end?5map?1set?5@ 100819d8     capldll.obj
 0002:00000a00       ??_C@_1FE@NKHAAGMB@?$AA?$CC?$AAc?$AAa?$AAn?$AAn?$AAo?$AAt?$AA?5?$AAd?$AAe?$AAr?$AAe?$AAf?$AAe?$AAr@ 10081a00     capldll.obj
 0002:00000a54       ??_C@_0BD@FEEMDEPI@invalid?5comparator@ 10081a54     capldll.obj
 0002:00000a68       ??_C@_0GJ@MPIAFDPJ@C?3?2Program?5Files?5?$CIx86?$CJ?2Microsof@ 10081a68     capldll.obj
 0002:00000ad8       ??_C@_1NC@IFKPGDLA@?$AAC?$AA?3?$AA?2?$AAP?$AAr?$AAo?$AAg?$AAr?$AAa?$AAm?$AA?5?$AAF?$AAi?$AAl?$AAe@ 10081ad8     capldll.obj
 0002:00000bac       ??_C@_1CK@NDNHPKPI@?$AA?$CC?$AAi?$AAn?$AAv?$AAa?$AAl?$AAi?$AAd?$AA?5?$AAc?$AAo?$AAm?$AAp?$AAa?$AAr@ 10081bac     capldll.obj
 0002:00000bd8       __real@0000000000000000    10081bd8     chisq.obj
 0002:00000be0       __real@3ef47cba351ab72f    10081be0     chisq.obj
 0002:00000be8       __real@3f205c3aef25becf    10081be8     chisq.obj
 0002:00000bf0       __real@3f23fe089fdce2c3    10081bf0     chisq.obj
 0002:00000bf8       __real@3f418a834b799e45    10081bf8     chisq.obj
 0002:00000c00       __real@3f462e4a6380d6a6    10081c00     chisq.obj
 0002:00000c08       __real@3f4a09c337a1a6b4    10081c08     chisq.obj
 0002:00000c10       __real@3f519dbb8dfa21cc    10081c10     chisq.obj
 0002:00000c18       __real@3f56c89dfaf928dd    10081c18     chisq.obj
 0002:00000c20       __real@3f60aa2444fa5608    10081c20     chisq.obj
 0002:00000c28       __real@3f618a90e6dd8762    10081c28     chisq.obj
 0002:00000c30       __real@3f754b4f8af94f71    10081c30     chisq.obj
 0002:00000c38       __real@3f75eda272f76f46    10081c38     chisq.obj
 0002:00000c40       __real@3f7ad3f430f4c4f3    10081c40     chisq.obj
 0002:00000c48       __real@3f83011b24feacc1    10081c48     chisq.obj
 0002:00000c50       __real@3f859f3c70fe5d84    10081c50     chisq.obj
 0002:00000c58       __real@3f87d1b436fbd04b    10081c58     chisq.obj
 0002:00000c60       __real@3f93a8b7912f5918    10081c60     chisq.obj
 0002:00000c68       __real@3fae3c549f8ef466    10081c68     chisq.obj
 0002:00000c70       __real@3fc373b6488fa8b0    10081c70     chisq.obj
 0002:00000c78       __real@3fd46d006c15f74e    10081c78     chisq.obj
 0002:00000c80       __real@3fe0000000000000    10081c80     chisq.obj
 0002:00000c88       __real@3fe10583660afdb3    10081c88     chisq.obj
 0002:00000c90       __real@3fe20dd750429b6d    10081c90     chisq.obj
 0002:00000c98       __real@3fe250d048e7a1bd    10081c98     chisq.obj
 0002:00000ca0       __real@3fe9884533b75e55    10081ca0     chisq.obj
 0002:00000ca8       __real@3fefff7b29446363    10081ca8     chisq.obj
 0002:00000cb0       __real@3ff0000000000000    10081cb0     chisq.obj
 0002:00000cb8       __real@4000000000000000    10081cb8     chisq.obj
 0002:00000cc0       __real@4008000000000000    10081cc0     chisq.obj
 0002:00000cc8       __real@4034000000000000    10081cc8     chisq.obj
 0002:00000cd0       __real@bf07ba1c9a586733    10081cd0     chisq.obj
 0002:00000cd8       __real@c034000000000000    10081cd8     chisq.obj
 0002:00000ce0       __xmm@80000000000000008000000000000000 10081ce0     chisq.obj
 0002:00000cf0       __real@3ff199999999999a    10081cf0     ent.obj
 0002:00000cf8       __real@400199999999999a    10081cf8     ent.obj
 0002:00000d00       __real@400921fb54442d18    10081d00     ent.obj
 0002:00000d08       __real@400a666666666666    10081d08     ent.obj
 0002:00000d10       __real@401199999999999a    10081d10     ent.obj
 0002:00000d18       __real@4016000000000000    10081d18     ent.obj
 0002:00000d20       __real@401a666666666666    10081d20     ent.obj
 0002:00000d28       __real@401ecccccccccccd    10081d28     ent.obj
 0002:00000d30       __real@4020000000000000    10081d30     ent.obj
 0002:00000d38       __real@402199999999999a    10081d38     ent.obj
 0002:00000d40       __real@4059000000000000    10081d40     ent.obj
 0002:00000d48       __real@400a934f0979a371    10081d48     randtest.obj
 0002:00000d50       __real@4010000000000000    10081d50     randtest.obj
 0002:00000d58       __real@4070000000000000    10081d58     randtest.obj
 0002:00000d60       __real@41efffc000200000    10081d60     randtest.obj
 0002:00000d68       __real@c0f86a0000000000    10081d68     randtest.obj
 0002:00000d70       __xmm@41f00000000000000000000000000000 10081d70     randtest.obj
 0002:00000d80       ??_C@_0P@GHFPNOJB@bad?5allocation@ 10081d80     libcpmtd:xthrow.obj
 0002:00000d94       ??_7bad_function_call@std@@6B@ 10081d94     libcpmtd:xthrow.obj
 0002:00000d9c       ??_C@_0BC@DPJNKNAF@bad?5function?5call@ 10081d9c     libcpmtd:xthrow.obj
 0002:00000db4       ??_7logic_error@std@@6B@   10081db4     libcpmtd:xthrow.obj
 0002:00000dc0       ??_7invalid_argument@std@@6B@ 10081dc0     libcpmtd:xthrow.obj
 0002:00000dcc       ??_7length_error@std@@6B@  10081dcc     libcpmtd:xthrow.obj
 0002:00000dd8       ??_7out_of_range@std@@6B@  10081dd8     libcpmtd:xthrow.obj
 0002:00000de4       ??_7runtime_error@std@@6B@ 10081de4     libcpmtd:xthrow.obj
 0002:00000df0       ??_7overflow_error@std@@6B@ 10081df0     libcpmtd:xthrow.obj
 0002:00000dfc       ??_7regex_error@std@@6B@   10081dfc     libcpmtd:xthrow.obj
 0002:00000e08       ??_C@_0FI@CMNGHIFF@regex_error?$CIerror_collate?$CJ?3?5The@ 10081e08     libcpmtd:xthrow.obj
 0002:00000e60       ??_C@_0FE@LJMHKIOC@regex_error?$CIerror_ctype?$CJ?3?5The?5e@ 10081e60     libcpmtd:xthrow.obj
 0002:00000eb8       ??_C@_0GI@HEGGMMDL@regex_error?$CIerror_escape?$CJ?3?5The?5@ 10081eb8     libcpmtd:xthrow.obj
 0002:00000f20       ??_C@_0FA@HFMLPGNN@regex_error?$CIerror_backref?$CJ?3?5The@ 10081f20     libcpmtd:xthrow.obj
 0002:00000f70       ??_C@_0EH@LGEANNAL@regex_error?$CIerror_brack?$CJ?3?5The?5e@ 10081f70     libcpmtd:xthrow.obj
 0002:00000fb8       ??_C@_0EH@CAGOJGLE@regex_error?$CIerror_paren?$CJ?3?5The?5e@ 10081fb8     libcpmtd:xthrow.obj
 0002:00001000       ??_C@_0EH@DICJJKLO@regex_error?$CIerror_brace?$CJ?3?5The?5e@ 10082000     libcpmtd:xthrow.obj
 0002:00001048       ??_C@_0FM@BLDIHIBB@regex_error?$CIerror_badbrace?$CJ?3?5Th@ 10082048     libcpmtd:xthrow.obj
 0002:000010a8       ??_C@_0HA@ICNJLCMC@regex_error?$CIerror_range?$CJ?3?5The?5e@ 100820a8     libcpmtd:xthrow.obj
 0002:00001118       ??_C@_0GP@PICOBCHA@regex_error?$CIerror_space?$CJ?3?5There@ 10082118     libcpmtd:xthrow.obj
 0002:00001188       ??_C@_0FK@LCHHHEOA@regex_error?$CIerror_badrepeat?$CJ?3?5O@ 10082188     libcpmtd:xthrow.obj
 0002:000011e8       ??_C@_0HL@NEKOFBJA@regex_error?$CIerror_complexity?$CJ?3?5@ 100821e8     libcpmtd:xthrow.obj
 0002:00001268       ??_C@_0JC@HCDLJLGO@regex_error?$CIerror_stack?$CJ?3?5There@ 10082268     libcpmtd:xthrow.obj
 0002:000012fc       ??_C@_0BJ@CHBLKGNM@regex_error?$CIerror_parse?$CJ@ 100822fc     libcpmtd:xthrow.obj
 0002:00001318       ??_C@_0BK@DFJCACNI@regex_error?$CIerror_syntax?$CJ@ 10082318     libcpmtd:xthrow.obj
 0002:00001334       ??_C@_0M@KGKAAGCA@regex_error@ 10082334     libcpmtd:xthrow.obj
 0002:00001344       ??_7type_info@@6B@         10082344     LIBCMTD:std_type_info_static.obj
 0002:00001348       __pDefaultRawDllMain       10082348     LIBCMTD:dll_dllmain.obj
 0002:00001348       __pRawDllMain              10082348     LIBCMTD:dll_dllmain.obj
 0002:00001354       ??_C@_17CNPHIMPH@?$AA?$CF?$AAl?$AAs@ 10082354     libvcruntimed:std_exception.obj
 0002:00001360       ??_C@_1FK@OACNEHHA@?$AAt?$AAo?$AA?9?$AA?$DO?$AA_?$AAW?$AAh?$AAa?$AAt?$AA?5?$AA?$DN?$AA?$DN?$AA?5?$AAn?$AAu@ 10082360     libvcruntimed:std_exception.obj
 0002:000013c0       ??_C@_1IE@BLOAAGCK@?$AAD?$AA?3?$AA?2?$AAa?$AA?2?$AA_?$AAw?$AAo?$AAr?$AAk?$AA?2?$AA1?$AA?2?$AAs?$AA?2@ 100823c0     libvcruntimed:std_exception.obj
 0002:00001444       __pDestructExceptionObject 10082444     libvcruntimed:ehhelpers.obj
 0002:00001448       ??_C@_0EC@CDJPIOJK@D?3?2a?2_work?21?2s?2src?2vctools?2crt?2@ 10082448     libvcruntimed:std_type_info.obj
 0002:00001490       ??_C@_0EK@HNOIOKGA@D?3?2a?2_work?21?2s?2src?2vctools?2crt?2@ 10082490     libvcruntimed:per_thread_data.obj
 0002:000014e0       ??_7bad_exception@std@@6B@ 100824e0     libvcruntimed:frame.obj
 0002:000014e8       ??_C@_0O@DPKOEFFH@bad?5exception@ 100824e8     libvcruntimed:frame.obj
 0002:00001878       ??_C@_0BG@JNJLAMPM@?$GAanonymous?5namespace?8@ 10082878     libvcruntimed:undname.obj
 0002:00001890       ??_C@_08EHJDFFNH@__based?$CI@ 10082890     libvcruntimed:undname.obj
 0002:0000189c       ??_C@_07KOLFKCDI@__cdecl@  1008289c     libvcruntimed:undname.obj
 0002:000018a4       ??_C@_08GHMPAG@__pascal@   100828a4     libvcruntimed:undname.obj
 0002:000018b0       ??_C@_09IFJBGAPI@__stdcall@ 100828b0     libvcruntimed:undname.obj
 0002:000018bc       ??_C@_0L@NPHFGOKO@__thiscall@ 100828bc     libvcruntimed:undname.obj
 0002:000018c8       ??_C@_0L@JMKHOMEK@__fastcall@ 100828c8     libvcruntimed:undname.obj
 0002:000018d4       ??_C@_0N@BCKKPABJ@__vectorcall@ 100828d4     libvcruntimed:undname.obj
 0002:000018e4       ??_C@_09HIJEGCPM@__clrcall@ 100828e4     libvcruntimed:undname.obj
 0002:000018f0       ??_C@_06GHPCKEAG@__eabi@   100828f0     libvcruntimed:undname.obj
 0002:000018f8       ??_C@_09IOPIDJLG@__swift_1@ 100828f8     libvcruntimed:undname.obj
 0002:00001904       ??_C@_09KFNFGKHF@__swift_2@ 10082904     libvcruntimed:undname.obj
 0002:00001910       ??_C@_07JOMMBBKO@__ptr64@  10082910     libvcruntimed:undname.obj
 0002:00001918       ??_C@_0L@PILCLIHE@__restrict@ 10082918     libvcruntimed:undname.obj
 0002:00001924       ??_C@_0M@GFIIJFMG@__unaligned@ 10082924     libvcruntimed:undname.obj
 0002:00001930       ??_C@_09DHDLOLLB@restrict?$CI@ 10082930     libvcruntimed:undname.obj
 0002:0000193a       ??_C@_00CNPNBAHC@@         1008293a     libvcruntimed:undname.obj
 0002:0000193c       ??_C@_04NIHEBCM@?5new@     1008293c     libvcruntimed:undname.obj
 0002:00001944       ??_C@_07FPCDHGMM@?5delete@ 10082944     libvcruntimed:undname.obj
 0002:0000194c       ??_C@_01NEMOKFLO@?$DN@     1008294c     libvcruntimed:undname.obj
 0002:00001950       ??_C@_02GPIOPFAK@?$DO?$DO@ 10082950     libvcruntimed:undname.obj
 0002:00001954       ??_C@_02FODMEDOG@?$DM?$DM@ 10082954     libvcruntimed:undname.obj
 0002:00001958       ??_C@_01DCLJPIOD@?$CB@     10082958     libvcruntimed:undname.obj
 0002:0000195c       ??_C@_02EGOFBIJA@?$DN?$DN@ 1008295c     libvcruntimed:undname.obj
 0002:00001960       ??_C@_02FDNJECIE@?$CB?$DN@ 10082960     libvcruntimed:undname.obj
 0002:00001964       ??_C@_02GPECMEKF@?$FL?$FN@ 10082964     libvcruntimed:undname.obj
 0002:00001968       ??_C@_08LHJFAFGD@operator@ 10082968     libvcruntimed:undname.obj
 0002:00001974       ??_C@_02HBOOOICD@?9?$DO@   10082974     libvcruntimed:undname.obj
 0002:00001978       ??_C@_01NBENCBCI@?$CK@     10082978     libvcruntimed:undname.obj
 0002:0000197c       ??_C@_02ECNGHCIF@?$CL?$CL@ 1008297c     libvcruntimed:undname.obj
 0002:00001980       ??_C@_02BAABKJLB@?9?9@     10082980     libvcruntimed:undname.obj
 0002:00001984       ??_C@_01JOAMLHOP@?9@       10082984     libvcruntimed:undname.obj
 0002:00001988       ??_C@_01MIFGBAGJ@?$CL@     10082988     libvcruntimed:undname.obj
 0002:0000198c       ??_C@_01HNPIGOCE@?$CG@     1008298c     libvcruntimed:undname.obj
 0002:00001990       ??_C@_03MNHNFDLC@?9?$DO?$CK@ 10082990     libvcruntimed:undname.obj
 0002:00001994       ??_C@_01KMDKNFGN@?1@       10082994     libvcruntimed:undname.obj
 0002:00001998       ??_C@_01FGNFDNOH@?$CF@     10082998     libvcruntimed:undname.obj
 0002:0000199c       ??_C@_01MNNFJEPP@?$DM@     1008299c     libvcruntimed:undname.obj
 0002:000019a0       ??_C@_02EHCHHCKH@?$DM?$DN@ 100829a0     libvcruntimed:undname.obj
 0002:000019a4       ??_C@_01PPODPGHN@?$DO@     100829a4     libvcruntimed:undname.obj
 0002:000019a8       ??_C@_02EEKDKGMJ@?$DO?$DN@ 100829a8     libvcruntimed:undname.obj
 0002:000019ac       ??_C@_01IHBHIGKO@?0@       100829ac     libvcruntimed:undname.obj
 0002:000019b0       ??_C@_02HCKGKOFO@?$CI?$CJ@ 100829b0     libvcruntimed:undname.obj
 0002:000019b4       ??_C@_01PJKLJHI@?$HO@      100829b4     libvcruntimed:undname.obj
 0002:000019b8       ??_C@_01JKBOJNNK@?$FO@     100829b8     libvcruntimed:undname.obj
 0002:000019bc       ??_C@_01DNKMNLPK@?$HM@     100829bc     libvcruntimed:undname.obj
 0002:000019c0       ??_C@_02PPKAJPJL@?$CG?$CG@ 100829c0     libvcruntimed:undname.obj
 0002:000019c4       ??_C@_02NONPIBCD@?$HM?$HM@ 100829c4     libvcruntimed:undname.obj
 0002:000019c8       ??_C@_02FPIMKNGF@?$CK?$DN@ 100829c8     libvcruntimed:undname.obj
 0002:000019cc       ??_C@_02FOEOMHFC@?$CL?$DN@ 100829cc     libvcruntimed:undname.obj
 0002:000019d0       ??_C@_02FKMDLLOA@?9?$DN@   100829d0     libvcruntimed:undname.obj
 0002:000019d4       ??_C@_02FJEHGPIO@?1?$DN@   100829d4     libvcruntimed:undname.obj
 0002:000019d8       ??_C@_02FENAOKFI@?$CF?$DN@ 100829d8     libvcruntimed:undname.obj
 0002:000019dc       ??_C@_03IKFCCPFF@?$DO?$DO?$DN@ 100829dc     libvcruntimed:undname.obj
 0002:000019e0       ??_C@_03CDNPDDLA@?$DM?$DM?$DN@ 100829e0     libvcruntimed:undname.obj
 0002:000019e4       ??_C@_02FGJGFEAB@?$CG?$DN@ 100829e4     libvcruntimed:undname.obj
 0002:000019e8       ??_C@_02DHLNPPGH@?$HM?$DN@ 100829e8     libvcruntimed:undname.obj
 0002:000019ec       ??_C@_02MHEGNOJ@?$FO?$DN@  100829ec     libvcruntimed:undname.obj
 0002:000019f0       ??_C@_09IFPLHPGF@?$GAvftable?8@ 100829f0     libvcruntimed:undname.obj
 0002:000019fc       ??_C@_09BLBHBJP@?$GAvbtable?8@ 100829fc     libvcruntimed:undname.obj
 0002:00001a08       ??_C@_07FEEIOKP@?$GAvcall?8@ 10082a08     libvcruntimed:undname.obj
 0002:00001a10       ??_C@_08LLFFHHDJ@?$GAtypeof?8@ 10082a10     libvcruntimed:undname.obj
 0002:00001a1c       ??_C@_0BF@KDPPACIK@?$GAlocal?5static?5guard?8@ 10082a1c     libvcruntimed:undname.obj
 0002:00001a34       ??_C@_08OBABFOLI@?$GAstring?8@ 10082a34     libvcruntimed:undname.obj
 0002:00001a40       ??_C@_0BD@JDLKDPAB@?$GAvbase?5destructor?8@ 10082a40     libvcruntimed:undname.obj
 0002:00001a54       ??_C@_0BN@DEGPLNFK@?$GAvector?5deleting?5destructor?8@ 10082a54     libvcruntimed:undname.obj
 0002:00001a74       ??_C@_0BO@OBMKPJIG@?$GAdefault?5constructor?5closure?8@ 10082a74     libvcruntimed:undname.obj
 0002:00001a94       ??_C@_0BN@IMDCHIKM@?$GAscalar?5deleting?5destructor?8@ 10082a94     libvcruntimed:undname.obj
 0002:00001ab4       ??_C@_0BO@PFGOCPJJ@?$GAvector?5constructor?5iterator?8@ 10082ab4     libvcruntimed:undname.obj
 0002:00001ad4       ??_C@_0BN@LFPFMEDL@?$GAvector?5destructor?5iterator?8@ 10082ad4     libvcruntimed:undname.obj
 0002:00001af4       ??_C@_0CE@IKBNEHA@?$GAvector?5vbase?5constructor?5itera@ 10082af4     libvcruntimed:undname.obj
 0002:00001b18       ??_C@_0BL@NILFHHPC@?$GAvirtual?5displacement?5map?8@ 10082b18     libvcruntimed:undname.obj
 0002:00001b34       ??_C@_0CB@JONCMFFK@?$GAeh?5vector?5constructor?5iterator@ 10082b34     libvcruntimed:undname.obj
 0002:00001b58       ??_C@_0CA@GCEOPDGL@?$GAeh?5vector?5destructor?5iterator?8@ 10082b58     libvcruntimed:undname.obj
 0002:00001b78       ??_C@_0CH@OOJPLCPH@?$GAeh?5vector?5vbase?5constructor?5it@ 10082b78     libvcruntimed:undname.obj
 0002:00001ba0       ??_C@_0BL@LLKPOHJI@?$GAcopy?5constructor?5closure?8@ 10082ba0     libvcruntimed:undname.obj
 0002:00001bbc       ??_C@_0BA@KBCDOMBN@?$GAudt?5returning?8@ 10082bbc     libvcruntimed:undname.obj
 0002:00001bcc       ??_C@_03KLGMFNMG@?$GAEH@   10082bcc     libvcruntimed:undname.obj
 0002:00001bd0       ??_C@_05KHLCHHI@?$GARTTI@  10082bd0     libvcruntimed:undname.obj
 0002:00001bd8       ??_C@_0BA@KKLDJDLB@?$GAlocal?5vftable?8@ 10082bd8     libvcruntimed:undname.obj
 0002:00001be8       ??_C@_0CE@IIHCMGGL@?$GAlocal?5vftable?5constructor?5clos@ 10082be8     libvcruntimed:undname.obj
 0002:00001c0c       ??_C@_06FHBGPFGH@?5new?$FL?$FN@ 10082c0c     libvcruntimed:undname.obj
 0002:00001c14       ??_C@_09LBNFPBCA@?5delete?$FL?$FN@ 10082c14     libvcruntimed:undname.obj
 0002:00001c20       ??_C@_0P@HJKNJFNN@?$GAomni?5callsig?8@ 10082c20     libvcruntimed:undname.obj
 0002:00001c30       ??_C@_0BL@CNOONJFP@?$GAplacement?5delete?5closure?8@ 10082c30     libvcruntimed:undname.obj
 0002:00001c4c       ??_C@_0BN@CKNJLHMB@?$GAplacement?5delete?$FL?$FN?5closure?8@ 10082c4c     libvcruntimed:undname.obj
 0002:00001c6c       ??_C@_0CG@CFDHKGGD@?$GAmanaged?5vector?5constructor?5ite@ 10082c6c     libvcruntimed:undname.obj
 0002:00001c94       ??_C@_0CF@IMGKMJNO@?$GAmanaged?5vector?5destructor?5iter@ 10082c94     libvcruntimed:undname.obj
 0002:00001cbc       ??_C@_0CG@HLDDJMAG@?$GAeh?5vector?5copy?5constructor?5ite@ 10082cbc     libvcruntimed:undname.obj
 0002:00001ce4       ??_C@_0CM@FCBBDIGB@?$GAeh?5vector?5vbase?5copy?5construct@ 10082ce4     libvcruntimed:undname.obj
 0002:00001d10       ??_C@_0BL@CLIPGLGB@?$GAdynamic?5initializer?5for?5?8@ 10082d10     libvcruntimed:undname.obj
 0002:00001d2c       ??_C@_0CB@PDBIFEP@?$GAdynamic?5atexit?5destructor?5for?5@ 10082d2c     libvcruntimed:undname.obj
 0002:00001d50       ??_C@_0CD@CGAJBKEJ@?$GAvector?5copy?5constructor?5iterat@ 10082d50     libvcruntimed:undname.obj
 0002:00001d74       ??_C@_0CJ@GJELGAMM@?$GAvector?5vbase?5copy?5constructor?5@ 10082d74     libvcruntimed:undname.obj
 0002:00001da0       ??_C@_0CL@FGIJHLCE@?$GAmanaged?5vector?5copy?5constructo@ 10082da0     libvcruntimed:undname.obj
 0002:00001dcc       ??_C@_0BM@PMGGMLDN@?$GAlocal?5static?5thread?5guard?8@ 10082dcc     libvcruntimed:undname.obj
 0002:00001de8       ??_C@_0N@BDNMDMOL@operator?5?$CC?$CC?5@ 10082de8     libvcruntimed:undname.obj
 0002:00001df8       ??_C@_0BC@GGEBGALA@operator?5co_await@ 10082df8     libvcruntimed:undname.obj
 0002:00001e0c       ??_C@_0M@GAAIMMOH@operator?$DM?$DN?$DO@ 10082e0c     libvcruntimed:undname.obj
 0002:00001e18       ??_C@_0BC@DAFEJGAK@?5Type?5Descriptor?8@ 10082e18     libvcruntimed:undname.obj
 0002:00001e2c       ??_C@_0BM@LDKODKLH@?5Base?5Class?5Descriptor?5at?5?$CI@ 10082e2c     libvcruntimed:undname.obj
 0002:00001e48       ??_C@_0BD@LGICGFMM@?5Base?5Class?5Array?8@ 10082e48     libvcruntimed:undname.obj
 0002:00001e5c       ??_C@_0BN@MECKDCOJ@?5Class?5Hierarchy?5Descriptor?8@ 10082e5c     libvcruntimed:undname.obj
 0002:00001e7c       ??_C@_0BK@CFCOFLF@?5Complete?5Object?5Locator?8@ 10082e7c     libvcruntimed:undname.obj
 0002:00001e96       ?in_place@std@@3Uin_place_t@1@B 10082e96     libvcruntimed:undname.obj
 0002:00001e98       ??_C@_04HEJADOOB@CV?3?5@   10082e98     libvcruntimed:undname.obj
 0002:00001ea0       ??_C@_03GDILBHBJ@$$h@      10082ea0     libvcruntimed:undname.obj
 0002:00001ea4       ??_C@_02MOLJINC@?3?3@      10082ea4     libvcruntimed:undname.obj
 0002:00001ea8       ??_C@_0BE@JAEOCHPE@template?9parameter?9@ 10082ea8     libvcruntimed:undname.obj
 0002:00001ebc       ??_C@_0BF@LNLGBBNL@?$GAtemplate?9parameter?9@ 10082ebc     libvcruntimed:undname.obj
 0002:00001ed4       ??_C@_0O@KHGCOMHP@generic?9type?9@ 10082ed4     libvcruntimed:undname.obj
 0002:00001ee4       ??_C@_0P@ODDENDLM@?$GAgeneric?9type?9@ 10082ee4     libvcruntimed:undname.obj
 0002:00001ef4       ??_C@_02OHHJMEON@?8?8@     10082ef4     libvcruntimed:undname.obj
 0002:00001ef8       ??_C@_0BN@IBLMMFAP@?$GAnon?9type?9template?9parameter@ 10082ef8     libvcruntimed:undname.obj
 0002:00001f18       ??_C@_03DLDNIBIK@?$CFlf@   10082f18     libvcruntimed:undname.obj
 0002:00001f1c       ??_C@_04OFALKAJ@?$DP?$DP_C@ 10082f1c     libvcruntimed:undname.obj
 0002:00001f24       ??_C@_03KHICJKCI@?4?4?4@   10082f24     libvcruntimed:undname.obj
 0002:00001f28       ??_C@_04HIBGFPH@NULL@      10082f28     libvcruntimed:undname.obj
 0002:00001f30       ??_C@_02DPKJAMEF@?$CFd@    10082f30     libvcruntimed:undname.obj
 0002:00001f34       ??_C@_0BK@IHCCFNEL@?$GAtemplate?9type?9parameter?9@ 10082f34     libvcruntimed:undname.obj
 0002:00001f50       ??_C@_0BK@OFCNNNKO@?$GAgeneric?9class?9parameter?9@ 10082f50     libvcruntimed:undname.obj
 0002:00001f6c       ??_C@_0BL@NGJBLFIL@?$GAgeneric?9method?9parameter?9@ 10082f6c     libvcruntimed:undname.obj
 0002:00001f88       ??_C@_07OHNGEDJK@nullptr@  10082f88     libvcruntimed:undname.obj
 0002:00001f90       ??_C@_04GKJNKENE@void@     10082f90     libvcruntimed:undname.obj
 0002:00001f98       ??_C@_0BE@EODMJLIF@?$GAtemplate?9parameter@ 10082f98     libvcruntimed:undname.obj
 0002:00001fac       ??_C@_03OPGICMGF@?$HN?8?5@ 10082fac     libvcruntimed:undname.obj
 0002:00001fb0       ??_C@_02IGFCGPIL@?$HN?8@   10082fb0     libvcruntimed:undname.obj
 0002:00001fb4       ??_C@_0N@CBHHHENL@?$GAvtordispex?$HL@ 10082fb4     libvcruntimed:undname.obj
 0002:00001fc4       ??_C@_0L@GHPFDFH@?$GAvtordisp?$HL@ 10082fc4     libvcruntimed:undname.obj
 0002:00001fd0       ??_C@_0L@HNGCOGAE@?$GAadjustor?$HL@ 10082fd0     libvcruntimed:undname.obj
 0002:00001fdc       ??_C@_0CB@KJDOOODE@?$GAlocal?5static?5destructor?5helper@ 10082fdc     libvcruntimed:undname.obj
 0002:00002000       ??_C@_0DB@ILEFOCIJ@?$GAtemplate?5static?5data?5member?5co@ 10083000     libvcruntimed:undname.obj
 0002:00002034       ??_C@_0DA@HGFJFBBE@?$GAtemplate?5static?5data?5member?5de@ 10083034     libvcruntimed:undname.obj
 0002:00002064       ??_C@_07PGOEDBHP@static?5@ 10083064     libvcruntimed:undname.obj
 0002:0000206c       ??_C@_08NIEOINHE@virtual?5@ 1008306c     libvcruntimed:undname.obj
 0002:00002078       ??_C@_09LAPHOOG@private?3?5@ 10083078     libvcruntimed:undname.obj
 0002:00002084       ??_C@_0M@GAIFPFIP@protected?3?5@ 10083084     libvcruntimed:undname.obj
 0002:00002090       ??_C@_08GPDDCMKI@public?3?5@ 10083090     libvcruntimed:undname.obj
 0002:0000209c       ??_C@_08KJLFOPNE@?$FLthunk?$FN?3@ 1008309c     libvcruntimed:undname.obj
 0002:000020a8       ??_C@_0M@DHNBOJMP@extern?5?$CCC?$CC?5@ 100830a8     libvcruntimed:undname.obj
 0002:000020b4       ??_C@_02KCKGHPCA@?$CJ?5@   100830b4     libvcruntimed:undname.obj
 0002:000020b8       ??_C@_05CIHEBHNO@char?5@   100830b8     libvcruntimed:undname.obj
 0002:000020c0       ??_C@_06EHJMALKF@short?5@  100830c0     libvcruntimed:undname.obj
 0002:000020c8       ??_C@_04LAHKHJMA@int?5@    100830c8     libvcruntimed:undname.obj
 0002:000020d0       ??_C@_05CJIMAING@long?5@   100830d0     libvcruntimed:undname.obj
 0002:000020d8       ??_C@_09EBBEKKIH@unsigned?5@ 100830d8     libvcruntimed:undname.obj
 0002:000020e4       ??_C@_05BEFAKPML@void?5@   100830e4     libvcruntimed:undname.obj
 0002:000020ec       ??_C@_09GAIEOBLP@volatile?5@ 100830ec     libvcruntimed:undname.obj
 0002:000020f8       ??_C@_08PABEKFH@volatile@  100830f8     libvcruntimed:undname.obj
 0002:00002104       ??_C@_0BA@LKIJLKPP@std?3?3nullptr_t?5@ 10083104     libvcruntimed:undname.obj
 0002:00002114       ??_C@_0P@GCOCNKDM@std?3?3nullptr_t@ 10083114     libvcruntimed:undname.obj
 0002:00002124       ??_C@_0L@EGPHHEKN@?$DMellipsis?$DO@ 10083124     libvcruntimed:undname.obj
 0002:00002130       ??_C@_04EENFHACM@?0?4?4?4@ 10083130     libvcruntimed:undname.obj
 0002:00002138       ??_C@_0M@ELJOJFFH@?0?$DMellipsis?$DO@ 10083138     libvcruntimed:undname.obj
 0002:00002144       ??_C@_09DNHFEOJI@?5noexcept@ 10083144     libvcruntimed:undname.obj
 0002:00002150       ??_C@_03PBJBJNON@cpu@      10083150     libvcruntimed:undname.obj
 0002:00002154       ??_C@_03DCBBJBAA@amp@      10083154     libvcruntimed:undname.obj
 0002:00002158       ??_C@_02KEGNLNML@?0?5@     10083158     libvcruntimed:undname.obj
 0002:0000215c       ??_C@_04ENMBGAPA@char@     1008315c     libvcruntimed:undname.obj
 0002:00002164       ??_C@_05BFKKPKCG@short@    10083164     libvcruntimed:undname.obj
 0002:0000216c       ??_C@_03JBIPMCLC@int@      1008316c     libvcruntimed:undname.obj
 0002:00002170       ??_C@_04GOKPGOLB@long@     10083170     libvcruntimed:undname.obj
 0002:00002178       ??_C@_05KNFBNCOH@float@    10083178     libvcruntimed:undname.obj
 0002:00002180       ??_C@_06BNJCAIGJ@double@   10083180     libvcruntimed:undname.obj
 0002:00002188       ??_C@_04DDKJGDCM@bool@     10083188     libvcruntimed:undname.obj
 0002:00002190       ??_C@_06EBGKOKIG@__int8@   10083190     libvcruntimed:undname.obj
 0002:00002198       ??_C@_07ICFHOGAF@__int16@  10083198     libvcruntimed:undname.obj
 0002:000021a0       ??_C@_07OFLPPHGP@__int32@  100831a0     libvcruntimed:undname.obj
 0002:000021a8       ??_C@_07LFCOJCAC@__int64@  100831a8     libvcruntimed:undname.obj
 0002:000021b0       ??_C@_08GAHOLHEO@__int128@ 100831b0     libvcruntimed:undname.obj
 0002:000021bc       ??_C@_09EEKGDCPH@?$DMunknown?$DO@ 100831bc     libvcruntimed:undname.obj
 0002:000021c8       ??_C@_07CFHGOPCN@char8_t@  100831c8     libvcruntimed:undname.obj
 0002:000021d0       ??_C@_08HBIPOFJB@char16_t@ 100831d0     libvcruntimed:undname.obj
 0002:000021dc       ??_C@_08IECNCBKG@char32_t@ 100831dc     libvcruntimed:undname.obj
 0002:000021e8       ??_C@_07CLGGIAMF@wchar_t@  100831e8     libvcruntimed:undname.obj
 0002:000021f0       ??_C@_04HAPDLBFF@auto@     100831f0     libvcruntimed:undname.obj
 0002:000021f8       ??_C@_0P@LHCGKIGK@decltype?$CIauto?$CJ@ 100831f8     libvcruntimed:undname.obj
 0002:00002208       ??_C@_06GCICPBLB@__w64?5@  10083208     libvcruntimed:undname.obj
 0002:00002210       ??_C@_07NFANNNEC@UNKNOWN@  10083210     libvcruntimed:undname.obj
 0002:00002218       ??_C@_07EDHNAJHC@signed?5@ 10083218     libvcruntimed:undname.obj
 0002:00002220       ??_C@_05BNCCCJPP@const@    10083220     libvcruntimed:undname.obj
 0002:00002228       ??_C@_09EFNPDFFP@?5volatile@ 10083228     libvcruntimed:undname.obj
 0002:00002234       ??_C@_0P@GCIFDJCJ@?$GAunknown?5ecsu?8@ 10083234     libvcruntimed:undname.obj
 0002:00002244       ??_C@_06MOJHIBMG@union?5@  10083244     libvcruntimed:undname.obj
 0002:0000224c       ??_C@_07DIBCDNGL@struct?5@ 1008324c     libvcruntimed:undname.obj
 0002:00002254       ??_C@_06LJBABKPM@class?5@  10083254     libvcruntimed:undname.obj
 0002:0000225c       ??_C@_08KOFANOFK@coclass?5@ 1008325c     libvcruntimed:undname.obj
 0002:00002268       ??_C@_0N@DLIEFKNA@cointerface?5@ 10083268     libvcruntimed:undname.obj
 0002:00002278       ??_C@_05LJGMCFOG@enum?5@   10083278     libvcruntimed:undname.obj
 0002:00002280       ??_C@_06LIJLOJAG@const?5@  10083280     libvcruntimed:undname.obj
 0002:00002288       ??_C@_02KJPKDIBN@?$CG?5@   10083288     libvcruntimed:undname.obj
 0002:0000228c       ??_C@_03PCKGMOPB@?$CG?$CG?5@ 1008328c     libvcruntimed:undname.obj
 0002:00002290       ??_C@_0M@EALIELKG@cli?3?3array?$DM@ 10083290     libvcruntimed:undname.obj
 0002:0000229c       ??_C@_0O@GKABPPIF@cli?3?3pin_ptr?$DM@ 1008329c     libvcruntimed:undname.obj
 0002:000022ac       ??_C@_02GOGNNPBN@?$CJ?$FL@ 100832ac     libvcruntimed:undname.obj
 0002:000022b0       ??_C@_06EEGAIFAK@?$HLflat?$HN@ 100832b0     libvcruntimed:undname.obj
 0002:000022b8       ??_C@_05JIBOFOHK@?$HLfor?5@ 100832b8     libvcruntimed:undname.obj
 0002:000022c0       ??_C@_02MDINNEEG@s?5@      100832c0     libvcruntimed:undname.obj
 0002:000022c8       ??_7DNameNode@@6B@         100832c8     libvcruntimed:undname.obj
 0002:000022dc       ??_7charNode@@6B@          100832dc     libvcruntimed:undname.obj
 0002:000022f0       ??_7pcharNode@@6B@         100832f0     libvcruntimed:undname.obj
 0002:00002304       ??_7pDNameNode@@6B@        10083304     libvcruntimed:undname.obj
 0002:00002318       ??_7DNameStatusNode@@6B@   10083318     libvcruntimed:undname.obj
 0002:0000232c       ??_7pairNode@@6B@          1008332c     libvcruntimed:undname.obj
 0002:00002440       ??_C@_04OKOHEJBO@?5?$DP?$DP?5@ 10083440     libvcruntimed:undname.obj
 0002:00002448       ?nodes@?1??make@DNameStatusNode@@SAPBV2@W4DNameStatus@@@Z@4QBV2@B 10083448     libvcruntimed:undname.obj
 0002:00002478       ??_C@_0CG@LKEBOLJI@Cannot?5access?5value?5of?5empty?5op@ 10083478     libvcruntimed:undname.obj
 0002:000024a0       ??_C@_0DH@MKBJNILF@D?3?2a?2_work?21?2s?2src?2vctools?2crt?2@ 100834a0     libvcruntimed:undname.obj
 0002:000024d8       ??_C@_1GO@MLBEOJIB@?$AAD?$AA?3?$AA?2?$AAa?$AA?2?$AA_?$AAw?$AAo?$AAr?$AAk?$AA?2?$AA1?$AA?2?$AAs?$AA?2@ 100834d8     libvcruntimed:undname.obj
 0002:00002548       ??_C@_1FA@DPIDPJCB@?$AA?$CC?$AAC?$AAa?$AAn?$AAn?$AAo?$AAt?$AA?5?$AAa?$AAc?$AAc?$AAe?$AAs?$AAs?$AA?5@ 10083548     libvcruntimed:undname.obj
 0002:000025a4       ??_C@_1DM@KHCHBNEB@?$AAa?$AAp?$AAi?$AA?9?$AAm?$AAs?$AA?9?$AAw?$AAi?$AAn?$AA?9?$AAc?$AAo?$AAr?$AAe@ 100835a4     libvcruntimed:winapi_downlevel.obj
 0002:000025e0       ??_C@_1DK@LPPGFMPP@?$AAa?$AAp?$AAi?$AA?9?$AAm?$AAs?$AA?9?$AAw?$AAi?$AAn?$AA?9?$AAc?$AAo?$AAr?$AAe@ 100835e0     libvcruntimed:winapi_downlevel.obj
 0002:0000261c       ??_C@_1BC@GDMECMAK@?$AAk?$AAe?$AAr?$AAn?$AAe?$AAl?$AA3?$AA2@ 1008361c     libvcruntimed:winapi_downlevel.obj
 0002:00002630       ??_C@_1BA@PFFKHIOG@?$AAa?$AAp?$AAi?$AA?9?$AAm?$AAs?$AA?9@ 10083630     libvcruntimed:winapi_downlevel.obj
 0002:00002640       ??_C@_1EM@LBIFGLGH@?$AAc?$AAa?$AAc?$AAh?$AAe?$AAd?$AA_?$AAh?$AAa?$AAn?$AAd?$AAl?$AAe?$AA?5?$AA?$DN@ 10083640     libvcruntimed:winapi_downlevel.obj
 0002:00002690       ??_C@_1JG@EAIBPIGC@?$AAD?$AA?3?$AA?2?$AAa?$AA?2?$AA_?$AAw?$AAo?$AAr?$AAk?$AA?2?$AA1?$AA?2?$AAs?$AA?2@ 10083690     libvcruntimed:winapi_downlevel.obj
 0002:00002728       ??_C@_1DI@MAHEDLDB@?$AAc?$AAa?$AAc?$AAh?$AAe?$AAd?$AA_?$AAh?$AAa?$AAn?$AAd?$AAl?$AAe?$AA?5?$AA?$DN@ 10083728     libvcruntimed:winapi_downlevel.obj
 0002:00002760       ??_C@_1FC@IBNCGNKL@?$AAc?$AAa?$AAc?$AAh?$AAe?$AAd?$AA_?$AAf?$AAp?$AA?5?$AA?$DN?$AA?$DN?$AA?5?$AAi?$AAn@ 10083760     libvcruntimed:winapi_downlevel.obj
 0002:000027b4       ??_C@_1CI@GDJBAGLP@?$AAc?$AAa?$AAc?$AAh?$AAe?$AAd?$AA_?$AAf?$AAp?$AA?5?$AA?$DN?$AA?$DN?$AA?5?$AAn?$AAe@ 100837b4     libvcruntimed:winapi_downlevel.obj
 0002:000027e4       ??_C@_08KNHFBNJ@FlsAlloc@  100837e4     libvcruntimed:winapi_downlevel.obj
 0002:000027f8       ??_C@_07PEJMOBNF@FlsFree@  100837f8     libvcruntimed:winapi_downlevel.obj
 0002:00002808       ??_C@_0M@GDNOONDI@FlsGetValue@ 10083808     libvcruntimed:winapi_downlevel.obj
 0002:0000281c       ??_C@_0M@JCPCPOEF@FlsSetValue@ 1008381c     libvcruntimed:winapi_downlevel.obj
 0002:00002830       ??_C@_0BM@HCFOFFN@InitializeCriticalSectionEx@ 10083830     libvcruntimed:winapi_downlevel.obj
 0002:00002858       ??_C@_1BA@GLMCNLEM@?$AAW?$AAa?$AAr?$AAn?$AAi?$AAn?$AAg@ 10083858     libucrtd:dbgrpt.obj
 0002:00002868       ??_C@_1M@ILHOPKA@?$AAE?$AAr?$AAr?$AAo?$AAr@ 10083868     libucrtd:dbgrpt.obj
 0002:00002874       ??_C@_1CC@CGHMNGDG@?$AAA?$AAs?$AAs?$AAe?$AAr?$AAt?$AAi?$AAo?$AAn?$AA?5?$AAF?$AAa?$AAi?$AAl?$AAe@ 10083874     libucrtd:dbgrpt.obj
 0002:000028a0       ??_C@_1OG@PMPPFHAF@?$AA?6?$AA?6?$AAF?$AAo?$AAr?$AA?5?$AAi?$AAn?$AAf?$AAo?$AAr?$AAm?$AAa?$AAt?$AAi@ 100838a0     libucrtd:dbgrpt.obj
 0002:00002988       ??_C@_1MG@LJLILFFD@?$AAD?$AAe?$AAb?$AAu?$AAg?$AA?5?$AA?$CF?$AAl?$AAs?$AA?$CB?$AA?6?$AA?6?$AAP?$AAr?$AAo@ 10083988     libucrtd:dbgrpt.obj
 0002:00002a50       ??_C@_1MG@OODCADGL@?$AAD?$AAe?$AAb?$AAu?$AAg?$AA?5?$AA?$CF?$AAl?$AAs?$AA?$CB?$AA?6?$AA?6?$AAP?$AAr?$AAo@ 10083a50     libucrtd:dbgrpt.obj
 0002:00002b18       ??_C@_0BH@DNAGHKFM@?$DMprogram?5name?5unknown?$DO@ 10083b18     libucrtd:dbgrpt.obj
 0002:00002b30       ??_C@_1CO@EAEJAADC@?$AA?$DM?$AAp?$AAr?$AAo?$AAg?$AAr?$AAa?$AAm?$AA?5?$AAn?$AAa?$AAm?$AAe?$AA?5?$AAu@ 10083b30     libucrtd:dbgrpt.obj
 0002:00002b60       ??_C@_1FK@BNNDOGMN@?$AA?$CI?$AA?$CC?$AAT?$AAh?$AAe?$AA?5?$AAh?$AAo?$AAo?$AAk?$AA?5?$AAf?$AAu?$AAn?$AAc@ 10083b60     libucrtd:dbgrpt.obj
 0002:00002bc0       ??_C@_1FO@GMJDLAJD@?$AAm?$AAi?$AAn?$AAk?$AAe?$AAr?$AAn?$AAe?$AAl?$AA?2?$AAc?$AAr?$AAt?$AAs?$AA?2@ 10083bc0     libucrtd:dbgrpt.obj
 0002:00002c20       ??_C@_0CP@HDJNPEFB@minkernel?2crts?2ucrt?2src?2appcrt?2@ 10083c20     libucrtd:dbgrpt.obj
 0002:00002c50       ??_C@_1HI@OFEHGPPC@?$AAm?$AAo?$AAd?$AAe?$AA?5?$AA?$DN?$AA?$DN?$AA?5?$AA_?$AAC?$AAR?$AAT?$AA_?$AAR?$AAP@ 10083c50     libucrtd:dbgrpt.obj
 0002:00002cc8       ??_C@_1CO@FFNKOJOG@?$AAc?$AAo?$AAm?$AAm?$AAo?$AAn?$AA_?$AAs?$AAe?$AAt?$AA_?$AAr?$AAe?$AAp?$AAo@ 10083cc8     libucrtd:dbgrpt.obj
 0002:00002cf8       ??_C@_1CI@ONEHFNHD@?$AAn?$AAe?$AAw?$AA_?$AAh?$AAo?$AAo?$AAk?$AA?5?$AA?$CB?$AA?$DN?$AA?5?$AAn?$AAu?$AAl@ 10083cf8     libucrtd:dbgrpt.obj
 0002:00002d24       ??_C@_1CM@EHMOGBJJ@?$AAc?$AAo?$AAm?$AAm?$AAo?$AAn?$AA_?$AAm?$AAe?$AAs?$AAs?$AAa?$AAg?$AAe?$AA_@ 10083d24     libucrtd:dbgrpt.obj
 0002:00002d50       ??_C@_1PE@ECNALGCA@?$AAt?$AAr?$AAa?$AAi?$AAt?$AAs?$AA?3?$AA?3?$AAt?$AAc?$AAs?$AAc?$AAp?$AAy?$AA_@ 10083d50     libucrtd:dbgrpt.obj
 0002:00002e44       ??_C@_1BK@PEDCIPMA@?$AAE?$AAx?$AAp?$AAr?$AAe?$AAs?$AAs?$AAi?$AAo?$AAn?$AA?3?$AA?5@ 10083e44     libucrtd:dbgrpt.obj
 0002:00002e60       ??_C@_15IABLJNFO@?$AA?6?$AA?6@ 10083e60     libucrtd:dbgrpt.obj
 0002:00002e68       ??_C@_1BA@GLLGCPCK@?$AA?6?$AAL?$AAi?$AAn?$AAe?$AA?3?$AA?5@ 10083e68     libucrtd:dbgrpt.obj
 0002:00002e78       ??_C@_1BA@LNHECFIM@?$AA?6?$AAF?$AAi?$AAl?$AAe?$AA?3?$AA?5@ 10083e78     libucrtd:dbgrpt.obj
 0002:00002e88       ??_C@_17LGKOMLJ@?$AA?4?$AA?4?$AA?4@ 10083e88     libucrtd:dbgrpt.obj
 0002:00002e90       ??_C@_1BE@CGCJKGHI@?$AA?6?$AAM?$AAo?$AAd?$AAu?$AAl?$AAe?$AA?3?$AA?5@ 10083e90     libucrtd:dbgrpt.obj
 0002:00002ea4       ??_C@_1BI@KALLJECN@?$AA?$CI?$AA?$CK?$AA_?$AAe?$AAr?$AAr?$AAn?$AAo?$AA?$CI?$AA?$CJ?$AA?$CJ@ 10083ea4     libucrtd:dbgrpt.obj
 0002:00002ec0       ??_C@_1JM@IBOIJEOO@?$AAw?$AAc?$AAs?$AAc?$AAp?$AAy?$AA_?$AAs?$AA?$CI?$AAm?$AAe?$AAs?$AAs?$AAa?$AAg@ 10083ec0     libucrtd:dbgrpt.obj
 0002:00002f60       ??_C@_1FG@BBOLDHGF@?$AA_?$AAC?$AAr?$AAt?$AAD?$AAb?$AAg?$AAR?$AAe?$AAp?$AAo?$AAr?$AAt?$AA?3?$AA?5@ 10083f60     libucrtd:dbgrpt.obj
 0002:00002fb8       ??_C@_1EK@MBDPDCGA@?$AAM?$AAi?$AAc?$AAr?$AAo?$AAs?$AAo?$AAf?$AAt?$AA?5?$AAV?$AAi?$AAs?$AAu?$AAa@ 10083fb8     libucrtd:dbgrpt.obj
 0002:00003008       ??_C@_1CC@LLFJPCJO@?$AAn?$AAe?$AAw?$AA_?$AAh?$AAa?$AAn?$AAd?$AAl?$AAe?$AAr?$AA?5?$AA?$DN?$AA?$DN?$AA?5@ 10084008     libucrtd:new_handler.obj
 0002:00003030       ??_C@_1GI@GALDAPMM@?$AAm?$AAi?$AAn?$AAk?$AAe?$AAr?$AAn?$AAe?$AAl?$AA?2?$AAc?$AAr?$AAt?$AAs?$AA?2@ 10084030     libucrtd:new_handler.obj
 0002:00003098       ___acrt_exception_action_table 10084098     libucrtd:exception_filter.obj
 0002:00003128       ___acrt_signal_action_table_count 10084128     libucrtd:exception_filter.obj
 0002:0000312c       ___acrt_signal_action_table_size 1008412c     libucrtd:exception_filter.obj
 0002:00003130       ___acrt_signal_action_first_fpe_index 10084130     libucrtd:exception_filter.obj
 0002:00003134       ___acrt_signal_action_fpe_count 10084134     libucrtd:exception_filter.obj
 0002:00003138       _RtlNtPathSeperatorString  10084138     libucrtd:exit.obj
 0002:00003140       ??_C@_13FPGAJAPJ@?$AA?2@   10084140     libucrtd:exit.obj
 0002:00003144       _RtlDosPathSeperatorsString 10084144     libucrtd:exit.obj
 0002:0000314c       ??_C@_15MNCACJLI@?$AA?2?$AA?1@ 1008414c     libucrtd:exit.obj
 0002:00003154       _RtlAlternateDosPathSeperatorString 10084154     libucrtd:exit.obj
 0002:0000315c       ??_C@_13CGOKJPIL@?$AA?1@   1008415c     libucrtd:exit.obj
 0002:00003160       ??_C@_1BI@BGOHAHKC@?$AAm?$AAs?$AAc?$AAo?$AAr?$AAe?$AAe?$AA?4?$AAd?$AAl?$AAl@ 10084160     libucrtd:exit.obj
 0002:00003178       ??_C@_0P@MIGLKIOC@CorExitProcess@ 10084178     libucrtd:exit.obj
 0002:00003188       ??_C@_0DI@KNDIGDEP@minkernel?2crts?2ucrt?2src?2appcrt?2@ 10084188     libucrtd:argv_parsing.obj
 0002:000031c0       ??_C@_1JO@PGBIJBAM@?$AAm?$AAo?$AAd?$AAe?$AA?5?$AA?$DN?$AA?$DN?$AA?5?$AA_?$AAc?$AAr?$AAt?$AA_?$AAa?$AAr@ 100841c0     libucrtd:argv_parsing.obj
 0002:00003260       ??_C@_1HA@JMLCANEE@?$AAm?$AAi?$AAn?$AAk?$AAe?$AAr?$AAn?$AAe?$AAl?$AA?2?$AAc?$AAr?$AAt?$AAs?$AA?2@ 10084260     libucrtd:argv_parsing.obj
 0002:000032d0       ??_C@_1CM@LHOJELIC@?$AAc?$AAo?$AAm?$AAm?$AAo?$AAn?$AA_?$AAc?$AAo?$AAn?$AAf?$AAi?$AAg?$AAu?$AAr@ 100842d0     libucrtd:argv_parsing.obj
 0002:00003300       ??_C@_0EG@LEHKHOEH@minkernel?2crts?2ucrt?2src?2desktop@ 10084300     libucrtd:environment_initialization.obj
 0002:00003348       ??_C@_1IM@IMOFFPLG@?$AAm?$AAi?$AAn?$AAk?$AAe?$AAr?$AAn?$AAe?$AAl?$AA?2?$AAc?$AAr?$AAt?$AAs?$AA?2@ 10084348     libucrtd:environment_initialization.obj
 0002:000033d4       ??_C@_1CG@MNNNBNAK@?$AAc?$AAr?$AAe?$AAa?$AAt?$AAe?$AA_?$AAe?$AAn?$AAv?$AAi?$AAr?$AAo?$AAn?$AAm@ 100843d4     libucrtd:environment_initialization.obj
 0002:00003400       ??_C@_1HI@OOPIFFGA@?$AAt?$AAr?$AAa?$AAi?$AAt?$AAs?$AA?3?$AA?3?$AAt?$AAc?$AAs?$AAc?$AAp?$AAy?$AA_@ 10084400     libucrtd:environment_initialization.obj
 0002:00003478       ??_C@_0DC@NBHMIIKL@minkernel?2crts?2ucrt?2src?2appcrt?2@ 10084478     libucrtd:onexit.obj
 0002:00003544       ??_C@_04HJMOFLDF@Free@     10084544     libucrtd:debug_heap.obj
 0002:0000354c       ??_C@_06EFAGIKOH@Normal@   1008454c     libucrtd:debug_heap.obj
 0002:00003554       ??_C@_03OGPFLFLO@CRT@      10084554     libucrtd:debug_heap.obj
 0002:00003558       ??_C@_06KMEJCCGM@Ignore@   10084558     libucrtd:debug_heap.obj
 0002:00003560       ??_C@_06PJIGMIJB@Client@   10084560     libucrtd:debug_heap.obj
 0002:00003568       ??_C@_1CE@LJFEPPMP@?$AA_?$AAC?$AAr?$AAt?$AAC?$AAh?$AAe?$AAc?$AAk?$AAM?$AAe?$AAm?$AAo?$AAr?$AAy@ 10084568     libucrtd:debug_heap.obj
 0002:00003590       ??_C@_1GG@OCLHPJPK@?$AAm?$AAi?$AAn?$AAk?$AAe?$AAr?$AAn?$AAe?$AAl?$AA?2?$AAc?$AAr?$AAt?$AAs?$AA?2@ 10084590     libucrtd:debug_heap.obj
 0002:000035f8       ??_C@_0DF@BBEGIFEK@Client?5hook?5allocation?5failure?5@ 100845f8     libucrtd:debug_heap.obj
 0002:00003630       ??_C@_0CB@CCLOLAHO@Client?5hook?5allocation?5failure?4@ 10084630     libucrtd:debug_heap.obj
 0002:00003654       ??_C@_0DC@JEMAGEKG@Error?3?5memory?5allocation?3?5bad?5m@ 10084654     libucrtd:debug_heap.obj
 0002:00003688       ??_C@_0DI@KKJPDPGM@Client?5hook?5re?9allocation?5failu@ 10084688     libucrtd:debug_heap.obj
 0002:000036c0       ??_C@_0CE@DOFMDOL@Client?5hook?5re?9allocation?5failu@ 100846c0     libucrtd:debug_heap.obj
 0002:000036e8       ??_C@_0FA@EFEIGJKG@Error?3?5memory?5allocation?3?5bad?5m@ 100846e8     libucrtd:debug_heap.obj
 0002:00003738       ??_C@_0EM@LGFLMAGJ@The?5Block?5at?50x?$CFp?5was?5allocated@ 10084738     libucrtd:debug_heap.obj
 0002:00003784       ??_C@_1DM@DEDLGNML@?$AA_?$AAC?$AAr?$AAt?$AAI?$AAs?$AAV?$AAa?$AAl?$AAi?$AAd?$AAH?$AAe?$AAa?$AAp@ 10084784     libucrtd:debug_heap.obj
 0002:000037c0       ??_C@_1PC@MCGKJLN@?$AAo?$AAl?$AAd?$AA_?$AAh?$AAe?$AAa?$AAd?$AA?9?$AA?$DO?$AA_?$AAl?$AAi?$AAn?$AAe@ 100847c0     libucrtd:debug_heap.obj
 0002:000038b4       ??_C@_0DA@HFBKENN@Error?3?5possible?5heap?5corruption@ 100848b4     libucrtd:debug_heap.obj
 0002:000038e8       ??_C@_1JM@MCMEPJEP@?$AAr?$AAe?$AAa?$AAl?$AAl?$AAo?$AAc?$AAa?$AAt?$AAi?$AAo?$AAn?$AA_?$AAi?$AAs@ 100848e8     libucrtd:debug_heap.obj
 0002:00003984       ??_C@_1DM@LNOPKAIJ@?$AA_?$AA_?$AAa?$AAc?$AAr?$AAt?$AA_?$AAl?$AAa?$AAs?$AAt?$AA_?$AAb?$AAl?$AAo@ 10084984     libucrtd:debug_heap.obj
 0002:000039c0       ??_C@_1DO@HABCJBHO@?$AA_?$AA_?$AAa?$AAc?$AAr?$AAt?$AA_?$AAf?$AAi?$AAr?$AAs?$AAt?$AA_?$AAb?$AAl@ 100849c0     libucrtd:debug_heap.obj
 0002:00003a00       ??_C@_1CC@CKEAHJPH@?$AAb?$AAl?$AAo?$AAc?$AAk?$AA?5?$AA?$CB?$AA?$DN?$AA?5?$AAn?$AAu?$AAl?$AAl?$AAp?$AAt@ 10084a00     libucrtd:debug_heap.obj
 0002:00003a24       ??_C@_1BI@HAPNGHDP@?$AA_?$AAe?$AAx?$AAp?$AAa?$AAn?$AAd?$AA_?$AAd?$AAb?$AAg@ 10084a24     libucrtd:debug_heap.obj
